
main.elf:     file format elf32-avr

Sections:
Idx Name          Size      VMA       LMA       File off  Algn
  0 .data         000000ba  00800100  000066a0  00006734  2**0
                  CONTENTS, ALLOC, LOAD, DATA
  1 .text         000066a0  00000000  00000000  00000094  2**1
                  CONTENTS, ALLOC, LOAD, READONLY, CODE
  2 .bss          0000054f  008001ba  008001ba  000067ee  2**0
                  ALLOC
  3 .comment      00000022  00000000  00000000  000067ee  2**0
                  CONTENTS, READONLY
  4 .note.gnu.avr.deviceinfo 00000040  00000000  00000000  00006810  2**2
                  CONTENTS, READONLY
  5 .debug_aranges 00000208  00000000  00000000  00006850  2**0
                  CONTENTS, READONLY, DEBUGGING
  6 .debug_info   0000aae2  00000000  00000000  00006a58  2**0
                  CONTENTS, READONLY, DEBUGGING
  7 .debug_abbrev 00002bb9  00000000  00000000  0001153a  2**0
                  CONTENTS, READONLY, DEBUGGING
  8 .debug_line   0000a3a9  00000000  00000000  000140f3  2**0
                  CONTENTS, READONLY, DEBUGGING
  9 .debug_frame  00001b78  00000000  00000000  0001e49c  2**2
                  CONTENTS, READONLY, DEBUGGING
 10 .debug_str    0000197f  00000000  00000000  00020014  2**0
                  CONTENTS, READONLY, DEBUGGING
 11 .debug_loc    0000b00d  00000000  00000000  00021993  2**0
                  CONTENTS, READONLY, DEBUGGING
 12 .debug_ranges 000007a8  00000000  00000000  0002c9a0  2**0
                  CONTENTS, READONLY, DEBUGGING

Disassembly of section .text:

00000000 <__vectors>:
       0:	0c 94 dc 05 	jmp	0xbb8	; 0xbb8 <__ctors_end>
       4:	0c 94 f9 05 	jmp	0xbf2	; 0xbf2 <__bad_interrupt>
       8:	0c 94 f9 05 	jmp	0xbf2	; 0xbf2 <__bad_interrupt>
       c:	0c 94 f9 05 	jmp	0xbf2	; 0xbf2 <__bad_interrupt>
      10:	0c 94 f9 05 	jmp	0xbf2	; 0xbf2 <__bad_interrupt>
      14:	0c 94 f9 05 	jmp	0xbf2	; 0xbf2 <__bad_interrupt>
      18:	0c 94 f9 05 	jmp	0xbf2	; 0xbf2 <__bad_interrupt>
      1c:	0c 94 f9 05 	jmp	0xbf2	; 0xbf2 <__bad_interrupt>
      20:	0c 94 f9 05 	jmp	0xbf2	; 0xbf2 <__bad_interrupt>
      24:	0c 94 f9 05 	jmp	0xbf2	; 0xbf2 <__bad_interrupt>
      28:	0c 94 f9 05 	jmp	0xbf2	; 0xbf2 <__bad_interrupt>
      2c:	0c 94 fb 05 	jmp	0xbf6	; 0xbf6 <__vector_11>
      30:	0c 94 f9 05 	jmp	0xbf2	; 0xbf2 <__bad_interrupt>
      34:	0c 94 f9 05 	jmp	0xbf2	; 0xbf2 <__bad_interrupt>
      38:	0c 94 f9 05 	jmp	0xbf2	; 0xbf2 <__bad_interrupt>
      3c:	0c 94 f9 05 	jmp	0xbf2	; 0xbf2 <__bad_interrupt>
      40:	0c 94 f9 05 	jmp	0xbf2	; 0xbf2 <__bad_interrupt>
      44:	0c 94 f9 05 	jmp	0xbf2	; 0xbf2 <__bad_interrupt>
      48:	0c 94 2b 19 	jmp	0x3256	; 0x3256 <__vector_18>
      4c:	0c 94 f9 05 	jmp	0xbf2	; 0xbf2 <__bad_interrupt>
      50:	0c 94 f9 05 	jmp	0xbf2	; 0xbf2 <__bad_interrupt>
      54:	0c 94 f9 05 	jmp	0xbf2	; 0xbf2 <__bad_interrupt>
      58:	0c 94 f9 05 	jmp	0xbf2	; 0xbf2 <__bad_interrupt>
      5c:	0c 94 f9 05 	jmp	0xbf2	; 0xbf2 <__bad_interrupt>
      60:	0c 94 f9 05 	jmp	0xbf2	; 0xbf2 <__bad_interrupt>
      64:	0c 94 f9 05 	jmp	0xbf2	; 0xbf2 <__bad_interrupt>

00000068 <__trampolines_end>:
      68:	00 00       	nop
      6a:	00 00       	nop
      6c:	00 00       	nop
      6e:	00 5f       	subi	r16, 0xF0	; 240
      70:	00 00       	nop
      72:	00 07       	cpc	r16, r16
      74:	00 07       	cpc	r16, r16
      76:	00 14       	cp	r0, r0
      78:	7f 14       	cp	r7, r15
      7a:	7f 14       	cp	r7, r15
      7c:	24 2a       	or	r2, r20
      7e:	7f 2a       	or	r7, r31
      80:	12 23       	and	r17, r18
      82:	13 08       	sbc	r1, r3
      84:	64 62       	ori	r22, 0x24	; 36
      86:	36 49       	sbci	r19, 0x96	; 150
      88:	55 22       	and	r5, r21
      8a:	50 00       	.word	0x0050	; ????
      8c:	05 03       	mulsu	r16, r21
      8e:	00 00       	nop
      90:	00 1c       	adc	r0, r0
      92:	22 41       	sbci	r18, 0x12	; 18
      94:	00 00       	nop
      96:	41 22       	and	r4, r17
      98:	1c 00       	.word	0x001c	; ????
      9a:	08 2a       	or	r0, r24
      9c:	1c 2a       	or	r1, r28
      9e:	08 08       	sbc	r0, r8
      a0:	08 3e       	cpi	r16, 0xE8	; 232
      a2:	08 08       	sbc	r0, r8
      a4:	00 50       	subi	r16, 0x00	; 0
      a6:	30 00       	.word	0x0030	; ????
      a8:	00 08       	sbc	r0, r0
      aa:	08 08       	sbc	r0, r8
      ac:	08 08       	sbc	r0, r8
      ae:	00 60       	ori	r16, 0x00	; 0
      b0:	60 00       	.word	0x0060	; ????
      b2:	00 20       	and	r0, r0
      b4:	10 08       	sbc	r1, r0
      b6:	04 02       	muls	r16, r20
      b8:	3e 51       	subi	r19, 0x1E	; 30
      ba:	49 45       	sbci	r20, 0x59	; 89
      bc:	3e 00       	.word	0x003e	; ????
      be:	42 7f       	andi	r20, 0xF2	; 242
      c0:	40 00       	.word	0x0040	; ????
      c2:	42 61       	ori	r20, 0x12	; 18
      c4:	51 49       	sbci	r21, 0x91	; 145
      c6:	46 21       	and	r20, r6
      c8:	41 45       	sbci	r20, 0x51	; 81
      ca:	4b 31       	cpi	r20, 0x1B	; 27
      cc:	18 14       	cp	r1, r8
      ce:	12 7f       	andi	r17, 0xF2	; 242
      d0:	10 27       	eor	r17, r16
      d2:	45 45       	sbci	r20, 0x55	; 85
      d4:	45 39       	cpi	r20, 0x95	; 149
      d6:	3c 4a       	sbci	r19, 0xAC	; 172
      d8:	49 49       	sbci	r20, 0x99	; 153
      da:	30 01       	movw	r6, r0
      dc:	71 09       	sbc	r23, r1
      de:	05 03       	mulsu	r16, r21
      e0:	36 49       	sbci	r19, 0x96	; 150
      e2:	49 49       	sbci	r20, 0x99	; 153
      e4:	36 06       	cpc	r3, r22
      e6:	49 49       	sbci	r20, 0x99	; 153
      e8:	29 1e       	adc	r2, r25
      ea:	00 36       	cpi	r16, 0x60	; 96
      ec:	36 00       	.word	0x0036	; ????
      ee:	00 00       	nop
      f0:	56 36       	cpi	r21, 0x66	; 102
      f2:	00 00       	nop
      f4:	00 08       	sbc	r0, r0
      f6:	14 22       	and	r1, r20
      f8:	41 14       	cp	r4, r1
      fa:	14 14       	cp	r1, r4
      fc:	14 14       	cp	r1, r4
      fe:	41 22       	and	r4, r17
     100:	14 08       	sbc	r1, r4
     102:	00 02       	muls	r16, r16
     104:	01 51       	subi	r16, 0x11	; 17
     106:	09 06       	cpc	r0, r25
     108:	32 49       	sbci	r19, 0x92	; 146
     10a:	79 41       	sbci	r23, 0x19	; 25
     10c:	3e 7e       	andi	r19, 0xEE	; 238
     10e:	11 11       	cpse	r17, r1
     110:	11 7e       	andi	r17, 0xE1	; 225
     112:	7f 49       	sbci	r23, 0x9F	; 159
     114:	49 49       	sbci	r20, 0x99	; 153
     116:	36 3e       	cpi	r19, 0xE6	; 230
     118:	41 41       	sbci	r20, 0x11	; 17
     11a:	41 22       	and	r4, r17
     11c:	7f 41       	sbci	r23, 0x1F	; 31
     11e:	41 22       	and	r4, r17
     120:	1c 7f       	andi	r17, 0xFC	; 252
     122:	49 49       	sbci	r20, 0x99	; 153
     124:	49 41       	sbci	r20, 0x19	; 25
     126:	7f 09       	sbc	r23, r15
     128:	09 01       	movw	r0, r18
     12a:	01 3e       	cpi	r16, 0xE1	; 225
     12c:	41 41       	sbci	r20, 0x11	; 17
     12e:	51 32       	cpi	r21, 0x21	; 33
     130:	7f 08       	sbc	r7, r15
     132:	08 08       	sbc	r0, r8
     134:	7f 00       	.word	0x007f	; ????
     136:	41 7f       	andi	r20, 0xF1	; 241
     138:	41 00       	.word	0x0041	; ????
     13a:	20 40       	sbci	r18, 0x00	; 0
     13c:	41 3f       	cpi	r20, 0xF1	; 241
     13e:	01 7f       	andi	r16, 0xF1	; 241
     140:	08 14       	cp	r0, r8
     142:	22 41       	sbci	r18, 0x12	; 18
     144:	7f 40       	sbci	r23, 0x0F	; 15
     146:	40 40       	sbci	r20, 0x00	; 0
     148:	40 7f       	andi	r20, 0xF0	; 240
     14a:	02 04       	cpc	r0, r2
     14c:	02 7f       	andi	r16, 0xF2	; 242
     14e:	7f 04       	cpc	r7, r15
     150:	08 10       	cpse	r0, r8
     152:	7f 3e       	cpi	r23, 0xEF	; 239
     154:	41 41       	sbci	r20, 0x11	; 17
     156:	41 3e       	cpi	r20, 0xE1	; 225
     158:	7f 09       	sbc	r23, r15
     15a:	09 09       	sbc	r16, r9
     15c:	06 3e       	cpi	r16, 0xE6	; 230
     15e:	41 51       	subi	r20, 0x11	; 17
     160:	21 5e       	subi	r18, 0xE1	; 225
     162:	7f 09       	sbc	r23, r15
     164:	19 29       	or	r17, r9
     166:	46 46       	sbci	r20, 0x66	; 102
     168:	49 49       	sbci	r20, 0x99	; 153
     16a:	49 31       	cpi	r20, 0x19	; 25
     16c:	01 01       	movw	r0, r2
     16e:	7f 01       	movw	r14, r30
     170:	01 3f       	cpi	r16, 0xF1	; 241
     172:	40 40       	sbci	r20, 0x00	; 0
     174:	40 3f       	cpi	r20, 0xF0	; 240
     176:	1f 20       	and	r1, r15
     178:	40 20       	and	r4, r0
     17a:	1f 7f       	andi	r17, 0xFF	; 255
     17c:	20 18       	sub	r2, r0
     17e:	20 7f       	andi	r18, 0xF0	; 240
     180:	63 14       	cp	r6, r3
     182:	08 14       	cp	r0, r8
     184:	63 03       	mulsu	r22, r19
     186:	04 78       	andi	r16, 0x84	; 132
     188:	04 03       	mulsu	r16, r20
     18a:	61 51       	subi	r22, 0x11	; 17
     18c:	49 45       	sbci	r20, 0x59	; 89
     18e:	43 00       	.word	0x0043	; ????
     190:	00 7f       	andi	r16, 0xF0	; 240
     192:	41 41       	sbci	r20, 0x11	; 17
     194:	02 04       	cpc	r0, r2
     196:	08 10       	cpse	r0, r8
     198:	20 41       	sbci	r18, 0x10	; 16
     19a:	41 7f       	andi	r20, 0xF1	; 241
     19c:	00 00       	nop
     19e:	04 02       	muls	r16, r20
     1a0:	01 02       	muls	r16, r17
     1a2:	04 40       	sbci	r16, 0x04	; 4
     1a4:	40 40       	sbci	r20, 0x00	; 0
     1a6:	40 40       	sbci	r20, 0x00	; 0
     1a8:	00 01       	movw	r0, r0
     1aa:	02 04       	cpc	r0, r2
     1ac:	00 20       	and	r0, r0
     1ae:	54 54       	subi	r21, 0x44	; 68
     1b0:	54 78       	andi	r21, 0x84	; 132
     1b2:	7f 48       	sbci	r23, 0x8F	; 143
     1b4:	44 44       	sbci	r20, 0x44	; 68
     1b6:	38 38       	cpi	r19, 0x88	; 136
     1b8:	44 44       	sbci	r20, 0x44	; 68
     1ba:	44 20       	and	r4, r4
     1bc:	38 44       	sbci	r19, 0x48	; 72
     1be:	44 48       	sbci	r20, 0x84	; 132
     1c0:	7f 38       	cpi	r23, 0x8F	; 143
     1c2:	54 54       	subi	r21, 0x44	; 68
     1c4:	54 18       	sub	r5, r4
     1c6:	08 7e       	andi	r16, 0xE8	; 232
     1c8:	09 01       	movw	r0, r18
     1ca:	02 08       	sbc	r0, r2
     1cc:	14 54       	subi	r17, 0x44	; 68
     1ce:	54 3c       	cpi	r21, 0xC4	; 196
     1d0:	7f 08       	sbc	r7, r15
     1d2:	04 04       	cpc	r0, r4
     1d4:	78 00       	.word	0x0078	; ????
     1d6:	44 7d       	andi	r20, 0xD4	; 212
     1d8:	40 00       	.word	0x0040	; ????
     1da:	20 40       	sbci	r18, 0x00	; 0
     1dc:	44 3d       	cpi	r20, 0xD4	; 212
     1de:	00 00       	nop
     1e0:	7f 10       	cpse	r7, r15
     1e2:	28 44       	sbci	r18, 0x48	; 72
     1e4:	00 41       	sbci	r16, 0x10	; 16
     1e6:	7f 40       	sbci	r23, 0x0F	; 15
     1e8:	00 7c       	andi	r16, 0xC0	; 192
     1ea:	04 18       	sub	r0, r4
     1ec:	04 78       	andi	r16, 0x84	; 132
     1ee:	7c 08       	sbc	r7, r12
     1f0:	04 04       	cpc	r0, r4
     1f2:	78 38       	cpi	r23, 0x88	; 136
     1f4:	44 44       	sbci	r20, 0x44	; 68
     1f6:	44 38       	cpi	r20, 0x84	; 132
     1f8:	7c 14       	cp	r7, r12
     1fa:	14 14       	cp	r1, r4
     1fc:	08 08       	sbc	r0, r8
     1fe:	14 14       	cp	r1, r4
     200:	18 7c       	andi	r17, 0xC8	; 200
     202:	7c 08       	sbc	r7, r12
     204:	04 04       	cpc	r0, r4
     206:	08 48       	sbci	r16, 0x88	; 136
     208:	54 54       	subi	r21, 0x44	; 68
     20a:	54 20       	and	r5, r4
     20c:	04 3f       	cpi	r16, 0xF4	; 244
     20e:	44 40       	sbci	r20, 0x04	; 4
     210:	20 3c       	cpi	r18, 0xC0	; 192
     212:	40 40       	sbci	r20, 0x00	; 0
     214:	20 7c       	andi	r18, 0xC0	; 192
     216:	1c 20       	and	r1, r12
     218:	40 20       	and	r4, r0
     21a:	1c 3c       	cpi	r17, 0xCC	; 204
     21c:	40 30       	cpi	r20, 0x00	; 0
     21e:	40 3c       	cpi	r20, 0xC0	; 192
     220:	44 28       	or	r4, r4
     222:	10 28       	or	r1, r0
     224:	44 0c       	add	r4, r4
     226:	50 50       	subi	r21, 0x00	; 0
     228:	50 3c       	cpi	r21, 0xC0	; 192
     22a:	44 64       	ori	r20, 0x44	; 68
     22c:	54 4c       	sbci	r21, 0xC4	; 196
     22e:	44 00       	.word	0x0044	; ????
     230:	08 36       	cpi	r16, 0x68	; 104
     232:	41 00       	.word	0x0041	; ????
     234:	00 00       	nop
     236:	7f 00       	.word	0x007f	; ????
     238:	00 00       	nop
     23a:	41 36       	cpi	r20, 0x61	; 97
     23c:	08 00       	.word	0x0008	; ????
     23e:	08 08       	sbc	r0, r8
     240:	2a 1c       	adc	r2, r10
     242:	08 08       	sbc	r0, r8
     244:	1c 2a       	or	r1, r28
     246:	08 08       	sbc	r0, r8

00000248 <font_Earthbound_12x19_48to57>:
     248:	00 e0 f0 38 0c 0c 0c 0c 38 f8 c0 00 00 1f 7f e0     ...8....8.......
     258:	80 80 80 80 e0 ff 1f 00 00 00 00 01 01 01 01 01     ................
     268:	00 00 00 00 00 10 18 18 fc fc 00 00 00 00 00 00     ................
     278:	00 00 00 00 ff ff 00 00 00 00 00 00 00 00 00 00     ................
     288:	01 01 00 00 00 00 00 00 00 08 1c 0c 0c 0c 0c 8c     ................
     298:	f8 f0 00 00 00 f0 f8 9c 8c 86 86 83 83 80 00 00     ................
     2a8:	00 01 01 01 01 01 01 01 01 01 00 00 00 08 1c 0c     ................
     2b8:	0c 0c 0c 8c f8 f0 00 00 00 80 c0 80 81 83 83 c7     ................
     2c8:	ff 7c 00 00 00 00 01 01 01 01 01 01 00 00 00 00     .|..............
     2d8:	00 00 00 80 c0 70 38 fc fc 00 00 00 00 1c 1e 1b     .....p8.........
     2e8:	11 18 10 ff ff 10 18 00 00 00 00 00 00 00 00 01     ................
     2f8:	01 00 00 00 00 00 f4 fc 1c 0c 0c 0c 0c 00 00 00     ................
     308:	00 80 c3 83 83 83 83 c7 fe 78 00 00 00 00 00 01     .........x......
     318:	01 01 01 01 00 00 00 00 00 c0 f0 78 1c 0c 0c 0c     ...........x....
     328:	08 00 00 00 00 3f ff c3 83 83 83 c3 fe 7c 00 00     .....?.......|..
     338:	00 00 00 01 01 01 01 01 00 00 00 00 00 0c 0c 0c     ................
     348:	0c 8c cc 7c 3c 0c 00 00 00 00 80 f0 7c 0f 03 00     ...|<.......|...
     358:	00 00 00 00 00 00 01 01 00 00 00 00 00 00 00 00     ................
     368:	00 f0 f8 1c 0c 0c 0c 0c f8 f0 00 00 00 f8 ff 8f     ................
     378:	07 06 06 8f ff f8 00 00 00 00 01 03 03 03 03 01     ................
     388:	01 00 00 00 00 f0 f8 1c 0c 0c 0c 1c f8 e0 00 00     ................
     398:	00 01 87 8e 8c 8c 8c ee 7f 1f 00 00 00 00 01 01     ................
     3a8:	01 01 01 00 00 00 00 00                             ........

000003b0 <bmp_oslogo>:
	...
     3e0:	00 00 00 80 80 c0 c0 c0 e0 e0 e0 e0 e0 e0 e0 e0     ................
     3f0:	e0 e0 e0 e0 e0 e0 c0 c0 c0 80 80 00 00 00 00 00     ................
	...
     458:	00 80 c0 e0 f0 f8 fc fc fe ff ff ff ff ff ff ff     ................
     468:	ff ff ff ff ff ff ff ff ff ff ff ff ff ff ff ff     ................
     478:	ff ff ff ff ff fe fc fc f8 f0 e0 c0 80 00 00 00     ................
	...
     4d4:	00 80 f0 fc fe ff ff ff ff ff ff ff ff ff ff ff     ................
     4e4:	ff ff ff ff ff ff ff ff ff ff ff ff ff ff ff ff     ................
     4f4:	ff ff ff ff ff ff ff ff ff ff ff ff ff ff ff ff     ................
     504:	ff fe fc f0 c0 00 00 00 00 00 00 00 00 00 00 00     ................
	...
     554:	fc ff ff ff ff ff ff ff ff ff ff ff ff ff ff ff     ................
     564:	ff ff ff 1f 07 03 01 01 00 00 00 00 00 00 00 01     ................
     574:	03 07 1f ff ff ff ff ff ff ff ff ff ff ff ff ff     ................
     584:	ff ff ff ff ff fc 00 00 00 00 00 00 00 00 00 00     ................
	...
     5d4:	1f ff ff ff ff ff ff ff ff ff ff ff ff ff ff ff     ................
     5e4:	ff ff ff fc f0 e0 c0 80 80 00 00 00 00 00 80 c0     ................
     5f4:	c0 f0 fc ff ff ff ff ff ff ff ff ff ff ff ff ff     ................
     604:	ff ff ff ff ff 3f 00 00 00 00 00 00 00 00 00 00     .....?..........
	...
     654:	00 01 07 1f 7f ff ff ff ff ff ff ff ff ff ff ff     ................
     664:	ff ff ff ff ff ff 7f 0f 03 00 00 00 00 01 0f 3f     ...............?
     674:	ff ff ff ff ff ff ff ff ff ff ff ff ff ff ff ff     ................
     684:	ff 7f 1f 07 01 00 00 00 00 00 00 00 00 00 00 00     ................
	...
     6d8:	00 00 01 03 07 0f 1f 3f 3f 7f ff ff ff ff ff 7f     .......??.......
     6e8:	0f 03 00 00 00 00 00 00 00 00 00 00 01 0f 3f ff     ..............?.
     6f8:	ff ff ff ff 7f 7f 3f 1f 0f 07 03 01 00 00 00 00     ......?.........
	...
     764:	00 01 01 00 00 00 00 00 00 00 00 00 00 00 00 00     ................
     774:	00 00 00 01 01 01 00 00 00 00 00 00 00 00 00 00     ................
	...

000007b0 <Liberation_Sans15x21_Numbers>:
     7b0:	06 00 00 00 00 00 00 00 00 0f 00 00 0f 00 00 0f     ................
     7c0:	00 00 0f 00 00 00 00 00 00 00 00 00 00 00 00 00     ................
	...
     7dc:	00 00 07 00 00 1e 00 e0 1f 00 ff 1f f8 ff 03 ff     ................
     7ec:	1f 00 ff 01 00 0f 00 00 00 00 00 00 00 00 00 00     ................
	...
     80c:	0e 00 00 00 c0 7f 00 f8 ff 01 fc ff 07 fc ff 07     ................
     81c:	3e 80 0f 0e 00 0e 0e 00 0e 0e 00 0e 1e 80 0f fc     >...............
     82c:	ff 07 fc ff 07 f8 ff 01 c0 7f 00 00 00 00 0e 00     ................
     83c:	00 00 70 00 0e 38 00 0e 38 00 0e 1c 00 0e 0e 00     ..p..8..8.......
     84c:	0e fe ff 0f fe ff 0f fe ff 0f fe ff 0f 00 00 0e     ................
     85c:	00 00 0e 00 00 0e 00 00 0e 00 00 00 0e 00 00 00     ................
     86c:	60 00 0f 78 80 0f 7c c0 0f 7c e0 0f 1e f0 0f 0e     `..x..|..|......
     87c:	f8 0e 0e 7c 0e 0e 3e 0e 1e 1f 0e fe 0f 0e fc 07     ...|..>.........
     88c:	0e f8 03 0e f0 01 0e 00 00 00 0e 00 00 00 30 80     ..............0.
     89c:	01 38 80 03 3c 80 07 3c 80 0f 1e 00 0f 0e 0e 0e     .8..<..<........
     8ac:	0e 0e 0e 0e 0e 0e 1e 1f 0f fe ff 0f fc fb 07 fc     ................
     8bc:	f9 03 f0 e0 01 00 00 00 0f 00 00 00 00 f0 00 00     ................
     8cc:	f8 00 00 fe 00 80 ef 00 c0 e7 00 f0 e1 00 7c e0     ..............|.
     8dc:	00 3e e0 00 fe ff 0f fe ff 0f fe ff 0f fe ff 0f     .>..............
     8ec:	00 e0 00 00 e0 00 0e 00 00 00 00 80 01 f8 87 03     ................
     8fc:	fe 87 07 fe 87 0f fe 07 0f 0e 03 0e 8e 03 0e 8e     ................
     90c:	03 0e 8e 07 0f 8e ff 07 0e ff 07 0e fe 03 00 fc     ................
     91c:	00 00 00 00 0e 00 00 00 c0 7f 00 f0 ff 01 f8 ff     ................
     92c:	07 fc ff 07 3e 0e 0f 0e 07 0e 0e 07 0e 0e 07 0e     ....>...........
     93c:	1e 0f 0f 3e ff 0f 3c fe 07 38 fe 03 30 f8 01 00     ...>..<..8..0...
     94c:	00 00 0e 00 00 00 0e 00 00 0e 00 00 0e 00 00 0e     ................
     95c:	00 0f 0e e0 0f 0e f8 0f 0e fe 0f 8e ff 00 ce 0f     ................
     96c:	00 fe 03 00 fe 00 00 3e 00 00 1e 00 00 00 00 00     .......>........
     97c:	0e 00 00 00 f0 e0 01 f8 fb 03 fc fb 07 fe ff 0f     ................
     98c:	1e 1f 0f 0e 0e 0e 0e 0e 0e 0e 0e 0e 1e 1f 0f fe     ................
     99c:	ff 0f fc fb 07 fc fb 03 f0 e0 01 00 00 00 0e 00     ................
     9ac:	00 00 f0 83 01 f8 87 03 fc 8f 07 fe 9f 0f 1e 1e     ................
     9bc:	0f 0e 1c 0e 0e 1c 0e 0e 1c 0e 1e 8e 0f fc ff 07     ................
     9cc:	fc ff 03 f8 ff 01 c0 7f 00 00 00 00                 ............

000009d8 <Font5x7>:
     9d8:	00 00 00 00 00 00 00 5f 00 00 00 07 00 07 00 14     ......._........
     9e8:	7f 14 7f 14 24 2a 7f 2a 12 23 13 08 64 62 36 49     ....$*.*.#..db6I
     9f8:	55 22 50 00 05 03 00 00 00 1c 22 41 00 00 41 22     U"P......."A..A"
     a08:	1c 00 08 2a 1c 2a 08 08 08 3e 08 08 00 50 30 00     ...*.*...>...P0.
     a18:	00 08 08 08 08 08 00 60 60 00 00 20 10 08 04 02     .......``.. ....
     a28:	3e 51 49 45 3e 00 42 7f 40 00 42 61 51 49 46 21     >QIE>.B.@.BaQIF!
     a38:	41 45 4b 31 18 14 12 7f 10 27 45 45 45 39 3c 4a     AEK1.....'EEE9<J
     a48:	49 49 30 01 71 09 05 03 36 49 49 49 36 06 49 49     II0.q...6III6.II
     a58:	29 1e 00 36 36 00 00 00 56 36 00 00 00 08 14 22     )..66...V6....."
     a68:	41 14 14 14 14 14 41 22 14 08 00 02 01 51 09 06     A.....A".....Q..
     a78:	32 49 79 41 3e 7e 11 11 11 7e 7f 49 49 49 36 3e     2IyA>~...~.III6>
     a88:	41 41 41 22 7f 41 41 22 1c 7f 49 49 49 41 7f 09     AAA".AA"..IIIA..
     a98:	09 01 01 3e 41 41 51 32 7f 08 08 08 7f 00 41 7f     ...>AAQ2......A.
     aa8:	41 00 20 40 41 3f 01 7f 08 14 22 41 7f 40 40 40     A. @A?...."A.@@@
     ab8:	40 7f 02 04 02 7f 7f 04 08 10 7f 3e 41 41 41 3e     @..........>AAA>
     ac8:	7f 09 09 09 06 3e 41 51 21 5e 7f 09 19 29 46 46     .....>AQ!^...)FF
     ad8:	49 49 49 31 01 01 7f 01 01 3f 40 40 40 3f 1f 20     III1.....?@@@?. 
     ae8:	40 20 1f 7f 20 18 20 7f 63 14 08 14 63 03 04 78     @ .. . .c...c..x
     af8:	04 03 61 51 49 45 43 00 00 7f 41 41 02 04 08 10     ..aQIEC...AA....
     b08:	20 41 41 7f 00 00 04 02 01 02 04 40 40 40 40 40      AA........@@@@@
     b18:	00 01 02 04 00 20 54 54 54 78 7f 48 44 44 38 38     ..... TTTx.HDD88
     b28:	44 44 44 20 38 44 44 48 7f 38 54 54 54 18 08 7e     DDD 8DDH.8TTT..~
     b38:	09 01 02 08 14 54 54 3c 7f 08 04 04 78 00 44 7d     .....TT<....x.D}
     b48:	40 00 20 40 44 3d 00 00 7f 10 28 44 00 41 7f 40     @. @D=....(D.A.@
     b58:	00 7c 04 18 04 78 7c 08 04 04 78 38 44 44 44 38     .|...x|...x8DDD8
     b68:	7c 14 14 14 08 08 14 14 18 7c 7c 08 04 04 08 48     |........||....H
     b78:	54 54 54 20 04 3f 44 40 20 3c 40 40 20 7c 1c 20     TTT .?D@ <@@ |. 
     b88:	40 20 1c 3c 40 30 40 3c 44 28 10 28 44 0c 50 50     @ .<@0@<D(.(D.PP
     b98:	50 3c 44 64 54 4c 44 00 08 36 41 00 00 00 7f 00     P<DdTLD..6A.....
     ba8:	00 00 41 36 08 00 08 08 2a 1c 08 08 1c 2a 08 08     ..A6....*....*..

00000bb8 <__ctors_end>:
     bb8:	11 24       	eor	r1, r1
     bba:	1f be       	out	0x3f, r1	; 63
     bbc:	cf ef       	ldi	r28, 0xFF	; 255
     bbe:	d8 e0       	ldi	r29, 0x08	; 8
     bc0:	de bf       	out	0x3e, r29	; 62
     bc2:	cd bf       	out	0x3d, r28	; 61

00000bc4 <__do_copy_data>:
     bc4:	11 e0       	ldi	r17, 0x01	; 1
     bc6:	a0 e0       	ldi	r26, 0x00	; 0
     bc8:	b1 e0       	ldi	r27, 0x01	; 1
     bca:	e0 ea       	ldi	r30, 0xA0	; 160
     bcc:	f6 e6       	ldi	r31, 0x66	; 102
     bce:	02 c0       	rjmp	.+4      	; 0xbd4 <__do_copy_data+0x10>
     bd0:	05 90       	lpm	r0, Z+
     bd2:	0d 92       	st	X+, r0
     bd4:	aa 3b       	cpi	r26, 0xBA	; 186
     bd6:	b1 07       	cpc	r27, r17
     bd8:	d9 f7       	brne	.-10     	; 0xbd0 <__do_copy_data+0xc>

00000bda <__do_clear_bss>:
     bda:	27 e0       	ldi	r18, 0x07	; 7
     bdc:	aa eb       	ldi	r26, 0xBA	; 186
     bde:	b1 e0       	ldi	r27, 0x01	; 1
     be0:	01 c0       	rjmp	.+2      	; 0xbe4 <.do_clear_bss_start>

00000be2 <.do_clear_bss_loop>:
     be2:	1d 92       	st	X+, r1

00000be4 <.do_clear_bss_start>:
     be4:	a9 30       	cpi	r26, 0x09	; 9
     be6:	b2 07       	cpc	r27, r18
     be8:	e1 f7       	brne	.-8      	; 0xbe2 <.do_clear_bss_loop>
     bea:	0e 94 b7 2c 	call	0x596e	; 0x596e <main>
     bee:	0c 94 3f 33 	jmp	0x667e	; 0x667e <_exit>

00000bf2 <__bad_interrupt>:
     bf2:	0c 94 00 00 	jmp	0	; 0x0 <__vectors>

00000bf6 <__vector_11>:
	/* Set up glcd, also sets up SPI and relevent GPIO pins */
	glcd_init();
}

ISR (TIMER1_COMPA_vect)
{
     bf6:	1f 92       	push	r1
     bf8:	1f b6       	in	r1, 0x3f	; 63
     bfa:	1f 92       	push	r1
     bfc:	11 24       	eor	r1, r1
     bfe:	8f 93       	push	r24
     c00:	9f 93       	push	r25
	ms10++;
     c02:	80 91 df 04 	lds	r24, 0x04DF	; 0x8004df <ms10>
     c06:	8f 5f       	subi	r24, 0xFF	; 255
     c08:	80 93 df 04 	sts	0x04DF, r24	; 0x8004df <ms10>
	if(entprell != 0)entprell--;
     c0c:	90 91 ec 04 	lds	r25, 0x04EC	; 0x8004ec <entprell>
     c10:	99 23       	and	r25, r25
     c12:	19 f0       	breq	.+6      	; 0xc1a <__vector_11+0x24>
     c14:	91 50       	subi	r25, 0x01	; 1
     c16:	90 93 ec 04 	sts	0x04EC, r25	; 0x8004ec <entprell>
	if(ms10==10)	//10ms
     c1a:	8a 30       	cpi	r24, 0x0A	; 10
     c1c:	39 f4       	brne	.+14     	; 0xc2c <__vector_11+0x36>
     c1e:	80 91 ef 04 	lds	r24, 0x04EF	; 0x8004ef <ms100>
	{
		ms10=0;
     c22:	10 92 df 04 	sts	0x04DF, r1	; 0x8004df <ms10>
		ms100++;
     c26:	8f 5f       	subi	r24, 0xFF	; 255
     c28:	80 93 ef 04 	sts	0x04EF, r24	; 0x8004ef <ms100>
	}
    if(ms100==10)	//100ms
     c2c:	80 91 ef 04 	lds	r24, 0x04EF	; 0x8004ef <ms100>
     c30:	8a 30       	cpi	r24, 0x0A	; 10
     c32:	39 f4       	brne	.+14     	; 0xc42 <__vector_11+0x4c>
     c34:	80 91 f2 04 	lds	r24, 0x04F2	; 0x8004f2 <sec>
	{
		ms100=0;
     c38:	10 92 ef 04 	sts	0x04EF, r1	; 0x8004ef <ms100>
		sec++;
     c3c:	8f 5f       	subi	r24, 0xFF	; 255
     c3e:	80 93 f2 04 	sts	0x04F2, r24	; 0x8004f2 <sec>
	}
	if(sec==60)	//Minute
     c42:	80 91 f2 04 	lds	r24, 0x04F2	; 0x8004f2 <sec>
     c46:	8c 33       	cpi	r24, 0x3C	; 60
     c48:	39 f4       	brne	.+14     	; 0xc58 <__vector_11+0x62>
	{
		sec=0;
     c4a:	10 92 f2 04 	sts	0x04F2, r1	; 0x8004f2 <sec>
		min++;
     c4e:	80 91 ee 04 	lds	r24, 0x04EE	; 0x8004ee <min>
     c52:	8f 5f       	subi	r24, 0xFF	; 255
     c54:	80 93 ee 04 	sts	0x04EE, r24	; 0x8004ee <min>
	}
}
     c58:	9f 91       	pop	r25
     c5a:	8f 91       	pop	r24
     c5c:	1f 90       	pop	r1
     c5e:	1f be       	out	0x3f, r1	; 63
     c60:	1f 90       	pop	r1
     c62:	18 95       	reti

00000c64 <glcd_update_bbox>:
/** @} */

void glcd_update_bbox(uint8_t xmin, uint8_t ymin, uint8_t xmax, uint8_t ymax)
{
	/* Keep and check bounding box within limits of LCD screen dimensions */
	if (xmin > (GLCD_LCD_WIDTH-1)) {
     c64:	84 35       	cpi	r24, 0x54	; 84
     c66:	08 f0       	brcs	.+2      	; 0xc6a <glcd_update_bbox+0x6>
     c68:	83 e5       	ldi	r24, 0x53	; 83
		xmin = GLCD_LCD_WIDTH-1;
	}
	if (xmax > (GLCD_LCD_WIDTH-1)) {
     c6a:	44 35       	cpi	r20, 0x54	; 84
     c6c:	08 f0       	brcs	.+2      	; 0xc70 <glcd_update_bbox+0xc>
     c6e:	43 e5       	ldi	r20, 0x53	; 83
		xmax = GLCD_LCD_WIDTH-1;
	}

	if (ymin > (GLCD_LCD_HEIGHT-1)) {
     c70:	60 33       	cpi	r22, 0x30	; 48
     c72:	08 f0       	brcs	.+2      	; 0xc76 <glcd_update_bbox+0x12>
     c74:	6f e2       	ldi	r22, 0x2F	; 47
		ymin = GLCD_LCD_HEIGHT-1;
	}
	if (ymax > (GLCD_LCD_HEIGHT-1)) {
     c76:	20 33       	cpi	r18, 0x30	; 48
     c78:	08 f0       	brcs	.+2      	; 0xc7c <glcd_update_bbox+0x18>
     c7a:	2f e2       	ldi	r18, 0x2F	; 47
		ymax = GLCD_LCD_HEIGHT-1;
	}

	/* Update the bounding box size */
	if (xmin < glcd_bbox_selected->x_min) {
     c7c:	e0 91 00 07 	lds	r30, 0x0700	; 0x800700 <glcd_bbox_selected>
     c80:	f0 91 01 07 	lds	r31, 0x0701	; 0x800701 <glcd_bbox_selected+0x1>
     c84:	90 81       	ld	r25, Z
     c86:	89 17       	cp	r24, r25
     c88:	08 f4       	brcc	.+2      	; 0xc8c <glcd_update_bbox+0x28>
		glcd_bbox_selected->x_min = xmin;
     c8a:	80 83       	st	Z, r24
	}		
	if (xmax > glcd_bbox_selected->x_max) {
     c8c:	82 81       	ldd	r24, Z+2	; 0x02
     c8e:	84 17       	cp	r24, r20
     c90:	08 f4       	brcc	.+2      	; 0xc94 <glcd_update_bbox+0x30>
		glcd_bbox_selected->x_max = xmax;
     c92:	42 83       	std	Z+2, r20	; 0x02
	}
	if (ymin < glcd_bbox_selected->y_min) {
     c94:	81 81       	ldd	r24, Z+1	; 0x01
     c96:	68 17       	cp	r22, r24
     c98:	08 f4       	brcc	.+2      	; 0xc9c <glcd_update_bbox+0x38>
		glcd_bbox_selected->y_min = ymin;
     c9a:	61 83       	std	Z+1, r22	; 0x01
	}		
	if (ymax > glcd_bbox_selected->y_max) {
     c9c:	83 81       	ldd	r24, Z+3	; 0x03
     c9e:	82 17       	cp	r24, r18
     ca0:	08 f4       	brcc	.+2      	; 0xca4 <glcd_update_bbox+0x40>
		glcd_bbox_selected->y_max = ymax;
     ca2:	23 83       	std	Z+3, r18	; 0x03
	}			
}
     ca4:	08 95       	ret

00000ca6 <glcd_reset_bbox>:

void glcd_reset_bbox()
{
	/* Used after physically writing to the LCD */
	glcd_bbox_selected->x_min = GLCD_LCD_WIDTH - 1;
     ca6:	e0 91 00 07 	lds	r30, 0x0700	; 0x800700 <glcd_bbox_selected>
     caa:	f0 91 01 07 	lds	r31, 0x0701	; 0x800701 <glcd_bbox_selected+0x1>
     cae:	83 e5       	ldi	r24, 0x53	; 83
     cb0:	80 83       	st	Z, r24
	glcd_bbox_selected->x_max = 0;
     cb2:	12 82       	std	Z+2, r1	; 0x02
	glcd_bbox_selected->y_min = GLCD_LCD_HEIGHT -1;
     cb4:	8f e2       	ldi	r24, 0x2F	; 47
     cb6:	81 83       	std	Z+1, r24	; 0x01
	glcd_bbox_selected->y_max = 0;	
     cb8:	13 82       	std	Z+3, r1	; 0x03
}
     cba:	08 95       	ret

00000cbc <glcd_bbox_reset>:

void glcd_bbox_reset() {
	glcd_reset_bbox();
     cbc:	0c 94 53 06 	jmp	0xca6	; 0xca6 <glcd_reset_bbox>

00000cc0 <glcd_bbox_refresh>:
}

void glcd_bbox_refresh() {
	/* Marks bounding box as entire screen, so on next glcd_write(), it writes the entire buffer to the LCD */
	glcd_bbox_selected->x_min = 0;
     cc0:	e0 91 00 07 	lds	r30, 0x0700	; 0x800700 <glcd_bbox_selected>
     cc4:	f0 91 01 07 	lds	r31, 0x0701	; 0x800701 <glcd_bbox_selected+0x1>
     cc8:	10 82       	st	Z, r1
	glcd_bbox_selected->x_max = GLCD_LCD_WIDTH - 1;
     cca:	83 e5       	ldi	r24, 0x53	; 83
     ccc:	82 83       	std	Z+2, r24	; 0x02
	glcd_bbox_selected->y_min = 0;
     cce:	11 82       	std	Z+1, r1	; 0x01
	glcd_bbox_selected->y_max = GLCD_LCD_HEIGHT -1;		
     cd0:	8f e2       	ldi	r24, 0x2F	; 47
     cd2:	83 83       	std	Z+3, r24	; 0x03
}
     cd4:	08 95       	ret

00000cd6 <glcd_clear>:

void glcd_clear(void) {
	memset(glcd_buffer_selected, 0x00, GLCD_LCD_WIDTH * GLCD_LCD_HEIGHT / 8);
     cd6:	e0 91 fe 06 	lds	r30, 0x06FE	; 0x8006fe <glcd_buffer_selected>
     cda:	f0 91 ff 06 	lds	r31, 0x06FF	; 0x8006ff <glcd_buffer_selected+0x1>
     cde:	88 ef       	ldi	r24, 0xF8	; 248
     ce0:	91 e0       	ldi	r25, 0x01	; 1
     ce2:	df 01       	movw	r26, r30
     ce4:	9c 01       	movw	r18, r24
     ce6:	1d 92       	st	X+, r1
     ce8:	21 50       	subi	r18, 0x01	; 1
     cea:	30 40       	sbci	r19, 0x00	; 0
     cec:	e1 f7       	brne	.-8      	; 0xce6 <glcd_clear+0x10>
	glcd_update_bbox(0,0,GLCD_LCD_WIDTH - 1,GLCD_LCD_HEIGHT - 1);
     cee:	2f e2       	ldi	r18, 0x2F	; 47
     cf0:	43 e5       	ldi	r20, 0x53	; 83
     cf2:	60 e0       	ldi	r22, 0x00	; 0
     cf4:	80 e0       	ldi	r24, 0x00	; 0
     cf6:	0e 94 32 06 	call	0xc64	; 0xc64 <glcd_update_bbox>
	glcd_write();
     cfa:	0c 94 10 07 	jmp	0xe20	; 0xe20 <glcd_write>

00000cfe <glcd_clear_buffer>:
}

void glcd_clear_buffer(void) {
	memset(glcd_buffer_selected, 0x00, GLCD_LCD_WIDTH * GLCD_LCD_HEIGHT / 8);
     cfe:	e0 91 fe 06 	lds	r30, 0x06FE	; 0x8006fe <glcd_buffer_selected>
     d02:	f0 91 ff 06 	lds	r31, 0x06FF	; 0x8006ff <glcd_buffer_selected+0x1>
     d06:	88 ef       	ldi	r24, 0xF8	; 248
     d08:	91 e0       	ldi	r25, 0x01	; 1
     d0a:	df 01       	movw	r26, r30
     d0c:	9c 01       	movw	r18, r24
     d0e:	1d 92       	st	X+, r1
     d10:	21 50       	subi	r18, 0x01	; 1
     d12:	30 40       	sbci	r19, 0x00	; 0
     d14:	e1 f7       	brne	.-8      	; 0xd0e <glcd_clear_buffer+0x10>
	glcd_update_bbox(0,0,GLCD_LCD_WIDTH - 1,GLCD_LCD_HEIGHT - 1);
     d16:	2f e2       	ldi	r18, 0x2F	; 47
     d18:	43 e5       	ldi	r20, 0x53	; 83
     d1a:	60 e0       	ldi	r22, 0x00	; 0
     d1c:	80 e0       	ldi	r24, 0x00	; 0
     d1e:	0c 94 32 06 	jmp	0xc64	; 0xc64 <glcd_update_bbox>

00000d22 <glcd_select_screen>:
}

void glcd_select_screen(uint8_t *buffer, glcd_BoundingBox_t *bbox)
{
	glcd_buffer_selected = buffer;
     d22:	90 93 ff 06 	sts	0x06FF, r25	; 0x8006ff <glcd_buffer_selected+0x1>
     d26:	80 93 fe 06 	sts	0x06FE, r24	; 0x8006fe <glcd_buffer_selected>
	glcd_bbox_selected = bbox;
     d2a:	70 93 01 07 	sts	0x0701, r23	; 0x800701 <glcd_bbox_selected+0x1>
     d2e:	60 93 00 07 	sts	0x0700, r22	; 0x800700 <glcd_bbox_selected>
}
     d32:	08 95       	ret

00000d34 <glcd_scroll>:
		uint8_t x;
		for (x=0; x<GLCD_LCD_WIDTH; x++) {
			
		}
	}
}
     d34:	08 95       	ret

00000d36 <glcd_scroll_line>:

void glcd_scroll_line(void)
{
     d36:	24 e5       	ldi	r18, 0x54	; 84
     d38:	30 e0       	ldi	r19, 0x00	; 0
	uint8_t y;
	uint8_t number_of_rows = GLCD_LCD_HEIGHT / 8;
	for (y=0; y<number_of_rows; y++) {
     d3a:	80 e0       	ldi	r24, 0x00	; 0
		if (y < (number_of_rows - 1)) {
			/* All lines except the last */
			memcpy(glcd_buffer_selected + y*GLCD_LCD_WIDTH, glcd_buffer_selected + y*GLCD_LCD_WIDTH + GLCD_LCD_WIDTH, GLCD_LCD_WIDTH);
		} else {
			/* Last line, clear it */
			memset(glcd_buffer_selected + (number_of_rows - 1)*GLCD_LCD_WIDTH, 0x00, GLCD_LCD_WIDTH);
     d3c:	44 e5       	ldi	r20, 0x54	; 84
		if (y < (number_of_rows - 1)) {
     d3e:	e0 91 fe 06 	lds	r30, 0x06FE	; 0x8006fe <glcd_buffer_selected>
     d42:	f0 91 ff 06 	lds	r31, 0x06FF	; 0x8006ff <glcd_buffer_selected+0x1>
     d46:	85 30       	cpi	r24, 0x05	; 5
     d48:	b9 f0       	breq	.+46     	; 0xd78 <glcd_scroll_line+0x42>
			memcpy(glcd_buffer_selected + y*GLCD_LCD_WIDTH, glcd_buffer_selected + y*GLCD_LCD_WIDTH + GLCD_LCD_WIDTH, GLCD_LCD_WIDTH);
     d4a:	d9 01       	movw	r26, r18
     d4c:	a4 55       	subi	r26, 0x54	; 84
     d4e:	b1 09       	sbc	r27, r1
     d50:	ae 0f       	add	r26, r30
     d52:	bf 1f       	adc	r27, r31
     d54:	e2 0f       	add	r30, r18
     d56:	f3 1f       	adc	r31, r19
     d58:	94 e5       	ldi	r25, 0x54	; 84
     d5a:	01 90       	ld	r0, Z+
     d5c:	0d 92       	st	X+, r0
     d5e:	9a 95       	dec	r25
     d60:	e1 f7       	brne	.-8      	; 0xd5a <glcd_scroll_line+0x24>
	for (y=0; y<number_of_rows; y++) {
     d62:	8f 5f       	subi	r24, 0xFF	; 255
     d64:	2c 5a       	subi	r18, 0xAC	; 172
     d66:	3f 4f       	sbci	r19, 0xFF	; 255
     d68:	86 30       	cpi	r24, 0x06	; 6
     d6a:	49 f7       	brne	.-46     	; 0xd3e <glcd_scroll_line+0x8>
		}
	}
	glcd_update_bbox(0,0,GLCD_LCD_WIDTH - 1,GLCD_LCD_HEIGHT - 1);
     d6c:	2f e2       	ldi	r18, 0x2F	; 47
     d6e:	43 e5       	ldi	r20, 0x53	; 83
     d70:	60 e0       	ldi	r22, 0x00	; 0
     d72:	80 e0       	ldi	r24, 0x00	; 0
     d74:	0c 94 32 06 	jmp	0xc64	; 0xc64 <glcd_update_bbox>
			memset(glcd_buffer_selected + (number_of_rows - 1)*GLCD_LCD_WIDTH, 0x00, GLCD_LCD_WIDTH);
     d78:	ec 55       	subi	r30, 0x5C	; 92
     d7a:	fe 4f       	sbci	r31, 0xFE	; 254
     d7c:	df 01       	movw	r26, r30
     d7e:	94 2f       	mov	r25, r20
     d80:	1d 92       	st	X+, r1
     d82:	9a 95       	dec	r25
     d84:	e9 f7       	brne	.-6      	; 0xd80 <glcd_scroll_line+0x4a>
     d86:	ed cf       	rjmp	.-38     	; 0xd62 <glcd_scroll_line+0x2c>

00000d88 <glcd_init>:
	/*
	 * Set up SPI for AVR8
	 * Note: AVR's SS pin must be set to output, regardless of whether we
	 * actually use it. This is a requirement of SPI mster mode.
	 */
	sbi(DDR(AVR_SS_PORT),AVR_SS_PIN);
     d88:	20 9a       	sbi	0x04, 0	; 4
	
	/*
	 *  Set MOSI, Master SS, SCK to output (otherwise SPI won't work)
	 *  Must be done even if native SS pin not used
	 */
	sbi(DDR(CONTROLLER_MOSI_PORT),CONTROLLER_MOSI_PIN);
     d8a:	23 9a       	sbi	0x04, 3	; 4
	sbi(DDR(CONTROLLER_SS_PORT),CONTROLLER_SS_PIN);
     d8c:	20 9a       	sbi	0x04, 0	; 4
	sbi(DDR(CONTROLLER_SCK_PORT),CONTROLLER_SCK_PIN);
     d8e:	25 9a       	sbi	0x04, 5	; 4
		
	/* Set SS, DC and RST pins to output */
	sbi( DDR(CONTROLLER_SS_PORT), CONTROLLER_SS_PIN );
     d90:	20 9a       	sbi	0x04, 0	; 4
	sbi( DDR(CONTROLLER_DC_PORT), CONTROLLER_DC_PIN );
     d92:	21 9a       	sbi	0x04, 1	; 4
	sbi( DDR(CONTROLLER_RST_PORT), CONTROLLER_RST_PIN );
     d94:	57 9a       	sbi	0x0a, 7	; 10
	
	/* Deselect LCD */
	GLCD_DESELECT();
     d96:	28 9a       	sbi	0x05, 0	; 5

	/*
	 * Max allowed SPI clock is 4 MHz from datasheet.
	 * Enable SPI, set master mode and clock rate to /4 (4MHz with F_CPU=8MHz)
	 */
	SPCR = (1<<SPE)|(1<<MSTR);
     d98:	80 e5       	ldi	r24, 0x50	; 80
     d9a:	8c bd       	out	0x2c, r24	; 44
	SPSR = 0;
     d9c:	1d bc       	out	0x2d, r1	; 45
	
	glcd_PCD8544_init();
     d9e:	0e 94 5e 07 	call	0xebc	; 0xebc <glcd_PCD8544_init>

	/* Select screen buffer */
	glcd_select_screen(glcd_buffer,&glcd_bbox);
     da2:	62 e0       	ldi	r22, 0x02	; 2
     da4:	75 e0       	ldi	r23, 0x05	; 5
     da6:	86 e0       	ldi	r24, 0x06	; 6
     da8:	95 e0       	ldi	r25, 0x05	; 5
     daa:	0e 94 91 06 	call	0xd22	; 0xd22 <glcd_select_screen>
	
	/* Clear screen, we are now ready to go */
	glcd_clear();
     dae:	0c 94 6b 06 	jmp	0xcd6	; 0xcd6 <glcd_clear>

00000db2 <glcd_spi_write>:
	
}

void glcd_spi_write(uint8_t c)
{
	GLCD_SELECT();
     db2:	28 98       	cbi	0x05, 0	; 5
	SPDR = c;
     db4:	8e bd       	out	0x2e, r24	; 46
	while(!(SPSR & (1<<SPIF))); /* wait until transmission is complete */
     db6:	0d b4       	in	r0, 0x2d	; 45
     db8:	07 fe       	sbrs	r0, 7
     dba:	fd cf       	rjmp	.-6      	; 0xdb6 <glcd_spi_write+0x4>
	GLCD_DESELECT();	
     dbc:	28 9a       	sbi	0x05, 0	; 5
}
     dbe:	08 95       	ret

00000dc0 <glcd_reset>:

void glcd_reset(void)
{
	/* Toggle RST low to reset. Minimum pulse 100ns on datasheet. */
	GLCD_SELECT();
     dc0:	28 98       	cbi	0x05, 0	; 5
	GLCD_RESET_LOW();
     dc2:	5f 98       	cbi	0x0b, 7	; 11
    milliseconds can be achieved.
 */
void
_delay_loop_2(uint16_t __count)
{
	__asm__ volatile (
     dc4:	80 ed       	ldi	r24, 0xD0	; 208
     dc6:	97 e0       	ldi	r25, 0x07	; 7
     dc8:	01 97       	sbiw	r24, 0x01	; 1
     dca:	f1 f7       	brne	.-4      	; 0xdc8 <glcd_reset+0x8>
	delay_ms(GLCD_RESET_TIME);
	GLCD_RESET_HIGH();
     dcc:	5f 9a       	sbi	0x0b, 7	; 11
	GLCD_DESELECT();	
     dce:	28 9a       	sbi	0x05, 0	; 5
}
     dd0:	08 95       	ret

00000dd2 <glcd_command>:

#include "../glcd.h"

void glcd_command(uint8_t c)
{
	GLCD_DC_LOW();
     dd2:	29 98       	cbi	0x05, 1	; 5
	glcd_spi_write(c);
     dd4:	0c 94 d9 06 	jmp	0xdb2	; 0xdb2 <glcd_spi_write>

00000dd8 <glcd_data>:
}

void glcd_data(uint8_t c)
{
	GLCD_DC_HIGH();
     dd8:	29 9a       	sbi	0x05, 1	; 5
	glcd_spi_write(c);
     dda:	0c 94 d9 06 	jmp	0xdb2	; 0xdb2 <glcd_spi_write>

00000dde <glcd_set_contrast>:
}

void glcd_set_contrast(uint8_t val) {
     dde:	cf 93       	push	r28
     de0:	c8 2f       	mov	r28, r24
	glcd_command(PCD8544_FUNCTION_SET | PCD8544_EXTENDED_INSTRUCTION);
     de2:	81 e2       	ldi	r24, 0x21	; 33
     de4:	0e 94 e9 06 	call	0xdd2	; 0xdd2 <glcd_command>
	glcd_command(PCD8544_SET_VOP | (val&0x7f));
     de8:	8c 2f       	mov	r24, r28
     dea:	80 68       	ori	r24, 0x80	; 128
     dec:	0e 94 e9 06 	call	0xdd2	; 0xdd2 <glcd_command>
	glcd_command(PCD8544_FUNCTION_SET);
     df0:	80 e2       	ldi	r24, 0x20	; 32
     df2:	0e 94 e9 06 	call	0xdd2	; 0xdd2 <glcd_command>
	glcd_command(PCD8544_DISPLAY_CONTROL | PCD8544_DISPLAY_NORMAL);
     df6:	8c e0       	ldi	r24, 0x0C	; 12
}
     df8:	cf 91       	pop	r28
	glcd_command(PCD8544_DISPLAY_CONTROL | PCD8544_DISPLAY_NORMAL);
     dfa:	0c 94 e9 06 	jmp	0xdd2	; 0xdd2 <glcd_command>

00000dfe <glcd_power_down>:

void glcd_power_down(void)
{
	/* First, fill RAM with zeroes to ensure minimum specified current consumption */
	glcd_clear();
     dfe:	0e 94 6b 06 	call	0xcd6	; 0xcd6 <glcd_clear>

	/* Power down */
	glcd_command(PCD8544_FUNCTION_SET|PCD8544_POWER_DOWN);
     e02:	84 e2       	ldi	r24, 0x24	; 36
     e04:	0c 94 e9 06 	jmp	0xdd2	; 0xdd2 <glcd_command>

00000e08 <glcd_power_up>:
}

void glcd_power_up(void)
{
	glcd_command(PCD8544_FUNCTION_SET);
     e08:	80 e2       	ldi	r24, 0x20	; 32
     e0a:	0c 94 e9 06 	jmp	0xdd2	; 0xdd2 <glcd_command>

00000e0e <glcd_set_y_address>:
}

void glcd_set_y_address(uint8_t y)
{
	glcd_command(PCD8544_SET_Y_ADDRESS|(y > 5 ? 5 : y));
     e0e:	86 30       	cpi	r24, 0x06	; 6
     e10:	08 f0       	brcs	.+2      	; 0xe14 <glcd_set_y_address+0x6>
     e12:	85 e0       	ldi	r24, 0x05	; 5
     e14:	80 64       	ori	r24, 0x40	; 64
     e16:	0c 94 e9 06 	jmp	0xdd2	; 0xdd2 <glcd_command>

00000e1a <glcd_set_x_address>:
}

void glcd_set_x_address(uint8_t x)
{
	glcd_command(PCD8544_SET_X_ADDRESS|(x & 0x7f));
     e1a:	80 68       	ori	r24, 0x80	; 128
     e1c:	0c 94 e9 06 	jmp	0xdd2	; 0xdd2 <glcd_command>

00000e20 <glcd_write>:
}

void glcd_write()
{
     e20:	ef 92       	push	r14
     e22:	ff 92       	push	r15
     e24:	0f 93       	push	r16
     e26:	1f 93       	push	r17
     e28:	cf 93       	push	r28
     e2a:	df 93       	push	r29
     e2c:	f1 2c       	mov	r15, r1
     e2e:	e1 2c       	mov	r14, r1
     e30:	08 e0       	ldi	r16, 0x08	; 8
     e32:	10 e0       	ldi	r17, 0x00	; 0
	uint8_t bank;

	for (bank = 0; bank < PCD8544_MAX_BANKS; bank++) {
     e34:	c0 e0       	ldi	r28, 0x00	; 0
		/* Each bank is a single row 8 bits tall */
		uint8_t column;

		if (glcd_bbox_selected->y_min >= (bank+1)*8) {
     e36:	e0 91 00 07 	lds	r30, 0x0700	; 0x800700 <glcd_bbox_selected>
     e3a:	f0 91 01 07 	lds	r31, 0x0701	; 0x800701 <glcd_bbox_selected+0x1>
     e3e:	81 81       	ldd	r24, Z+1	; 0x01
     e40:	80 17       	cp	r24, r16
     e42:	11 06       	cpc	r1, r17
     e44:	84 f0       	brlt	.+32     	; 0xe66 <glcd_write+0x46>
	for (bank = 0; bank < PCD8544_MAX_BANKS; bank++) {
     e46:	cf 5f       	subi	r28, 0xFF	; 255
     e48:	08 5f       	subi	r16, 0xF8	; 248
     e4a:	1f 4f       	sbci	r17, 0xFF	; 255
     e4c:	84 e5       	ldi	r24, 0x54	; 84
     e4e:	e8 0e       	add	r14, r24
     e50:	f1 1c       	adc	r15, r1
     e52:	c6 30       	cpi	r28, 0x06	; 6
     e54:	81 f7       	brne	.-32     	; 0xe36 <glcd_write+0x16>
		}
	}

	glcd_reset_bbox();

}
     e56:	df 91       	pop	r29
     e58:	cf 91       	pop	r28
     e5a:	1f 91       	pop	r17
     e5c:	0f 91       	pop	r16
     e5e:	ff 90       	pop	r15
     e60:	ef 90       	pop	r14
	glcd_reset_bbox();
     e62:	0c 94 53 06 	jmp	0xca6	; 0xca6 <glcd_reset_bbox>
		if (glcd_bbox_selected->y_max < bank*8) {
     e66:	23 81       	ldd	r18, Z+3	; 0x03
     e68:	c8 01       	movw	r24, r16
     e6a:	08 97       	sbiw	r24, 0x08	; 8
     e6c:	28 17       	cp	r18, r24
     e6e:	19 06       	cpc	r1, r25
     e70:	94 f3       	brlt	.-28     	; 0xe56 <glcd_write+0x36>
		glcd_command(PCD8544_SET_Y_ADDRESS | bank);
     e72:	8c 2f       	mov	r24, r28
     e74:	80 64       	ori	r24, 0x40	; 64
     e76:	0e 94 e9 06 	call	0xdd2	; 0xdd2 <glcd_command>
		glcd_command(PCD8544_SET_X_ADDRESS | glcd_bbox_selected->x_min);
     e7a:	e0 91 00 07 	lds	r30, 0x0700	; 0x800700 <glcd_bbox_selected>
     e7e:	f0 91 01 07 	lds	r31, 0x0701	; 0x800701 <glcd_bbox_selected+0x1>
     e82:	80 81       	ld	r24, Z
     e84:	80 68       	ori	r24, 0x80	; 128
     e86:	0e 94 e9 06 	call	0xdd2	; 0xdd2 <glcd_command>
		for (column = glcd_bbox_selected->x_min; column <= glcd_bbox_selected->x_max; column++)
     e8a:	e0 91 00 07 	lds	r30, 0x0700	; 0x800700 <glcd_bbox_selected>
     e8e:	f0 91 01 07 	lds	r31, 0x0701	; 0x800701 <glcd_bbox_selected+0x1>
     e92:	d0 81       	ld	r29, Z
     e94:	e0 91 00 07 	lds	r30, 0x0700	; 0x800700 <glcd_bbox_selected>
     e98:	f0 91 01 07 	lds	r31, 0x0701	; 0x800701 <glcd_bbox_selected+0x1>
     e9c:	82 81       	ldd	r24, Z+2	; 0x02
     e9e:	8d 17       	cp	r24, r29
     ea0:	90 f2       	brcs	.-92     	; 0xe46 <glcd_write+0x26>
			glcd_data( glcd_buffer_selected[PCD8544_MAX_COLS * bank + column] );
     ea2:	e0 91 fe 06 	lds	r30, 0x06FE	; 0x8006fe <glcd_buffer_selected>
     ea6:	f0 91 ff 06 	lds	r31, 0x06FF	; 0x8006ff <glcd_buffer_selected+0x1>
     eaa:	ee 0d       	add	r30, r14
     eac:	ff 1d       	adc	r31, r15
     eae:	ed 0f       	add	r30, r29
     eb0:	f1 1d       	adc	r31, r1
     eb2:	80 81       	ld	r24, Z
     eb4:	0e 94 ec 06 	call	0xdd8	; 0xdd8 <glcd_data>
		for (column = glcd_bbox_selected->x_min; column <= glcd_bbox_selected->x_max; column++)
     eb8:	df 5f       	subi	r29, 0xFF	; 255
     eba:	ec cf       	rjmp	.-40     	; 0xe94 <glcd_write+0x74>

00000ebc <glcd_PCD8544_init>:

void glcd_PCD8544_init(void) {

	glcd_reset();
     ebc:	0e 94 e0 06 	call	0xdc0	; 0xdc0 <glcd_reset>
	
	/* Get into the EXTENDED mode! */
	glcd_command(PCD8544_FUNCTION_SET | PCD8544_EXTENDED_INSTRUCTION);
     ec0:	81 e2       	ldi	r24, 0x21	; 33
     ec2:	0e 94 e9 06 	call	0xdd2	; 0xdd2 <glcd_command>

	/* LCD bias select (4 is optimal?) */
	glcd_command(PCD8544_SET_BIAS | 0x2);
     ec6:	82 e1       	ldi	r24, 0x12	; 18
     ec8:	0e 94 e9 06 	call	0xdd2	; 0xdd2 <glcd_command>

	/* Set VOP (affects contrast) */
	glcd_command(PCD8544_SET_VOP | 60); /* Experimentally determined, play with this figure until contrast looks nice */
     ecc:	8c eb       	ldi	r24, 0xBC	; 188
     ece:	0e 94 e9 06 	call	0xdd2	; 0xdd2 <glcd_command>

	/* Back to standard instructions */
	glcd_command(PCD8544_FUNCTION_SET);
     ed2:	80 e2       	ldi	r24, 0x20	; 32
     ed4:	0e 94 e9 06 	call	0xdd2	; 0xdd2 <glcd_command>

	/* Normal mode */
	glcd_command(PCD8544_DISPLAY_CONTROL | PCD8544_DISPLAY_NORMAL);
     ed8:	8c e0       	ldi	r24, 0x0C	; 12
     eda:	0c 94 e9 06 	jmp	0xdd2	; 0xdd2 <glcd_command>

00000ede <glcd_bar_graph_horizontal>:
#include "glcd.h"

static uint8_t glcd_map(uint8_t x1, uint8_t x2, uint8_t x);

void glcd_bar_graph_horizontal(uint8_t x, uint8_t y, uint8_t width, uint8_t height, uint8_t val)
{
     ede:	ef 92       	push	r14
     ee0:	ff 92       	push	r15
     ee2:	0f 93       	push	r16
     ee4:	1f 93       	push	r17
     ee6:	cf 93       	push	r28
     ee8:	df 93       	push	r29
     eea:	f8 2e       	mov	r15, r24
     eec:	16 2f       	mov	r17, r22
     eee:	c4 2f       	mov	r28, r20
     ef0:	d2 2f       	mov	r29, r18
     ef2:	e0 2e       	mov	r14, r16
	if (height < 3) {
     ef4:	23 30       	cpi	r18, 0x03	; 3
     ef6:	a0 f0       	brcs	.+40     	; 0xf20 <glcd_bar_graph_horizontal+0x42>
		return;
	}
	glcd_draw_rect(x, y, width, height, BLACK);
     ef8:	01 e0       	ldi	r16, 0x01	; 1
     efa:	0e 94 07 0c 	call	0x180e	; 0x180e <glcd_draw_rect>
	glcd_fill_rect(x+1, y+1, glcd_map(0,width-2,val), height-2 , BLACK);
     efe:	2e ef       	ldi	r18, 0xFE	; 254
     f00:	2d 0f       	add	r18, r29
     f02:	c2 50       	subi	r28, 0x02	; 2
	}
}

static uint8_t glcd_map(uint8_t x1, uint8_t x2, uint8_t x)
{
	return x1+(x2-x1)*x/255;	
     f04:	ce 9d       	mul	r28, r14
     f06:	c0 01       	movw	r24, r0
     f08:	11 24       	eor	r1, r1
     f0a:	6f ef       	ldi	r22, 0xFF	; 255
     f0c:	70 e0       	ldi	r23, 0x00	; 0
     f0e:	0e 94 48 2f 	call	0x5e90	; 0x5e90 <__divmodhi4>
     f12:	46 2f       	mov	r20, r22
	glcd_fill_rect(x+1, y+1, glcd_map(0,width-2,val), height-2 , BLACK);
     f14:	61 e0       	ldi	r22, 0x01	; 1
     f16:	61 0f       	add	r22, r17
     f18:	81 e0       	ldi	r24, 0x01	; 1
     f1a:	8f 0d       	add	r24, r15
     f1c:	0e 94 bd 0b 	call	0x177a	; 0x177a <glcd_fill_rect>
}
     f20:	df 91       	pop	r29
     f22:	cf 91       	pop	r28
     f24:	1f 91       	pop	r17
     f26:	0f 91       	pop	r16
     f28:	ff 90       	pop	r15
     f2a:	ef 90       	pop	r14
     f2c:	08 95       	ret

00000f2e <glcd_bar_graph_horizontal_no_border>:
{
     f2e:	0f 93       	push	r16
     f30:	38 2f       	mov	r19, r24
     f32:	e6 2f       	mov	r30, r22
	if (height < 3) {
     f34:	23 30       	cpi	r18, 0x03	; 3
     f36:	68 f0       	brcs	.+26     	; 0xf52 <glcd_bar_graph_horizontal_no_border+0x24>
	return x1+(x2-x1)*x/255;	
     f38:	40 9f       	mul	r20, r16
     f3a:	c0 01       	movw	r24, r0
     f3c:	11 24       	eor	r1, r1
     f3e:	6f ef       	ldi	r22, 0xFF	; 255
     f40:	70 e0       	ldi	r23, 0x00	; 0
     f42:	0e 94 48 2f 	call	0x5e90	; 0x5e90 <__divmodhi4>
     f46:	46 2f       	mov	r20, r22
	glcd_fill_rect(x, y, glcd_map(0,width,val), height , BLACK);
     f48:	01 e0       	ldi	r16, 0x01	; 1
     f4a:	6e 2f       	mov	r22, r30
     f4c:	83 2f       	mov	r24, r19
     f4e:	0e 94 bd 0b 	call	0x177a	; 0x177a <glcd_fill_rect>
}
     f52:	0f 91       	pop	r16
     f54:	08 95       	ret

00000f56 <glcd_bar_graph_vertical>:
{
     f56:	ef 92       	push	r14
     f58:	ff 92       	push	r15
     f5a:	0f 93       	push	r16
     f5c:	1f 93       	push	r17
     f5e:	cf 93       	push	r28
     f60:	df 93       	push	r29
     f62:	e8 2e       	mov	r14, r24
     f64:	d6 2f       	mov	r29, r22
     f66:	f4 2e       	mov	r15, r20
     f68:	c2 2f       	mov	r28, r18
     f6a:	10 2f       	mov	r17, r16
	glcd_draw_rect(x, y, width, height, BLACK);
     f6c:	01 e0       	ldi	r16, 0x01	; 1
     f6e:	0e 94 07 0c 	call	0x180e	; 0x180e <glcd_draw_rect>
	glcd_fill_rect(x+1, y+1+glcd_map(0,height-2,255-val), width-2, height-2-glcd_map(0,height-2,255-val), BLACK);
     f72:	c2 50       	subi	r28, 0x02	; 2
     f74:	10 95       	com	r17
	return x1+(x2-x1)*x/255;	
     f76:	1c 9f       	mul	r17, r28
     f78:	c0 01       	movw	r24, r0
     f7a:	11 24       	eor	r1, r1
     f7c:	6f ef       	ldi	r22, 0xFF	; 255
     f7e:	70 e0       	ldi	r23, 0x00	; 0
     f80:	0e 94 48 2f 	call	0x5e90	; 0x5e90 <__divmodhi4>
	glcd_fill_rect(x+1, y+1+glcd_map(0,height-2,255-val), width-2, height-2-glcd_map(0,height-2,255-val), BLACK);
     f84:	2c 2f       	mov	r18, r28
     f86:	26 1b       	sub	r18, r22
     f88:	4e ef       	ldi	r20, 0xFE	; 254
     f8a:	4f 0d       	add	r20, r15
     f8c:	df 5f       	subi	r29, 0xFF	; 255
     f8e:	6d 0f       	add	r22, r29
     f90:	81 e0       	ldi	r24, 0x01	; 1
     f92:	8e 0d       	add	r24, r14
     f94:	0e 94 bd 0b 	call	0x177a	; 0x177a <glcd_fill_rect>
}
     f98:	df 91       	pop	r29
     f9a:	cf 91       	pop	r28
     f9c:	1f 91       	pop	r17
     f9e:	0f 91       	pop	r16
     fa0:	ff 90       	pop	r15
     fa2:	ef 90       	pop	r14
     fa4:	08 95       	ret

00000fa6 <glcd_bar_graph_vertical_no_border>:
{
     fa6:	0f 93       	push	r16
     fa8:	e8 2f       	mov	r30, r24
     faa:	36 2f       	mov	r19, r22
	glcd_fill_rect(x, y+glcd_map(0,height-2,255-val), width, height-2-glcd_map(0,height-2,255-val), BLACK);
     fac:	22 50       	subi	r18, 0x02	; 2
     fae:	00 95       	com	r16
	return x1+(x2-x1)*x/255;	
     fb0:	02 9f       	mul	r16, r18
     fb2:	c0 01       	movw	r24, r0
     fb4:	11 24       	eor	r1, r1
     fb6:	6f ef       	ldi	r22, 0xFF	; 255
     fb8:	70 e0       	ldi	r23, 0x00	; 0
     fba:	0e 94 48 2f 	call	0x5e90	; 0x5e90 <__divmodhi4>
	glcd_fill_rect(x, y+glcd_map(0,height-2,255-val), width, height-2-glcd_map(0,height-2,255-val), BLACK);
     fbe:	26 1b       	sub	r18, r22
     fc0:	63 0f       	add	r22, r19
     fc2:	01 e0       	ldi	r16, 0x01	; 1
     fc4:	8e 2f       	mov	r24, r30
     fc6:	0e 94 bd 0b 	call	0x177a	; 0x177a <glcd_fill_rect>
}
     fca:	0f 91       	pop	r16
     fcc:	08 95       	ret

00000fce <glcd_scrolling_bar_graph>:
{
     fce:	4f 92       	push	r4
     fd0:	5f 92       	push	r5
     fd2:	6f 92       	push	r6
     fd4:	7f 92       	push	r7
     fd6:	8f 92       	push	r8
     fd8:	9f 92       	push	r9
     fda:	af 92       	push	r10
     fdc:	bf 92       	push	r11
     fde:	cf 92       	push	r12
     fe0:	df 92       	push	r13
     fe2:	ef 92       	push	r14
     fe4:	ff 92       	push	r15
     fe6:	0f 93       	push	r16
     fe8:	1f 93       	push	r17
     fea:	cf 93       	push	r28
     fec:	df 93       	push	r29
     fee:	98 2e       	mov	r9, r24
     ff0:	d6 2f       	mov	r29, r22
     ff2:	c4 2f       	mov	r28, r20
     ff4:	72 2e       	mov	r7, r18
     ff6:	60 2e       	mov	r6, r16
	glcd_draw_rect(x,y,width,height,BLACK);
     ff8:	01 e0       	ldi	r16, 0x01	; 1
     ffa:	0e 94 07 0c 	call	0x180e	; 0x180e <glcd_draw_rect>
	for (ny = 1; ny <= (height-2); ny++) {
     ffe:	ee 24       	eor	r14, r14
    1000:	e3 94       	inc	r14
    1002:	ed 0e       	add	r14, r29
    1004:	fe 2c       	mov	r15, r14
    1006:	07 2d       	mov	r16, r7
    1008:	10 e0       	ldi	r17, 0x00	; 0
    100a:	68 01       	movw	r12, r16
    100c:	81 e0       	ldi	r24, 0x01	; 1
    100e:	c8 1a       	sub	r12, r24
    1010:	d1 08       	sbc	r13, r1
		for (nx = 1; nx <= (width-2); nx += 1) {
    1012:	8c 2f       	mov	r24, r28
    1014:	81 50       	subi	r24, 0x01	; 1
    1016:	99 0b       	sbc	r25, r25
    1018:	5c 01       	movw	r10, r24
			color = glcd_get_pixel(x+nx+1,y+ny);
    101a:	55 24       	eor	r5, r5
    101c:	53 94       	inc	r5
    101e:	59 0c       	add	r5, r9
	for (ny = 1; ny <= (height-2); ny++) {
    1020:	8f 2d       	mov	r24, r15
    1022:	8d 1b       	sub	r24, r29
    1024:	8c 15       	cp	r24, r12
    1026:	1d 04       	cpc	r1, r13
    1028:	0c f4       	brge	.+2      	; 0x102c <glcd_scrolling_bar_graph+0x5e>
    102a:	4d c0       	rjmp	.+154    	; 0x10c6 <glcd_scrolling_bar_graph+0xf8>
	val = val * (height-3) / 255;
    102c:	98 01       	movw	r18, r16
    102e:	23 50       	subi	r18, 0x03	; 3
    1030:	31 09       	sbc	r19, r1
    1032:	62 9e       	mul	r6, r18
    1034:	c0 01       	movw	r24, r0
    1036:	63 9e       	mul	r6, r19
    1038:	90 0d       	add	r25, r0
    103a:	11 24       	eor	r1, r1
    103c:	6f ef       	ldi	r22, 0xFF	; 255
    103e:	70 e0       	ldi	r23, 0x00	; 0
    1040:	0e 94 48 2f 	call	0x5e90	; 0x5e90 <__divmodhi4>
	if (val > (height-3)) {
    1044:	02 50       	subi	r16, 0x02	; 2
    1046:	11 09       	sbc	r17, r1
    1048:	60 17       	cp	r22, r16
    104a:	11 06       	cpc	r1, r17
    104c:	14 f0       	brlt	.+4      	; 0x1052 <glcd_scrolling_bar_graph+0x84>
		val = height - 3;
    104e:	6d ef       	ldi	r22, 0xFD	; 253
    1050:	67 0d       	add	r22, r7
	glcd_draw_line(x+width-2,y+height-2,x+width-2,y+height-2-val,BLACK);
    1052:	d7 0d       	add	r29, r7
    1054:	1d 2f       	mov	r17, r29
    1056:	16 1b       	sub	r17, r22
    1058:	c2 50       	subi	r28, 0x02	; 2
    105a:	c9 0d       	add	r28, r9
    105c:	2e ef       	ldi	r18, 0xFE	; 254
    105e:	21 0f       	add	r18, r17
    1060:	6e ef       	ldi	r22, 0xFE	; 254
    1062:	6d 0f       	add	r22, r29
    1064:	01 e0       	ldi	r16, 0x01	; 1
    1066:	4c 2f       	mov	r20, r28
    1068:	8c 2f       	mov	r24, r28
    106a:	0e 94 50 0b 	call	0x16a0	; 0x16a0 <glcd_draw_line>
	glcd_draw_line(x+width-2,y+height-3-val,x+width-2,y+1,WHITE);
    106e:	6d ef       	ldi	r22, 0xFD	; 253
    1070:	61 0f       	add	r22, r17
    1072:	00 e0       	ldi	r16, 0x00	; 0
    1074:	2e 2d       	mov	r18, r14
    1076:	4c 2f       	mov	r20, r28
    1078:	8c 2f       	mov	r24, r28
    107a:	0e 94 50 0b 	call	0x16a0	; 0x16a0 <glcd_draw_line>
}
    107e:	df 91       	pop	r29
    1080:	cf 91       	pop	r28
    1082:	1f 91       	pop	r17
    1084:	0f 91       	pop	r16
    1086:	ff 90       	pop	r15
    1088:	ef 90       	pop	r14
    108a:	df 90       	pop	r13
    108c:	cf 90       	pop	r12
    108e:	bf 90       	pop	r11
    1090:	af 90       	pop	r10
    1092:	9f 90       	pop	r9
    1094:	8f 90       	pop	r8
    1096:	7f 90       	pop	r7
    1098:	6f 90       	pop	r6
    109a:	5f 90       	pop	r5
    109c:	4f 90       	pop	r4
	glcd_write();
    109e:	0c 94 10 07 	jmp	0xe20	; 0xe20 <glcd_write>
			color = glcd_get_pixel(x+nx+1,y+ny);
    10a2:	48 2c       	mov	r4, r8
    10a4:	49 0c       	add	r4, r9
    10a6:	6f 2d       	mov	r22, r15
    10a8:	85 2d       	mov	r24, r5
    10aa:	88 0d       	add	r24, r8
    10ac:	0e 94 0d 0b 	call	0x161a	; 0x161a <glcd_get_pixel>
			glcd_set_pixel(x+nx,y+ny,color);
    10b0:	48 2f       	mov	r20, r24
    10b2:	6f 2d       	mov	r22, r15
    10b4:	84 2d       	mov	r24, r4
    10b6:	0e 94 e7 0a 	call	0x15ce	; 0x15ce <glcd_set_pixel>
		for (nx = 1; nx <= (width-2); nx += 1) {
    10ba:	83 94       	inc	r8
    10bc:	8a 14       	cp	r8, r10
    10be:	1b 04       	cpc	r1, r11
    10c0:	84 f3       	brlt	.-32     	; 0x10a2 <glcd_scrolling_bar_graph+0xd4>
    10c2:	f3 94       	inc	r15
    10c4:	ad cf       	rjmp	.-166    	; 0x1020 <glcd_scrolling_bar_graph+0x52>
    10c6:	88 24       	eor	r8, r8
    10c8:	83 94       	inc	r8
    10ca:	f8 cf       	rjmp	.-16     	; 0x10bc <glcd_scrolling_bar_graph+0xee>

000010cc <glcd_scrolling_bar_graph_timing>:
{
    10cc:	8f 92       	push	r8
    10ce:	9f 92       	push	r9
    10d0:	af 92       	push	r10
    10d2:	bf 92       	push	r11
    10d4:	cf 92       	push	r12
    10d6:	df 92       	push	r13
    10d8:	ef 92       	push	r14
    10da:	ff 92       	push	r15
    10dc:	0f 93       	push	r16
    10de:	cf 93       	push	r28
    10e0:	b8 2e       	mov	r11, r24
    10e2:	a6 2e       	mov	r10, r22
    10e4:	94 2e       	mov	r9, r20
    10e6:	82 2e       	mov	r8, r18
    10e8:	c0 2f       	mov	r28, r16
	if (line_width == 0) {
    10ea:	e1 10       	cpse	r14, r1
    10ec:	02 c0       	rjmp	.+4      	; 0x10f2 <glcd_scrolling_bar_graph_timing+0x26>
		line_width = 1;
    10ee:	ee 24       	eor	r14, r14
    10f0:	e3 94       	inc	r14
	for (n=0; n<line_width; n++) {
    10f2:	f1 2c       	mov	r15, r1
		glcd_scrolling_bar_graph(x,y,width,height,val);
    10f4:	0c 2f       	mov	r16, r28
    10f6:	28 2d       	mov	r18, r8
    10f8:	49 2d       	mov	r20, r9
    10fa:	6a 2d       	mov	r22, r10
    10fc:	8b 2d       	mov	r24, r11
    10fe:	0e 94 e7 07 	call	0xfce	; 0xfce <glcd_scrolling_bar_graph>
	for (n=0; n<line_width; n++) {
    1102:	f3 94       	inc	r15
    1104:	ef 10       	cpse	r14, r15
    1106:	f6 cf       	rjmp	.-20     	; 0x10f4 <glcd_scrolling_bar_graph_timing+0x28>
	if (delay) {
    1108:	c1 14       	cp	r12, r1
    110a:	d1 04       	cpc	r13, r1
    110c:	81 f1       	breq	.+96     	; 0x116e <glcd_scrolling_bar_graph_timing+0xa2>
		delay_ms(delay);
    110e:	b6 01       	movw	r22, r12
    1110:	90 e0       	ldi	r25, 0x00	; 0
    1112:	80 e0       	ldi	r24, 0x00	; 0
    1114:	0e 94 00 2e 	call	0x5c00	; 0x5c00 <__floatunsisf>
    1118:	4b 01       	movw	r8, r22
    111a:	5c 01       	movw	r10, r24

	__builtin_avr_delay_cycles(__ticks_dc);

#else
	uint16_t __ticks;
	__tmp = ((F_CPU) / 4e3) * __ms;
    111c:	20 e0       	ldi	r18, 0x00	; 0
    111e:	30 e0       	ldi	r19, 0x00	; 0
    1120:	4a ef       	ldi	r20, 0xFA	; 250
    1122:	54 e4       	ldi	r21, 0x44	; 68
    1124:	0e 94 8f 2e 	call	0x5d1e	; 0x5d1e <__mulsf3>
    1128:	6b 01       	movw	r12, r22
    112a:	7c 01       	movw	r14, r24
	if (__tmp < 1.0)
    112c:	20 e0       	ldi	r18, 0x00	; 0
    112e:	30 e0       	ldi	r19, 0x00	; 0
    1130:	40 e8       	ldi	r20, 0x80	; 128
    1132:	5f e3       	ldi	r21, 0x3F	; 63
    1134:	0e 94 cc 2d 	call	0x5b98	; 0x5b98 <__cmpsf2>
    1138:	87 fd       	sbrc	r24, 7
    113a:	32 c0       	rjmp	.+100    	; 0x11a0 <glcd_scrolling_bar_graph_timing+0xd4>
		__ticks = 1;
	else if (__tmp > 65535)
    113c:	20 e0       	ldi	r18, 0x00	; 0
    113e:	3f ef       	ldi	r19, 0xFF	; 255
    1140:	4f e7       	ldi	r20, 0x7F	; 127
    1142:	57 e4       	ldi	r21, 0x47	; 71
    1144:	c7 01       	movw	r24, r14
    1146:	b6 01       	movw	r22, r12
    1148:	0e 94 8a 2e 	call	0x5d14	; 0x5d14 <__gesf2>
    114c:	18 16       	cp	r1, r24
    114e:	04 f5       	brge	.+64     	; 0x1190 <glcd_scrolling_bar_graph_timing+0xc4>
	{
		//	__ticks = requested delay in 1/10 ms
		__ticks = (uint16_t) (__ms * 10.0);
    1150:	20 e0       	ldi	r18, 0x00	; 0
    1152:	30 e0       	ldi	r19, 0x00	; 0
    1154:	40 e2       	ldi	r20, 0x20	; 32
    1156:	51 e4       	ldi	r21, 0x41	; 65
    1158:	c5 01       	movw	r24, r10
    115a:	b4 01       	movw	r22, r8
    115c:	0e 94 8f 2e 	call	0x5d1e	; 0x5d1e <__mulsf3>
    1160:	0e 94 d1 2d 	call	0x5ba2	; 0x5ba2 <__fixunssfsi>
    1164:	28 ec       	ldi	r18, 0xC8	; 200
    1166:	30 e0       	ldi	r19, 0x00	; 0
		while(__ticks)
    1168:	61 15       	cp	r22, r1
    116a:	71 05       	cpc	r23, r1
    116c:	59 f4       	brne	.+22     	; 0x1184 <glcd_scrolling_bar_graph_timing+0xb8>
}
    116e:	cf 91       	pop	r28
    1170:	0f 91       	pop	r16
    1172:	ff 90       	pop	r15
    1174:	ef 90       	pop	r14
    1176:	df 90       	pop	r13
    1178:	cf 90       	pop	r12
    117a:	bf 90       	pop	r11
    117c:	af 90       	pop	r10
    117e:	9f 90       	pop	r9
    1180:	8f 90       	pop	r8
    1182:	08 95       	ret
    1184:	c9 01       	movw	r24, r18
    1186:	01 97       	sbiw	r24, 0x01	; 1
    1188:	f1 f7       	brne	.-4      	; 0x1186 <glcd_scrolling_bar_graph_timing+0xba>
		{
			// wait 1/10 ms
			_delay_loop_2(((F_CPU) / 4e3) / 10);
			__ticks --;
    118a:	61 50       	subi	r22, 0x01	; 1
    118c:	71 09       	sbc	r23, r1
    118e:	ec cf       	rjmp	.-40     	; 0x1168 <glcd_scrolling_bar_graph_timing+0x9c>
		}
		return;
	}
	else
		__ticks = (uint16_t)__tmp;
    1190:	c7 01       	movw	r24, r14
    1192:	b6 01       	movw	r22, r12
    1194:	0e 94 d1 2d 	call	0x5ba2	; 0x5ba2 <__fixunssfsi>
    1198:	cb 01       	movw	r24, r22
    119a:	01 97       	sbiw	r24, 0x01	; 1
    119c:	f1 f7       	brne	.-4      	; 0x119a <glcd_scrolling_bar_graph_timing+0xce>
    119e:	e7 cf       	rjmp	.-50     	; 0x116e <glcd_scrolling_bar_graph_timing+0xa2>
		__ticks = 1;
    11a0:	61 e0       	ldi	r22, 0x01	; 1
    11a2:	70 e0       	ldi	r23, 0x00	; 0
    11a4:	f9 cf       	rjmp	.-14     	; 0x1198 <glcd_scrolling_bar_graph_timing+0xcc>

000011a6 <glcd_set_font>:
#if defined(GLCD_DEVICE_AVR8)
void glcd_set_font(PGM_P font_table, uint8_t width, uint8_t height, char start_char, char end_char)
#else
void glcd_set_font(const char * font_table, uint8_t width, uint8_t height, char start_char, char end_char)
#endif
{
    11a6:	0f 93       	push	r16
	/* Supports variable width fonts */
	font_current.font_table = font_table;
    11a8:	e2 e0       	ldi	r30, 0x02	; 2
    11aa:	f7 e0       	ldi	r31, 0x07	; 7
    11ac:	91 83       	std	Z+1, r25	; 0x01
    11ae:	80 83       	st	Z, r24
	font_current.width = width;
    11b0:	62 83       	std	Z+2, r22	; 0x02
	font_current.height = height;
    11b2:	43 83       	std	Z+3, r20	; 0x03
	font_current.start_char = start_char;
    11b4:	24 83       	std	Z+4, r18	; 0x04
	font_current.end_char = end_char;
    11b6:	05 83       	std	Z+5, r16	; 0x05
	font_current.table_type = MIKRO; /* Only supports MikroElektronika generated format at the moment */
    11b8:	81 e0       	ldi	r24, 0x01	; 1
    11ba:	86 83       	std	Z+6, r24	; 0x06
}
    11bc:	0f 91       	pop	r16
    11be:	08 95       	ret

000011c0 <glcd_font>:
#if defined(GLCD_DEVICE_AVR8)
void glcd_font(PGM_P font_table, uint8_t width, uint8_t height, char start_char, char end_char, font_table_type_t type)
#else
void glcd_font(const char * font_table, uint8_t width, uint8_t height, char start_char, char end_char, font_table_type_t type)
#endif
{
    11c0:	ef 92       	push	r14
    11c2:	0f 93       	push	r16
	/* Supports variable width fonts */
	font_current.font_table = font_table;
    11c4:	e2 e0       	ldi	r30, 0x02	; 2
    11c6:	f7 e0       	ldi	r31, 0x07	; 7
    11c8:	91 83       	std	Z+1, r25	; 0x01
    11ca:	80 83       	st	Z, r24
	font_current.width = width;
    11cc:	62 83       	std	Z+2, r22	; 0x02
	font_current.height = height;
    11ce:	43 83       	std	Z+3, r20	; 0x03
	font_current.start_char = start_char;
    11d0:	24 83       	std	Z+4, r18	; 0x04
	font_current.end_char = end_char;
    11d2:	05 83       	std	Z+5, r16	; 0x05
	font_current.table_type = type; /* Only supports MikroElektronika generated format at the moment */
    11d4:	e6 82       	std	Z+6, r14	; 0x06
}
    11d6:	0f 91       	pop	r16
    11d8:	ef 90       	pop	r14
    11da:	08 95       	ret

000011dc <glcd_draw_char_xy>:

uint8_t glcd_draw_char_xy(uint8_t x, uint8_t y, char c)
{
    11dc:	2f 92       	push	r2
    11de:	3f 92       	push	r3
    11e0:	4f 92       	push	r4
    11e2:	5f 92       	push	r5
    11e4:	6f 92       	push	r6
    11e6:	7f 92       	push	r7
    11e8:	8f 92       	push	r8
    11ea:	9f 92       	push	r9
    11ec:	af 92       	push	r10
    11ee:	bf 92       	push	r11
    11f0:	cf 92       	push	r12
    11f2:	df 92       	push	r13
    11f4:	ef 92       	push	r14
    11f6:	ff 92       	push	r15
    11f8:	0f 93       	push	r16
    11fa:	1f 93       	push	r17
    11fc:	cf 93       	push	r28
    11fe:	df 93       	push	r29
    1200:	cd b7       	in	r28, 0x3d	; 61
    1202:	de b7       	in	r29, 0x3e	; 62
    1204:	29 97       	sbiw	r28, 0x09	; 9
    1206:	0f b6       	in	r0, 0x3f	; 63
    1208:	f8 94       	cli
    120a:	de bf       	out	0x3e, r29	; 62
    120c:	0f be       	out	0x3f, r0	; 63
    120e:	cd bf       	out	0x3d, r28	; 61
    1210:	48 2e       	mov	r4, r24
    1212:	68 87       	std	Y+8, r22	; 0x08
	if (c < font_current.start_char || c > font_current.end_char) {
    1214:	20 91 06 07 	lds	r18, 0x0706	; 0x800706 <font_current+0x4>
    1218:	42 17       	cp	r20, r18
    121a:	20 f0       	brcs	.+8      	; 0x1224 <glcd_draw_char_xy+0x48>
    121c:	80 91 07 07 	lds	r24, 0x0707	; 0x800707 <font_current+0x5>
    1220:	84 17       	cp	r24, r20
    1222:	08 f4       	brcc	.+2      	; 0x1226 <glcd_draw_char_xy+0x4a>
		c = '.';
    1224:	4e e2       	ldi	r20, 0x2E	; 46
	}
	
	if (font_current.table_type == STANG) {
    1226:	30 91 08 07 	lds	r19, 0x0708	; 0x800708 <font_current+0x6>
    122a:	39 83       	std	Y+1, r19	; 0x01
    122c:	33 23       	and	r19, r19
    122e:	09 f4       	brne	.+2      	; 0x1232 <glcd_draw_char_xy+0x56>
    1230:	9f c0       	rjmp	.+318    	; 0x1370 <glcd_draw_char_xy+0x194>
		
		/* always return how many pixels of width were written */
		/* here for "stang" format fonts, it is always fixed */
		return font_current.width;
		
	} else if (font_current.table_type == MIKRO) {
    1232:	59 81       	ldd	r21, Y+1	; 0x01
    1234:	51 30       	cpi	r21, 0x01	; 1
    1236:	09 f0       	breq	.+2      	; 0x123a <glcd_draw_char_xy+0x5e>
    1238:	f0 c0       	rjmp	.+480    	; 0x141a <glcd_draw_char_xy+0x23e>
		
		uint8_t i;
		uint8_t var_width;
		uint8_t bytes_high;
		
		if ((font_current.height % 8) > 0){
    123a:	80 91 05 07 	lds	r24, 0x0705	; 0x800705 <font_current+0x3>
    123e:	98 2f       	mov	r25, r24
    1240:	96 95       	lsr	r25
    1242:	96 95       	lsr	r25
    1244:	96 95       	lsr	r25
    1246:	99 87       	std	Y+9, r25	; 0x09
    1248:	87 70       	andi	r24, 0x07	; 7
    124a:	11 f0       	breq	.+4      	; 0x1250 <glcd_draw_char_xy+0x74>
			bytes_high = (font_current.height / 8) + 1;
    124c:	9f 5f       	subi	r25, 0xFF	; 255
    124e:	99 87       	std	Y+9, r25	; 0x09
		}
		else{
			bytes_high = (font_current.height / 8);
		}
		uint8_t bytes_per_char = font_current.width * bytes_high + 1; /* The +1 is the width byte at the start */
    1250:	80 91 04 07 	lds	r24, 0x0704	; 0x800704 <font_current+0x2>
    1254:	e9 85       	ldd	r30, Y+9	; 0x09
    1256:	e8 9f       	mul	r30, r24
    1258:	80 2d       	mov	r24, r0
    125a:	11 24       	eor	r1, r1
    125c:	8f 5f       	subi	r24, 0xFF	; 255
		
		const char *p;
		p = font_current.font_table + (c - font_current.start_char) * bytes_per_char;
    125e:	42 1b       	sub	r20, r18
    1260:	55 0b       	sbc	r21, r21
    1262:	84 9f       	mul	r24, r20
    1264:	80 01       	movw	r16, r0
    1266:	85 9f       	mul	r24, r21
    1268:	10 0d       	add	r17, r0
    126a:	11 24       	eor	r1, r1
    126c:	e0 91 02 07 	lds	r30, 0x0702	; 0x800702 <font_current>
    1270:	f0 91 03 07 	lds	r31, 0x0703	; 0x800703 <font_current+0x1>
    1274:	e0 0f       	add	r30, r16
    1276:	f1 1f       	adc	r31, r17

		/* The first byte per character is always the width of the character */
#if defined(GLCD_DEVICE_AVR8)		
		var_width = pgm_read_byte(p);
    1278:	54 90       	lpm	r5, Z
		if (x+var_width >= GLCD_LCD_WIDTH || y+font_current.height >= GLCD_LCD_HEIGHT) {
			return;
		}
		*/
		
		for ( i = 0; i < var_width; i++ ) {
    127a:	39 85       	ldd	r19, Y+9	; 0x09
    127c:	23 2f       	mov	r18, r19
    127e:	30 e0       	ldi	r19, 0x00	; 0
    1280:	3c 83       	std	Y+4, r19	; 0x04
    1282:	2b 83       	std	Y+3, r18	; 0x03
    1284:	8f 01       	movw	r16, r30
    1286:	0f 5f       	subi	r16, 0xFF	; 255
    1288:	1f 4f       	sbci	r17, 0xFF	; 255
    128a:	c4 2c       	mov	r12, r4
    128c:	d1 2c       	mov	r13, r1
				uint8_t dat = *( p + i*bytes_high + j );
#endif
				uint8_t bit;
				for (bit = 0; bit < 8; bit++) {
					
					if (x+i >= GLCD_LCD_WIDTH || y+j*8+bit >= GLCD_LCD_HEIGHT) {
    128e:	58 85       	ldd	r21, Y+8	; 0x08
    1290:	45 2f       	mov	r20, r21
    1292:	50 e0       	ldi	r21, 0x00	; 0
    1294:	5f 83       	std	Y+7, r21	; 0x07
    1296:	4e 83       	std	Y+6, r20	; 0x06
    1298:	ca 82       	std	Y+2, r12	; 0x02
		for ( i = 0; i < var_width; i++ ) {
    129a:	8c 2d       	mov	r24, r12
    129c:	84 19       	sub	r24, r4
    129e:	85 15       	cp	r24, r5
    12a0:	08 f0       	brcs	.+2      	; 0x12a4 <glcd_draw_char_xy+0xc8>
    12a2:	4c c0       	rjmp	.+152    	; 0x133c <glcd_draw_char_xy+0x160>
    12a4:	58 01       	movw	r10, r16
    12a6:	91 2c       	mov	r9, r1
    12a8:	81 2c       	mov	r8, r1
			for ( j = 0; j < bytes_high; j++ ) {
    12aa:	19 82       	std	Y+1, r1	; 0x01
    12ac:	aa c0       	rjmp	.+340    	; 0x1402 <glcd_draw_char_xy+0x226>
			uint8_t dat = pgm_read_byte( font_current.font_table + ((c - font_current.start_char) * (font_current.width)) + i );
    12ae:	80 91 06 07 	lds	r24, 0x0706	; 0x800706 <font_current+0x4>
    12b2:	a3 01       	movw	r20, r6
    12b4:	48 1b       	sub	r20, r24
    12b6:	51 09       	sbc	r21, r1
    12b8:	54 9e       	mul	r5, r20
    12ba:	80 01       	movw	r16, r0
    12bc:	55 9e       	mul	r5, r21
    12be:	10 0d       	add	r17, r0
    12c0:	11 24       	eor	r1, r1
    12c2:	59 81       	ldd	r21, Y+1	; 0x01
    12c4:	85 2e       	mov	r8, r21
    12c6:	91 2c       	mov	r9, r1
    12c8:	08 0d       	add	r16, r8
    12ca:	19 1d       	adc	r17, r9
    12cc:	e0 91 02 07 	lds	r30, 0x0702	; 0x800702 <font_current>
    12d0:	f0 91 03 07 	lds	r31, 0x0703	; 0x800703 <font_current+0x1>
    12d4:	e0 0f       	add	r30, r16
    12d6:	f1 1f       	adc	r31, r17
    12d8:	e4 91       	lpm	r30, Z
    12da:	f1 2c       	mov	r15, r1
    12dc:	e1 2c       	mov	r14, r1
				if (x+i >= GLCD_LCD_WIDTH || y+j >= GLCD_LCD_HEIGHT) {
    12de:	8c 0c       	add	r8, r12
    12e0:	9d 1c       	adc	r9, r13
				if (dat & (1<<j)) {
    12e2:	0e 2f       	mov	r16, r30
    12e4:	10 e0       	ldi	r17, 0x00	; 0
				if (x+i >= GLCD_LCD_WIDTH || y+j >= GLCD_LCD_HEIGHT) {
    12e6:	84 e5       	ldi	r24, 0x54	; 84
    12e8:	88 16       	cp	r8, r24
    12ea:	91 04       	cpc	r9, r1
    12ec:	0c f0       	brlt	.+2      	; 0x12f0 <glcd_draw_char_xy+0x114>
    12ee:	2b c1       	rjmp	.+598    	; 0x1546 <glcd_draw_char_xy+0x36a>
    12f0:	c5 01       	movw	r24, r10
    12f2:	8e 0d       	add	r24, r14
    12f4:	9f 1d       	adc	r25, r15
    12f6:	c0 97       	sbiw	r24, 0x30	; 48
    12f8:	08 f0       	brcs	.+2      	; 0x12fc <glcd_draw_char_xy+0x120>
    12fa:	25 c1       	rjmp	.+586    	; 0x1546 <glcd_draw_char_xy+0x36a>
				if (dat & (1<<j)) {
    12fc:	68 85       	ldd	r22, Y+8	; 0x08
    12fe:	6e 0d       	add	r22, r14
    1300:	c8 01       	movw	r24, r16
    1302:	0e 2c       	mov	r0, r14
    1304:	02 c0       	rjmp	.+4      	; 0x130a <glcd_draw_char_xy+0x12e>
    1306:	95 95       	asr	r25
    1308:	87 95       	ror	r24
    130a:	0a 94       	dec	r0
    130c:	e2 f7       	brpl	.-8      	; 0x1306 <glcd_draw_char_xy+0x12a>
					glcd_set_pixel(x+i,y+j,BLACK);
    130e:	41 e0       	ldi	r20, 0x01	; 1
				if (dat & (1<<j)) {
    1310:	80 ff       	sbrs	r24, 0
					glcd_set_pixel(x+i,y+j,WHITE);
    1312:	40 e0       	ldi	r20, 0x00	; 0
    1314:	84 2d       	mov	r24, r4
    1316:	0e 94 e7 0a 	call	0x15ce	; 0x15ce <glcd_set_pixel>
    131a:	9f ef       	ldi	r25, 0xFF	; 255
    131c:	e9 1a       	sub	r14, r25
    131e:	f9 0a       	sbc	r15, r25
			for (j = 0; j < 8; j++) {
    1320:	e8 e0       	ldi	r30, 0x08	; 8
    1322:	ee 16       	cp	r14, r30
    1324:	f1 04       	cpc	r15, r1
    1326:	f9 f6       	brne	.-66     	; 0x12e6 <glcd_draw_char_xy+0x10a>
		for ( i = 0; i < font_current.width; i++ ) {
    1328:	f9 81       	ldd	r31, Y+1	; 0x01
    132a:	ff 5f       	subi	r31, 0xFF	; 255
    132c:	f9 83       	std	Y+1, r31	; 0x01
    132e:	43 94       	inc	r4
    1330:	50 90 04 07 	lds	r5, 0x0704	; 0x800704 <font_current+0x2>
    1334:	39 81       	ldd	r19, Y+1	; 0x01
    1336:	35 15       	cp	r19, r5
    1338:	08 f4       	brcc	.+2      	; 0x133c <glcd_draw_char_xy+0x160>
    133a:	b9 cf       	rjmp	.-142    	; 0x12ae <glcd_draw_char_xy+0xd2>
		/* Don't recognise the font table */
		return 0;
		
	}

}
    133c:	85 2d       	mov	r24, r5
    133e:	29 96       	adiw	r28, 0x09	; 9
    1340:	0f b6       	in	r0, 0x3f	; 63
    1342:	f8 94       	cli
    1344:	de bf       	out	0x3e, r29	; 62
    1346:	0f be       	out	0x3f, r0	; 63
    1348:	cd bf       	out	0x3d, r28	; 61
    134a:	df 91       	pop	r29
    134c:	cf 91       	pop	r28
    134e:	1f 91       	pop	r17
    1350:	0f 91       	pop	r16
    1352:	ff 90       	pop	r15
    1354:	ef 90       	pop	r14
    1356:	df 90       	pop	r13
    1358:	cf 90       	pop	r12
    135a:	bf 90       	pop	r11
    135c:	af 90       	pop	r10
    135e:	9f 90       	pop	r9
    1360:	8f 90       	pop	r8
    1362:	7f 90       	pop	r7
    1364:	6f 90       	pop	r6
    1366:	5f 90       	pop	r5
    1368:	4f 90       	pop	r4
    136a:	3f 90       	pop	r3
    136c:	2f 90       	pop	r2
    136e:	08 95       	ret
			uint8_t dat = pgm_read_byte( font_current.font_table + ((c - font_current.start_char) * (font_current.width)) + i );
    1370:	64 2e       	mov	r6, r20
    1372:	71 2c       	mov	r7, r1
				if (x+i >= GLCD_LCD_WIDTH || y+j >= GLCD_LCD_HEIGHT) {
    1374:	c4 2c       	mov	r12, r4
    1376:	d1 2c       	mov	r13, r1
    1378:	28 85       	ldd	r18, Y+8	; 0x08
    137a:	a2 2e       	mov	r10, r18
    137c:	b1 2c       	mov	r11, r1
    137e:	d8 cf       	rjmp	.-80     	; 0x1330 <glcd_draw_char_xy+0x154>
				uint8_t dat = pgm_read_byte( p + i*bytes_high + j );
    1380:	f5 01       	movw	r30, r10
    1382:	64 90       	lpm	r6, Z
					if (x+i >= GLCD_LCD_WIDTH || y+j*8+bit >= GLCD_LCD_HEIGHT) {
    1384:	2e 80       	ldd	r2, Y+6	; 0x06
    1386:	3f 80       	ldd	r3, Y+7	; 0x07
    1388:	28 0c       	add	r2, r8
    138a:	39 1c       	adc	r3, r9
    138c:	f8 85       	ldd	r31, Y+8	; 0x08
    138e:	f8 0d       	add	r31, r8
    1390:	fd 83       	std	Y+5, r31	; 0x05
    1392:	f1 2c       	mov	r15, r1
    1394:	e1 2c       	mov	r14, r1
					if (dat & (1<<bit)) {
    1396:	71 2c       	mov	r7, r1
					if (x+i >= GLCD_LCD_WIDTH || y+j*8+bit >= GLCD_LCD_HEIGHT) {
    1398:	24 e5       	ldi	r18, 0x54	; 84
    139a:	c2 16       	cp	r12, r18
    139c:	d1 04       	cpc	r13, r1
    139e:	0c f0       	brlt	.+2      	; 0x13a2 <glcd_draw_char_xy+0x1c6>
    13a0:	d2 c0       	rjmp	.+420    	; 0x1546 <glcd_draw_char_xy+0x36a>
    13a2:	91 01       	movw	r18, r2
    13a4:	2e 0d       	add	r18, r14
    13a6:	3f 1d       	adc	r19, r15
    13a8:	20 33       	cpi	r18, 0x30	; 48
    13aa:	31 05       	cpc	r19, r1
    13ac:	08 f0       	brcs	.+2      	; 0x13b0 <glcd_draw_char_xy+0x1d4>
    13ae:	cb c0       	rjmp	.+406    	; 0x1546 <glcd_draw_char_xy+0x36a>
					if ((j*8 + bit) >= font_current.height) {
    13b0:	90 91 05 07 	lds	r25, 0x0705	; 0x800705 <font_current+0x3>
    13b4:	94 01       	movw	r18, r8
    13b6:	2e 0d       	add	r18, r14
    13b8:	3f 1d       	adc	r19, r15
    13ba:	92 17       	cp	r25, r18
    13bc:	13 06       	cpc	r1, r19
    13be:	89 f0       	breq	.+34     	; 0x13e2 <glcd_draw_char_xy+0x206>
    13c0:	84 f0       	brlt	.+32     	; 0x13e2 <glcd_draw_char_xy+0x206>
					if (dat & (1<<bit)) {
    13c2:	6d 81       	ldd	r22, Y+5	; 0x05
    13c4:	6e 0d       	add	r22, r14
    13c6:	a3 01       	movw	r20, r6
    13c8:	0e 2c       	mov	r0, r14
    13ca:	02 c0       	rjmp	.+4      	; 0x13d0 <glcd_draw_char_xy+0x1f4>
    13cc:	55 95       	asr	r21
    13ce:	47 95       	ror	r20
    13d0:	0a 94       	dec	r0
    13d2:	e2 f7       	brpl	.-8      	; 0x13cc <glcd_draw_char_xy+0x1f0>
    13d4:	ca 01       	movw	r24, r20
						glcd_set_pixel(x+i,y+j*8+bit,BLACK);
    13d6:	41 e0       	ldi	r20, 0x01	; 1
					if (dat & (1<<bit)) {
    13d8:	80 ff       	sbrs	r24, 0
						glcd_set_pixel(x+i,y+j*8+bit,WHITE);
    13da:	40 e0       	ldi	r20, 0x00	; 0
    13dc:	8a 81       	ldd	r24, Y+2	; 0x02
    13de:	0e 94 e7 0a 	call	0x15ce	; 0x15ce <glcd_set_pixel>
    13e2:	5f ef       	ldi	r21, 0xFF	; 255
    13e4:	e5 1a       	sub	r14, r21
    13e6:	f5 0a       	sbc	r15, r21
				for (bit = 0; bit < 8; bit++) {
    13e8:	88 e0       	ldi	r24, 0x08	; 8
    13ea:	e8 16       	cp	r14, r24
    13ec:	f1 04       	cpc	r15, r1
    13ee:	a1 f6       	brne	.-88     	; 0x1398 <glcd_draw_char_xy+0x1bc>
			for ( j = 0; j < bytes_high; j++ ) {
    13f0:	99 81       	ldd	r25, Y+1	; 0x01
    13f2:	9f 5f       	subi	r25, 0xFF	; 255
    13f4:	99 83       	std	Y+1, r25	; 0x01
    13f6:	e8 e0       	ldi	r30, 0x08	; 8
    13f8:	8e 0e       	add	r8, r30
    13fa:	91 1c       	adc	r9, r1
    13fc:	ff ef       	ldi	r31, 0xFF	; 255
    13fe:	af 1a       	sub	r10, r31
    1400:	bf 0a       	sbc	r11, r31
    1402:	29 85       	ldd	r18, Y+9	; 0x09
    1404:	39 81       	ldd	r19, Y+1	; 0x01
    1406:	23 13       	cpse	r18, r19
    1408:	bb cf       	rjmp	.-138    	; 0x1380 <glcd_draw_char_xy+0x1a4>
    140a:	4b 81       	ldd	r20, Y+3	; 0x03
    140c:	5c 81       	ldd	r21, Y+4	; 0x04
    140e:	04 0f       	add	r16, r20
    1410:	15 1f       	adc	r17, r21
    1412:	5f ef       	ldi	r21, 0xFF	; 255
    1414:	c5 1a       	sub	r12, r21
    1416:	d5 0a       	sbc	r13, r21
    1418:	3f cf       	rjmp	.-386    	; 0x1298 <glcd_draw_char_xy+0xbc>
	} else if (font_current.table_type == GLCD_UTILS) {
    141a:	89 81       	ldd	r24, Y+1	; 0x01
    141c:	82 30       	cpi	r24, 0x02	; 2
    141e:	09 f0       	breq	.+2      	; 0x1422 <glcd_draw_char_xy+0x246>
    1420:	92 c0       	rjmp	.+292    	; 0x1546 <glcd_draw_char_xy+0x36a>
		bytes_high = font_current.height / 8 + 1;
    1422:	80 91 05 07 	lds	r24, 0x0705	; 0x800705 <font_current+0x3>
    1426:	86 95       	lsr	r24
    1428:	86 95       	lsr	r24
    142a:	86 95       	lsr	r24
    142c:	91 e0       	ldi	r25, 0x01	; 1
    142e:	98 0f       	add	r25, r24
    1430:	99 83       	std	Y+1, r25	; 0x01
		bytes_per_char = font_current.width * bytes_high;
    1432:	90 91 04 07 	lds	r25, 0x0704	; 0x800704 <font_current+0x2>
		p = font_current.font_table + (c - font_current.start_char) * bytes_per_char;
    1436:	42 1b       	sub	r20, r18
    1438:	55 0b       	sbc	r21, r21
		bytes_per_char = font_current.width * bytes_high;
    143a:	e9 81       	ldd	r30, Y+1	; 0x01
    143c:	9e 9f       	mul	r25, r30
    143e:	20 2d       	mov	r18, r0
    1440:	11 24       	eor	r1, r1
		p = font_current.font_table + (c - font_current.start_char) * bytes_per_char;
    1442:	24 9f       	mul	r18, r20
    1444:	30 01       	movw	r6, r0
    1446:	25 9f       	mul	r18, r21
    1448:	70 0c       	add	r7, r0
    144a:	11 24       	eor	r1, r1
    144c:	20 91 02 07 	lds	r18, 0x0702	; 0x800702 <font_current>
    1450:	30 91 03 07 	lds	r19, 0x0703	; 0x800703 <font_current+0x1>
    1454:	62 0e       	add	r6, r18
    1456:	73 1e       	adc	r7, r19
		var_width = font_current.width;
    1458:	59 2e       	mov	r5, r25
				offset = (font_current.width - 1 - n) * row;
    145a:	49 2f       	mov	r20, r25
    145c:	41 50       	subi	r20, 0x01	; 1
    145e:	55 0b       	sbc	r21, r21
    1460:	9a 01       	movw	r18, r20
    1462:	49 2f       	mov	r20, r25
    1464:	45 19       	sub	r20, r5
    1466:	f9 01       	movw	r30, r18
    1468:	e4 1b       	sub	r30, r20
    146a:	f1 09       	sbc	r31, r1
    146c:	8e 9f       	mul	r24, r30
    146e:	e0 2d       	mov	r30, r0
    1470:	11 24       	eor	r1, r1
				max_byte = *(p + offset);
    1472:	e6 0d       	add	r30, r6
    1474:	f7 2d       	mov	r31, r7
    1476:	f1 1d       	adc	r31, r1
			if (max_byte == 0) {
    1478:	40 81       	ld	r20, Z
    147a:	41 11       	cpse	r20, r1
    147c:	03 c0       	rjmp	.+6      	; 0x1484 <glcd_draw_char_xy+0x2a8>
				var_width--;
    147e:	5a 94       	dec	r5
				if (var_width == 0) {
    1480:	51 10       	cpse	r5, r1
    1482:	ef cf       	rjmp	.-34     	; 0x1462 <glcd_draw_char_xy+0x286>
		for ( j = 0; j < bytes_high; j++ ) {
    1484:	98 85       	ldd	r25, Y+8	; 0x08
    1486:	89 2f       	mov	r24, r25
    1488:	90 e0       	ldi	r25, 0x00	; 0
    148a:	9c 83       	std	Y+4, r25	; 0x04
    148c:	8b 83       	std	Y+3, r24	; 0x03
				dat = pgm_read_byte( p + j*font_current.width + i );
    148e:	91 2c       	mov	r9, r1
    1490:	81 2c       	mov	r8, r1
    1492:	b1 2c       	mov	r11, r1
    1494:	a1 2c       	mov	r10, r1
    1496:	2b 81       	ldd	r18, Y+3	; 0x03
    1498:	2a 83       	std	Y+2, r18	; 0x02
    149a:	e4 2c       	mov	r14, r4
    149c:	f1 2c       	mov	r15, r1
    149e:	d1 2c       	mov	r13, r1
    14a0:	c1 2c       	mov	r12, r1
    14a2:	3e c0       	rjmp	.+124    	; 0x1520 <glcd_draw_char_xy+0x344>
    14a4:	80 91 04 07 	lds	r24, 0x0704	; 0x800704 <font_current+0x2>
    14a8:	8a 9d       	mul	r24, r10
    14aa:	f0 01       	movw	r30, r0
    14ac:	8b 9d       	mul	r24, r11
    14ae:	f0 0d       	add	r31, r0
    14b0:	11 24       	eor	r1, r1
    14b2:	ec 0d       	add	r30, r12
    14b4:	fd 1d       	adc	r31, r13
    14b6:	e6 0d       	add	r30, r6
    14b8:	f7 1d       	adc	r31, r7
    14ba:	e4 91       	lpm	r30, Z
    14bc:	10 e0       	ldi	r17, 0x00	; 0
    14be:	00 e0       	ldi	r16, 0x00	; 0
					if (dat & (1<<bit)) {
    14c0:	2e 2e       	mov	r2, r30
    14c2:	31 2c       	mov	r3, r1
					if ((x+i) >= GLCD_LCD_WIDTH || (y+j*8+bit) >= GLCD_LCD_HEIGHT) {
    14c4:	e4 e5       	ldi	r30, 0x54	; 84
    14c6:	ee 16       	cp	r14, r30
    14c8:	f1 04       	cpc	r15, r1
    14ca:	e8 f5       	brcc	.+122    	; 0x1546 <glcd_draw_char_xy+0x36a>
    14cc:	2b 81       	ldd	r18, Y+3	; 0x03
    14ce:	3c 81       	ldd	r19, Y+4	; 0x04
    14d0:	20 0f       	add	r18, r16
    14d2:	31 1f       	adc	r19, r17
    14d4:	20 33       	cpi	r18, 0x30	; 48
    14d6:	31 05       	cpc	r19, r1
    14d8:	b4 f5       	brge	.+108    	; 0x1546 <glcd_draw_char_xy+0x36a>
					if ((j*8 + bit) >= font_current.height) {
    14da:	90 91 05 07 	lds	r25, 0x0705	; 0x800705 <font_current+0x3>
    14de:	94 01       	movw	r18, r8
    14e0:	20 0f       	add	r18, r16
    14e2:	31 1f       	adc	r19, r17
    14e4:	92 17       	cp	r25, r18
    14e6:	13 06       	cpc	r1, r19
    14e8:	81 f0       	breq	.+32     	; 0x150a <glcd_draw_char_xy+0x32e>
    14ea:	7c f0       	brlt	.+30     	; 0x150a <glcd_draw_char_xy+0x32e>
					if (dat & (1<<bit)) {
    14ec:	6a 81       	ldd	r22, Y+2	; 0x02
    14ee:	60 0f       	add	r22, r16
    14f0:	91 01       	movw	r18, r2
    14f2:	00 2e       	mov	r0, r16
    14f4:	02 c0       	rjmp	.+4      	; 0x14fa <glcd_draw_char_xy+0x31e>
    14f6:	35 95       	asr	r19
    14f8:	27 95       	ror	r18
    14fa:	0a 94       	dec	r0
    14fc:	e2 f7       	brpl	.-8      	; 0x14f6 <glcd_draw_char_xy+0x31a>
						glcd_set_pixel(x+i,y+j*8+bit,BLACK);
    14fe:	41 e0       	ldi	r20, 0x01	; 1
					if (dat & (1<<bit)) {
    1500:	20 ff       	sbrs	r18, 0
						glcd_set_pixel(x+i,y+j*8+bit,WHITE);
    1502:	40 e0       	ldi	r20, 0x00	; 0
    1504:	8e 2d       	mov	r24, r14
    1506:	0e 94 e7 0a 	call	0x15ce	; 0x15ce <glcd_set_pixel>
    150a:	0f 5f       	subi	r16, 0xFF	; 255
    150c:	1f 4f       	sbci	r17, 0xFF	; 255
				for (bit = 0; bit < 8; bit++) {
    150e:	08 30       	cpi	r16, 0x08	; 8
    1510:	11 05       	cpc	r17, r1
    1512:	c1 f6       	brne	.-80     	; 0x14c4 <glcd_draw_char_xy+0x2e8>
    1514:	3f ef       	ldi	r19, 0xFF	; 255
    1516:	c3 1a       	sub	r12, r19
    1518:	d3 0a       	sbc	r13, r19
    151a:	4f ef       	ldi	r20, 0xFF	; 255
    151c:	e4 1a       	sub	r14, r20
    151e:	f4 0a       	sbc	r15, r20
			for ( i = 0; i < var_width; i++ ) {
    1520:	c5 14       	cp	r12, r5
    1522:	08 f4       	brcc	.+2      	; 0x1526 <glcd_draw_char_xy+0x34a>
    1524:	bf cf       	rjmp	.-130    	; 0x14a4 <glcd_draw_char_xy+0x2c8>
    1526:	5f ef       	ldi	r21, 0xFF	; 255
    1528:	a5 1a       	sub	r10, r21
    152a:	b5 0a       	sbc	r11, r21
    152c:	88 e0       	ldi	r24, 0x08	; 8
    152e:	88 0e       	add	r8, r24
    1530:	91 1c       	adc	r9, r1
    1532:	eb 81       	ldd	r30, Y+3	; 0x03
    1534:	fc 81       	ldd	r31, Y+4	; 0x04
    1536:	38 96       	adiw	r30, 0x08	; 8
    1538:	fc 83       	std	Y+4, r31	; 0x04
    153a:	eb 83       	std	Y+3, r30	; 0x03
		for ( j = 0; j < bytes_high; j++ ) {
    153c:	f9 81       	ldd	r31, Y+1	; 0x01
    153e:	af 16       	cp	r10, r31
    1540:	08 f4       	brcc	.+2      	; 0x1544 <glcd_draw_char_xy+0x368>
    1542:	a9 cf       	rjmp	.-174    	; 0x1496 <glcd_draw_char_xy+0x2ba>
    1544:	fb ce       	rjmp	.-522    	; 0x133c <glcd_draw_char_xy+0x160>
					return 0;
    1546:	51 2c       	mov	r5, r1
    1548:	f9 ce       	rjmp	.-526    	; 0x133c <glcd_draw_char_xy+0x160>

0000154a <glcd_draw_string_xy>:

void glcd_draw_string_xy(uint8_t x, uint8_t y, char *c)
{
    154a:	0f 93       	push	r16
    154c:	1f 93       	push	r17
    154e:	cf 93       	push	r28
    1550:	df 93       	push	r29
    1552:	18 2f       	mov	r17, r24
    1554:	06 2f       	mov	r16, r22
	uint8_t width;

	if (y > (GLCD_LCD_HEIGHT - font_current.height - 1)) {
    1556:	20 91 05 07 	lds	r18, 0x0705	; 0x800705 <font_current+0x3>
    155a:	8f e2       	ldi	r24, 0x2F	; 47
    155c:	90 e0       	ldi	r25, 0x00	; 0
    155e:	82 1b       	sub	r24, r18
    1560:	91 09       	sbc	r25, r1
    1562:	ea 01       	movw	r28, r20
    1564:	68 17       	cp	r22, r24
    1566:	19 06       	cpc	r1, r25
    1568:	61 f0       	breq	.+24     	; 0x1582 <glcd_draw_string_xy+0x38>
    156a:	5c f0       	brlt	.+22     	; 0x1582 <glcd_draw_string_xy+0x38>
	while (*c) {
		width = glcd_draw_char_xy(x,y,*c);
		x += (width + 1);
		c++;
	}		
}
    156c:	df 91       	pop	r29
    156e:	cf 91       	pop	r28
    1570:	1f 91       	pop	r17
    1572:	0f 91       	pop	r16
    1574:	08 95       	ret
		width = glcd_draw_char_xy(x,y,*c);
    1576:	60 2f       	mov	r22, r16
    1578:	81 2f       	mov	r24, r17
    157a:	0e 94 ee 08 	call	0x11dc	; 0x11dc <glcd_draw_char_xy>
		x += (width + 1);
    157e:	8f 5f       	subi	r24, 0xFF	; 255
    1580:	18 0f       	add	r17, r24
	while (*c) {
    1582:	49 91       	ld	r20, Y+
    1584:	41 11       	cpse	r20, r1
    1586:	f7 cf       	rjmp	.-18     	; 0x1576 <glcd_draw_string_xy+0x2c>
    1588:	f1 cf       	rjmp	.-30     	; 0x156c <glcd_draw_string_xy+0x22>

0000158a <glcd_draw_string_xy_P>:

void glcd_draw_string_xy_P(uint8_t x, uint8_t y, const char *str)
{
    158a:	0f 93       	push	r16
    158c:	1f 93       	push	r17
    158e:	cf 93       	push	r28
    1590:	df 93       	push	r29
    1592:	18 2f       	mov	r17, r24
    1594:	06 2f       	mov	r16, r22
	uint8_t width;

	if (y > (GLCD_LCD_HEIGHT - font_current.height - 1)) {
    1596:	20 91 05 07 	lds	r18, 0x0705	; 0x800705 <font_current+0x3>
    159a:	8f e2       	ldi	r24, 0x2F	; 47
    159c:	90 e0       	ldi	r25, 0x00	; 0
    159e:	82 1b       	sub	r24, r18
    15a0:	91 09       	sbc	r25, r1
    15a2:	68 17       	cp	r22, r24
    15a4:	19 06       	cpc	r1, r25
    15a6:	09 f0       	breq	.+2      	; 0x15aa <glcd_draw_string_xy_P+0x20>
    15a8:	6c f4       	brge	.+26     	; 0x15c4 <glcd_draw_string_xy_P+0x3a>
    15aa:	ea 01       	movw	r28, r20
		return;
	}

	while (1) {
#if defined(GLCD_DEVICE_AVR8)		
		char c = pgm_read_byte(str++);
    15ac:	fe 01       	movw	r30, r28
    15ae:	44 91       	lpm	r20, Z
#else
		char c = *(str++);
#endif
		if (!c)
    15b0:	21 96       	adiw	r28, 0x01	; 1
    15b2:	44 23       	and	r20, r20
    15b4:	39 f0       	breq	.+14     	; 0x15c4 <glcd_draw_string_xy_P+0x3a>
			return;
					
		width = glcd_draw_char_xy(x,y,c);
    15b6:	60 2f       	mov	r22, r16
    15b8:	81 2f       	mov	r24, r17
    15ba:	0e 94 ee 08 	call	0x11dc	; 0x11dc <glcd_draw_char_xy>
		x += (width + 1);
    15be:	8f 5f       	subi	r24, 0xFF	; 255
    15c0:	18 0f       	add	r17, r24
	while (1) {
    15c2:	f4 cf       	rjmp	.-24     	; 0x15ac <glcd_draw_string_xy_P+0x22>
		c++;
	}		
}
    15c4:	df 91       	pop	r29
    15c6:	cf 91       	pop	r28
    15c8:	1f 91       	pop	r17
    15ca:	0f 91       	pop	r16
    15cc:	08 95       	ret

000015ce <glcd_set_pixel>:
#include <string.h>
#include "glcd.h"

/* Based on PCD8544 library by Limor Fried */
void glcd_set_pixel(uint8_t x, uint8_t y, uint8_t color) {
	if (x > (GLCD_LCD_WIDTH-1) || y > (GLCD_LCD_HEIGHT-1)) {
    15ce:	84 35       	cpi	r24, 0x54	; 84
    15d0:	18 f5       	brcc	.+70     	; 0x1618 <glcd_set_pixel+0x4a>
    15d2:	60 33       	cpi	r22, 0x30	; 48
    15d4:	08 f5       	brcc	.+66     	; 0x1618 <glcd_set_pixel+0x4a>
		/* don't do anything if x/y is outside bounds of display size */
		return;
	}

	if (color) {
    15d6:	e8 2f       	mov	r30, r24
    15d8:	f0 e0       	ldi	r31, 0x00	; 0
    15da:	96 2f       	mov	r25, r22
    15dc:	96 95       	lsr	r25
    15de:	96 95       	lsr	r25
    15e0:	96 95       	lsr	r25
    15e2:	24 e5       	ldi	r18, 0x54	; 84
    15e4:	92 9f       	mul	r25, r18
    15e6:	e0 0d       	add	r30, r0
    15e8:	f1 1d       	adc	r31, r1
    15ea:	11 24       	eor	r1, r1
    15ec:	ea 5f       	subi	r30, 0xFA	; 250
    15ee:	fa 4f       	sbci	r31, 0xFA	; 250
    15f0:	90 81       	ld	r25, Z
    15f2:	56 2f       	mov	r21, r22
    15f4:	57 70       	andi	r21, 0x07	; 7
    15f6:	21 e0       	ldi	r18, 0x01	; 1
    15f8:	30 e0       	ldi	r19, 0x00	; 0
    15fa:	01 c0       	rjmp	.+2      	; 0x15fe <glcd_set_pixel+0x30>
    15fc:	22 0f       	add	r18, r18
    15fe:	5a 95       	dec	r21
    1600:	ea f7       	brpl	.-6      	; 0x15fc <glcd_set_pixel+0x2e>
    1602:	44 23       	and	r20, r20
    1604:	31 f0       	breq	.+12     	; 0x1612 <glcd_set_pixel+0x44>
		/* Set black */
		glcd_buffer[x+ (y/8)*GLCD_LCD_WIDTH] |= ( 1 << (y%8));
    1606:	29 2b       	or	r18, r25
	} else {
		/* Set white */
		glcd_buffer[x+ (y/8)*GLCD_LCD_WIDTH] &= ~ (1 << (y%8));
    1608:	20 83       	st	Z, r18
	}

	glcd_update_bbox(x,y,x,y);
    160a:	26 2f       	mov	r18, r22
    160c:	48 2f       	mov	r20, r24
    160e:	0c 94 32 06 	jmp	0xc64	; 0xc64 <glcd_update_bbox>
		glcd_buffer[x+ (y/8)*GLCD_LCD_WIDTH] &= ~ (1 << (y%8));
    1612:	20 95       	com	r18
    1614:	29 23       	and	r18, r25
    1616:	f8 cf       	rjmp	.-16     	; 0x1608 <glcd_set_pixel+0x3a>
}
    1618:	08 95       	ret

0000161a <glcd_get_pixel>:

/* Based on PCD8544 library by Limor Fried */
uint8_t glcd_get_pixel(uint8_t x, uint8_t y) {
	if ((x >= GLCD_LCD_WIDTH) || (y >= GLCD_LCD_HEIGHT)) {
    161a:	84 35       	cpi	r24, 0x54	; 84
    161c:	c8 f4       	brcc	.+50     	; 0x1650 <glcd_get_pixel+0x36>
    161e:	60 33       	cpi	r22, 0x30	; 48
    1620:	b8 f4       	brcc	.+46     	; 0x1650 <glcd_get_pixel+0x36>
		return 0;
	}
	
	if ( glcd_buffer[x+ (y/8)*GLCD_LCD_WIDTH] & ( 1 << (y%8)) ) {
    1622:	96 2f       	mov	r25, r22
    1624:	96 95       	lsr	r25
    1626:	96 95       	lsr	r25
    1628:	96 95       	lsr	r25
    162a:	44 e5       	ldi	r20, 0x54	; 84
    162c:	94 9f       	mul	r25, r20
    162e:	90 01       	movw	r18, r0
    1630:	11 24       	eor	r1, r1
    1632:	2a 5f       	subi	r18, 0xFA	; 250
    1634:	3a 4f       	sbci	r19, 0xFA	; 250
    1636:	28 0f       	add	r18, r24
    1638:	31 1d       	adc	r19, r1
    163a:	f9 01       	movw	r30, r18
    163c:	80 81       	ld	r24, Z
    163e:	90 e0       	ldi	r25, 0x00	; 0
    1640:	67 70       	andi	r22, 0x07	; 7
    1642:	02 c0       	rjmp	.+4      	; 0x1648 <glcd_get_pixel+0x2e>
    1644:	95 95       	asr	r25
    1646:	87 95       	ror	r24
    1648:	6a 95       	dec	r22
    164a:	e2 f7       	brpl	.-8      	; 0x1644 <glcd_get_pixel+0x2a>
    164c:	81 70       	andi	r24, 0x01	; 1
    164e:	08 95       	ret
		return 0;
    1650:	80 e0       	ldi	r24, 0x00	; 0
		return 1;
	} else {
		return 0;
	}
}
    1652:	08 95       	ret

00001654 <glcd_invert_pixel>:

void glcd_invert_pixel(uint8_t x, uint8_t y) {
    1654:	cf 93       	push	r28
    1656:	df 93       	push	r29
    1658:	c8 2f       	mov	r28, r24
    165a:	d6 2f       	mov	r29, r22
	if ((x >= GLCD_LCD_WIDTH) || (y >= GLCD_LCD_HEIGHT)) {
    165c:	84 35       	cpi	r24, 0x54	; 84
    165e:	e8 f4       	brcc	.+58     	; 0x169a <glcd_invert_pixel+0x46>
    1660:	60 33       	cpi	r22, 0x30	; 48
    1662:	d8 f4       	brcc	.+54     	; 0x169a <glcd_invert_pixel+0x46>
		return;
	}
	glcd_update_bbox(x,y,x,y);
    1664:	26 2f       	mov	r18, r22
    1666:	48 2f       	mov	r20, r24
    1668:	0e 94 32 06 	call	0xc64	; 0xc64 <glcd_update_bbox>
	glcd_buffer[x+ (y/8)*GLCD_LCD_WIDTH] ^= ( 1 << (y%8));
    166c:	8d 2f       	mov	r24, r29
    166e:	86 95       	lsr	r24
    1670:	86 95       	lsr	r24
    1672:	86 95       	lsr	r24
    1674:	ec 2f       	mov	r30, r28
    1676:	f0 e0       	ldi	r31, 0x00	; 0
    1678:	94 e5       	ldi	r25, 0x54	; 84
    167a:	89 9f       	mul	r24, r25
    167c:	e0 0d       	add	r30, r0
    167e:	f1 1d       	adc	r31, r1
    1680:	11 24       	eor	r1, r1
    1682:	ea 5f       	subi	r30, 0xFA	; 250
    1684:	fa 4f       	sbci	r31, 0xFA	; 250
    1686:	d7 70       	andi	r29, 0x07	; 7
    1688:	21 e0       	ldi	r18, 0x01	; 1
    168a:	30 e0       	ldi	r19, 0x00	; 0
    168c:	01 c0       	rjmp	.+2      	; 0x1690 <glcd_invert_pixel+0x3c>
    168e:	22 0f       	add	r18, r18
    1690:	da 95       	dec	r29
    1692:	ea f7       	brpl	.-6      	; 0x168e <glcd_invert_pixel+0x3a>
    1694:	80 81       	ld	r24, Z
    1696:	82 27       	eor	r24, r18
    1698:	80 83       	st	Z, r24
}
    169a:	df 91       	pop	r29
    169c:	cf 91       	pop	r28
    169e:	08 95       	ret

000016a0 <glcd_draw_line>:

/* Bresenham's algorithm - based on PCD8544 library Limor Fried */
void glcd_draw_line(uint8_t x0, uint8_t y0, uint8_t x1, uint8_t y1, uint8_t color) {
    16a0:	8f 92       	push	r8
    16a2:	9f 92       	push	r9
    16a4:	af 92       	push	r10
    16a6:	bf 92       	push	r11
    16a8:	cf 92       	push	r12
    16aa:	df 92       	push	r13
    16ac:	ef 92       	push	r14
    16ae:	ff 92       	push	r15
    16b0:	0f 93       	push	r16
    16b2:	1f 93       	push	r17
    16b4:	cf 93       	push	r28
    16b6:	df 93       	push	r29
    16b8:	c8 2f       	mov	r28, r24
    16ba:	d6 2f       	mov	r29, r22
    16bc:	14 2f       	mov	r17, r20
    16be:	f2 2e       	mov	r15, r18
	uint8_t steep = abs(y1 - y0) > abs(x1 - x0);
    16c0:	26 1b       	sub	r18, r22
    16c2:	33 0b       	sbc	r19, r19
    16c4:	69 01       	movw	r12, r18
    16c6:	37 ff       	sbrs	r19, 7
    16c8:	03 c0       	rjmp	.+6      	; 0x16d0 <glcd_draw_line+0x30>
    16ca:	d1 94       	neg	r13
    16cc:	c1 94       	neg	r12
    16ce:	d1 08       	sbc	r13, r1
    16d0:	81 2f       	mov	r24, r17
    16d2:	8c 1b       	sub	r24, r28
    16d4:	99 0b       	sbc	r25, r25
    16d6:	5c 01       	movw	r10, r24
    16d8:	97 ff       	sbrs	r25, 7
    16da:	03 c0       	rjmp	.+6      	; 0x16e2 <glcd_draw_line+0x42>
    16dc:	b1 94       	neg	r11
    16de:	a1 94       	neg	r10
    16e0:	b1 08       	sbc	r11, r1
	uint8_t dx, dy;
	int8_t err;
	int8_t ystep;
	
	if (steep) {
    16e2:	ac 14       	cp	r10, r12
    16e4:	bd 04       	cpc	r11, r13
    16e6:	34 f4       	brge	.+12     	; 0x16f4 <glcd_draw_line+0x54>
    16e8:	81 2f       	mov	r24, r17
		swap(x0, y0);
		swap(x1, y1);
    16ea:	1f 2d       	mov	r17, r15
    16ec:	f8 2e       	mov	r15, r24
	if (steep) {
    16ee:	8c 2f       	mov	r24, r28
		swap(x0, y0);
    16f0:	cd 2f       	mov	r28, r29
    16f2:	d8 2f       	mov	r29, r24
	}
	
	if (x0 > x1) {
    16f4:	1c 17       	cp	r17, r28
    16f6:	30 f4       	brcc	.+12     	; 0x1704 <glcd_draw_line+0x64>
    16f8:	8d 2f       	mov	r24, r29
		swap(x0, x1);
		swap(y0, y1);
    16fa:	df 2d       	mov	r29, r15
    16fc:	f8 2e       	mov	r15, r24
	if (x0 > x1) {
    16fe:	8c 2f       	mov	r24, r28
    1700:	c1 2f       	mov	r28, r17
    1702:	18 2f       	mov	r17, r24
	}
	
	glcd_update_bbox( x0, y0, x1, y1 );
    1704:	2f 2d       	mov	r18, r15
    1706:	41 2f       	mov	r20, r17
    1708:	6d 2f       	mov	r22, r29
    170a:	8c 2f       	mov	r24, r28
    170c:	0e 94 32 06 	call	0xc64	; 0xc64 <glcd_update_bbox>

	dx = x1 - x0;
    1710:	81 2e       	mov	r8, r17
    1712:	8c 1a       	sub	r8, r28
	dy = abs(y1 - y0);
    1714:	2f 2d       	mov	r18, r15
    1716:	2d 1b       	sub	r18, r29
    1718:	33 0b       	sbc	r19, r19
    171a:	c9 01       	movw	r24, r18
    171c:	37 ff       	sbrs	r19, 7
    171e:	03 c0       	rjmp	.+6      	; 0x1726 <glcd_draw_line+0x86>
    1720:	91 95       	neg	r25
    1722:	81 95       	neg	r24
    1724:	91 09       	sbc	r25, r1
    1726:	e8 2e       	mov	r14, r24
	
	err = dx / 2;
    1728:	98 2c       	mov	r9, r8
    172a:	96 94       	lsr	r9
	
	if (y0 < y1) {
    172c:	df 15       	cp	r29, r15
    172e:	10 f1       	brcs	.+68     	; 0x1774 <glcd_draw_line+0xd4>
		ystep = 1;
	} else {
		ystep = -1;
    1730:	ff 24       	eor	r15, r15
    1732:	fa 94       	dec	r15
	}
	
	for (; x0<=x1; x0++) {
    1734:	1c 17       	cp	r17, r28
    1736:	68 f4       	brcc	.+26     	; 0x1752 <glcd_draw_line+0xb2>
		if (err < 0) {
			y0 += ystep;
			err += dx;
		}
	}
}
    1738:	df 91       	pop	r29
    173a:	cf 91       	pop	r28
    173c:	1f 91       	pop	r17
    173e:	0f 91       	pop	r16
    1740:	ff 90       	pop	r15
    1742:	ef 90       	pop	r14
    1744:	df 90       	pop	r13
    1746:	cf 90       	pop	r12
    1748:	bf 90       	pop	r11
    174a:	af 90       	pop	r10
    174c:	9f 90       	pop	r9
    174e:	8f 90       	pop	r8
    1750:	08 95       	ret
			glcd_set_pixel(y0, x0, color);
    1752:	40 2f       	mov	r20, r16
    1754:	6c 2f       	mov	r22, r28
    1756:	8d 2f       	mov	r24, r29
		if (steep) {
    1758:	ac 14       	cp	r10, r12
    175a:	bd 04       	cpc	r11, r13
    175c:	14 f0       	brlt	.+4      	; 0x1762 <glcd_draw_line+0xc2>
			glcd_set_pixel(x0, y0, color);
    175e:	6d 2f       	mov	r22, r29
    1760:	8c 2f       	mov	r24, r28
    1762:	0e 94 e7 0a 	call	0x15ce	; 0x15ce <glcd_set_pixel>
		err -= dy;
    1766:	9e 18       	sub	r9, r14
		if (err < 0) {
    1768:	97 fe       	sbrs	r9, 7
    176a:	02 c0       	rjmp	.+4      	; 0x1770 <glcd_draw_line+0xd0>
			y0 += ystep;
    176c:	df 0d       	add	r29, r15
			err += dx;
    176e:	98 0c       	add	r9, r8
	for (; x0<=x1; x0++) {
    1770:	cf 5f       	subi	r28, 0xFF	; 255
    1772:	e0 cf       	rjmp	.-64     	; 0x1734 <glcd_draw_line+0x94>
		ystep = 1;
    1774:	ff 24       	eor	r15, r15
    1776:	f3 94       	inc	r15
    1778:	dd cf       	rjmp	.-70     	; 0x1734 <glcd_draw_line+0x94>

0000177a <glcd_fill_rect>:

void glcd_fill_rect(uint8_t x, uint8_t y, uint8_t w, uint8_t h, uint8_t color)
{
    177a:	5f 92       	push	r5
    177c:	6f 92       	push	r6
    177e:	7f 92       	push	r7
    1780:	8f 92       	push	r8
    1782:	9f 92       	push	r9
    1784:	af 92       	push	r10
    1786:	bf 92       	push	r11
    1788:	cf 92       	push	r12
    178a:	df 92       	push	r13
    178c:	ef 92       	push	r14
    178e:	ff 92       	push	r15
    1790:	0f 93       	push	r16
    1792:	1f 93       	push	r17
    1794:	cf 93       	push	r28
    1796:	df 93       	push	r29
    1798:	18 2f       	mov	r17, r24
    179a:	56 2e       	mov	r5, r22
    179c:	c4 2f       	mov	r28, r20
    179e:	d2 2f       	mov	r29, r18
	int16_t i;
	for (i=x; i<x+w; i++) {
    17a0:	e8 2e       	mov	r14, r24
    17a2:	f1 2c       	mov	r15, r1
    17a4:	57 01       	movw	r10, r14
    17a6:	a4 0e       	add	r10, r20
    17a8:	b1 1c       	adc	r11, r1
		int16_t j;
		for (j=y; j<y+h; j++) {
    17aa:	66 2e       	mov	r6, r22
    17ac:	71 2c       	mov	r7, r1
    17ae:	43 01       	movw	r8, r6
    17b0:	82 0e       	add	r8, r18
    17b2:	91 1c       	adc	r9, r1
	for (i=x; i<x+w; i++) {
    17b4:	ea 14       	cp	r14, r10
    17b6:	fb 04       	cpc	r15, r11
    17b8:	cc f0       	brlt	.+50     	; 0x17ec <glcd_fill_rect+0x72>
			glcd_set_pixel(i, j, color);
		}
	}
	glcd_update_bbox(x, y, x+w-1, y+h-1);
    17ba:	2f ef       	ldi	r18, 0xFF	; 255
    17bc:	2d 0f       	add	r18, r29
    17be:	25 0d       	add	r18, r5
    17c0:	4f ef       	ldi	r20, 0xFF	; 255
    17c2:	4c 0f       	add	r20, r28
    17c4:	41 0f       	add	r20, r17
    17c6:	65 2d       	mov	r22, r5
    17c8:	81 2f       	mov	r24, r17
}
    17ca:	df 91       	pop	r29
    17cc:	cf 91       	pop	r28
    17ce:	1f 91       	pop	r17
    17d0:	0f 91       	pop	r16
    17d2:	ff 90       	pop	r15
    17d4:	ef 90       	pop	r14
    17d6:	df 90       	pop	r13
    17d8:	cf 90       	pop	r12
    17da:	bf 90       	pop	r11
    17dc:	af 90       	pop	r10
    17de:	9f 90       	pop	r9
    17e0:	8f 90       	pop	r8
    17e2:	7f 90       	pop	r7
    17e4:	6f 90       	pop	r6
    17e6:	5f 90       	pop	r5
	glcd_update_bbox(x, y, x+w-1, y+h-1);
    17e8:	0c 94 32 06 	jmp	0xc64	; 0xc64 <glcd_update_bbox>
		for (j=y; j<y+h; j++) {
    17ec:	63 01       	movw	r12, r6
    17ee:	c8 14       	cp	r12, r8
    17f0:	d9 04       	cpc	r13, r9
    17f2:	24 f0       	brlt	.+8      	; 0x17fc <glcd_fill_rect+0x82>
	for (i=x; i<x+w; i++) {
    17f4:	8f ef       	ldi	r24, 0xFF	; 255
    17f6:	e8 1a       	sub	r14, r24
    17f8:	f8 0a       	sbc	r15, r24
    17fa:	dc cf       	rjmp	.-72     	; 0x17b4 <glcd_fill_rect+0x3a>
			glcd_set_pixel(i, j, color);
    17fc:	40 2f       	mov	r20, r16
    17fe:	6c 2d       	mov	r22, r12
    1800:	8e 2d       	mov	r24, r14
    1802:	0e 94 e7 0a 	call	0x15ce	; 0x15ce <glcd_set_pixel>
		for (j=y; j<y+h; j++) {
    1806:	8f ef       	ldi	r24, 0xFF	; 255
    1808:	c8 1a       	sub	r12, r24
    180a:	d8 0a       	sbc	r13, r24
    180c:	f0 cf       	rjmp	.-32     	; 0x17ee <glcd_fill_rect+0x74>

0000180e <glcd_draw_rect>:

void glcd_draw_rect(uint8_t x, uint8_t y, uint8_t w, uint8_t h, uint8_t color)
{
    180e:	8f 92       	push	r8
    1810:	9f 92       	push	r9
    1812:	af 92       	push	r10
    1814:	bf 92       	push	r11
    1816:	df 92       	push	r13
    1818:	ef 92       	push	r14
    181a:	ff 92       	push	r15
    181c:	0f 93       	push	r16
    181e:	1f 93       	push	r17
    1820:	cf 93       	push	r28
    1822:	df 93       	push	r29
    1824:	d8 2f       	mov	r29, r24
    1826:	16 2f       	mov	r17, r22
    1828:	c4 2f       	mov	r28, r20
    182a:	a2 2e       	mov	r10, r18
	int16_t i;
	for (i=x; i<x+w; i++) {
    182c:	e8 2e       	mov	r14, r24
    182e:	f1 2c       	mov	r15, r1
    1830:	dd 24       	eor	r13, r13
    1832:	da 94       	dec	r13
    1834:	d2 0e       	add	r13, r18
    1836:	d6 0e       	add	r13, r22
    1838:	47 01       	movw	r8, r14
    183a:	84 0e       	add	r8, r20
    183c:	91 1c       	adc	r9, r1
    183e:	e8 14       	cp	r14, r8
    1840:	f9 04       	cpc	r15, r9
    1842:	dc f0       	brlt	.+54     	; 0x187a <glcd_draw_rect+0x6c>
		glcd_set_pixel(i, y, color);
		glcd_set_pixel(i, y+h-1, color);
	}
	for (i=y; i<y+h; i++) {
    1844:	e1 2e       	mov	r14, r17
    1846:	f1 2c       	mov	r15, r1
    1848:	c1 50       	subi	r28, 0x01	; 1
    184a:	cd 0f       	add	r28, r29
    184c:	ae 0c       	add	r10, r14
    184e:	bf 2c       	mov	r11, r15
    1850:	b1 1c       	adc	r11, r1
    1852:	ea 14       	cp	r14, r10
    1854:	fb 04       	cpc	r15, r11
    1856:	fc f0       	brlt	.+62     	; 0x1896 <glcd_draw_rect+0x88>
		glcd_set_pixel(x, i, color);
		glcd_set_pixel(x+w-1, i, color);
	} 
	glcd_update_bbox(x, y, x+w-1, y+h-1);
    1858:	2d 2d       	mov	r18, r13
    185a:	4c 2f       	mov	r20, r28
    185c:	61 2f       	mov	r22, r17
    185e:	8d 2f       	mov	r24, r29
}
    1860:	df 91       	pop	r29
    1862:	cf 91       	pop	r28
    1864:	1f 91       	pop	r17
    1866:	0f 91       	pop	r16
    1868:	ff 90       	pop	r15
    186a:	ef 90       	pop	r14
    186c:	df 90       	pop	r13
    186e:	bf 90       	pop	r11
    1870:	af 90       	pop	r10
    1872:	9f 90       	pop	r9
    1874:	8f 90       	pop	r8
	glcd_update_bbox(x, y, x+w-1, y+h-1);
    1876:	0c 94 32 06 	jmp	0xc64	; 0xc64 <glcd_update_bbox>
		glcd_set_pixel(i, y, color);
    187a:	40 2f       	mov	r20, r16
    187c:	61 2f       	mov	r22, r17
    187e:	8e 2d       	mov	r24, r14
    1880:	0e 94 e7 0a 	call	0x15ce	; 0x15ce <glcd_set_pixel>
		glcd_set_pixel(i, y+h-1, color);
    1884:	40 2f       	mov	r20, r16
    1886:	6d 2d       	mov	r22, r13
    1888:	8e 2d       	mov	r24, r14
    188a:	0e 94 e7 0a 	call	0x15ce	; 0x15ce <glcd_set_pixel>
	for (i=x; i<x+w; i++) {
    188e:	8f ef       	ldi	r24, 0xFF	; 255
    1890:	e8 1a       	sub	r14, r24
    1892:	f8 0a       	sbc	r15, r24
    1894:	d4 cf       	rjmp	.-88     	; 0x183e <glcd_draw_rect+0x30>
		glcd_set_pixel(x, i, color);
    1896:	40 2f       	mov	r20, r16
    1898:	6e 2d       	mov	r22, r14
    189a:	8d 2f       	mov	r24, r29
    189c:	0e 94 e7 0a 	call	0x15ce	; 0x15ce <glcd_set_pixel>
		glcd_set_pixel(x+w-1, i, color);
    18a0:	40 2f       	mov	r20, r16
    18a2:	6e 2d       	mov	r22, r14
    18a4:	8c 2f       	mov	r24, r28
    18a6:	0e 94 e7 0a 	call	0x15ce	; 0x15ce <glcd_set_pixel>
	for (i=y; i<y+h; i++) {
    18aa:	8f ef       	ldi	r24, 0xFF	; 255
    18ac:	e8 1a       	sub	r14, r24
    18ae:	f8 0a       	sbc	r15, r24
    18b0:	d0 cf       	rjmp	.-96     	; 0x1852 <glcd_draw_rect+0x44>

000018b2 <glcd_draw_rect_thick>:

void glcd_draw_rect_thick(uint8_t x, uint8_t y, uint8_t w, uint8_t h, uint8_t tx, uint8_t ty, uint8_t color)
{
    18b2:	6f 92       	push	r6
    18b4:	7f 92       	push	r7
    18b6:	8f 92       	push	r8
    18b8:	9f 92       	push	r9
    18ba:	af 92       	push	r10
    18bc:	bf 92       	push	r11
    18be:	cf 92       	push	r12
    18c0:	df 92       	push	r13
    18c2:	ef 92       	push	r14
    18c4:	ff 92       	push	r15
    18c6:	0f 93       	push	r16
    18c8:	1f 93       	push	r17
    18ca:	cf 93       	push	r28
    18cc:	df 93       	push	r29
    18ce:	18 2f       	mov	r17, r24
    18d0:	f6 2e       	mov	r15, r22
    18d2:	c4 2f       	mov	r28, r20
    18d4:	d2 2f       	mov	r29, r18
	int16_t i, t;
	
	if (tx == 0) {
    18d6:	01 11       	cpse	r16, r1
    18d8:	01 c0       	rjmp	.+2      	; 0x18dc <glcd_draw_rect_thick+0x2a>
		tx = 1;
    18da:	01 e0       	ldi	r16, 0x01	; 1
	}

	if (ty == 0) {
    18dc:	e1 10       	cpse	r14, r1
    18de:	02 c0       	rjmp	.+4      	; 0x18e4 <glcd_draw_rect_thick+0x32>
		ty = 1;
    18e0:	ee 24       	eor	r14, r14
    18e2:	e3 94       	inc	r14
	}
	
	for (i=x; i<x+w; i++) {
    18e4:	a1 2e       	mov	r10, r17
    18e6:	b1 2c       	mov	r11, r1
    18e8:	45 01       	movw	r8, r10
    18ea:	8c 0e       	add	r8, r28
    18ec:	91 1c       	adc	r9, r1
    18ee:	66 24       	eor	r6, r6
    18f0:	6a 94       	dec	r6
    18f2:	6d 0e       	add	r6, r29
    18f4:	ef 0c       	add	r14, r15
    18f6:	a8 14       	cp	r10, r8
    18f8:	b9 04       	cpc	r11, r9
    18fa:	0c f1       	brlt	.+66     	; 0x193e <glcd_draw_rect_thick+0x8c>
		for (t=0; t<(ty); t++) {
			glcd_set_pixel(i, y+t, color);
			glcd_set_pixel(i, y+h-1-t, color);
		}
	}
	for (i=y; i<y+h; i++) {
    18fc:	af 2c       	mov	r10, r15
    18fe:	b1 2c       	mov	r11, r1
    1900:	45 01       	movw	r8, r10
    1902:	8d 0e       	add	r8, r29
    1904:	91 1c       	adc	r9, r1
    1906:	c1 50       	subi	r28, 0x01	; 1
    1908:	01 0f       	add	r16, r17
    190a:	a8 14       	cp	r10, r8
    190c:	b9 04       	cpc	r11, r9
    190e:	64 f1       	brlt	.+88     	; 0x1968 <glcd_draw_rect_thick+0xb6>
		for (t=0; t<(tx); t++) {
			glcd_set_pixel(x+t, i, color);
			glcd_set_pixel(x+w-1-t, i, color);
		}
	} 
	glcd_update_bbox(x, y, x+w-1, y+h-1);
    1910:	2f ef       	ldi	r18, 0xFF	; 255
    1912:	2d 0f       	add	r18, r29
    1914:	2f 0d       	add	r18, r15
    1916:	4c 2f       	mov	r20, r28
    1918:	41 0f       	add	r20, r17
    191a:	6f 2d       	mov	r22, r15
    191c:	81 2f       	mov	r24, r17
}
    191e:	df 91       	pop	r29
    1920:	cf 91       	pop	r28
    1922:	1f 91       	pop	r17
    1924:	0f 91       	pop	r16
    1926:	ff 90       	pop	r15
    1928:	ef 90       	pop	r14
    192a:	df 90       	pop	r13
    192c:	cf 90       	pop	r12
    192e:	bf 90       	pop	r11
    1930:	af 90       	pop	r10
    1932:	9f 90       	pop	r9
    1934:	8f 90       	pop	r8
    1936:	7f 90       	pop	r7
    1938:	6f 90       	pop	r6
	glcd_update_bbox(x, y, x+w-1, y+h-1);
    193a:	0c 94 32 06 	jmp	0xc64	; 0xc64 <glcd_update_bbox>
    193e:	76 2c       	mov	r7, r6
    1940:	7f 0c       	add	r7, r15
	for (i=x; i<x+w; i++) {
    1942:	df 2c       	mov	r13, r15
			glcd_set_pixel(i, y+t, color);
    1944:	4c 2d       	mov	r20, r12
    1946:	6d 2d       	mov	r22, r13
    1948:	8a 2d       	mov	r24, r10
    194a:	0e 94 e7 0a 	call	0x15ce	; 0x15ce <glcd_set_pixel>
			glcd_set_pixel(i, y+h-1-t, color);
    194e:	4c 2d       	mov	r20, r12
    1950:	67 2d       	mov	r22, r7
    1952:	8a 2d       	mov	r24, r10
    1954:	0e 94 e7 0a 	call	0x15ce	; 0x15ce <glcd_set_pixel>
    1958:	d3 94       	inc	r13
    195a:	7a 94       	dec	r7
		for (t=0; t<(ty); t++) {
    195c:	de 10       	cpse	r13, r14
    195e:	f2 cf       	rjmp	.-28     	; 0x1944 <glcd_draw_rect_thick+0x92>
	for (i=x; i<x+w; i++) {
    1960:	8f ef       	ldi	r24, 0xFF	; 255
    1962:	a8 1a       	sub	r10, r24
    1964:	b8 0a       	sbc	r11, r24
    1966:	c7 cf       	rjmp	.-114    	; 0x18f6 <glcd_draw_rect_thick+0x44>
    1968:	dc 2e       	mov	r13, r28
    196a:	d1 0e       	add	r13, r17
	for (i=y; i<y+h; i++) {
    196c:	e1 2e       	mov	r14, r17
			glcd_set_pixel(x+t, i, color);
    196e:	4c 2d       	mov	r20, r12
    1970:	6a 2d       	mov	r22, r10
    1972:	8e 2d       	mov	r24, r14
    1974:	0e 94 e7 0a 	call	0x15ce	; 0x15ce <glcd_set_pixel>
			glcd_set_pixel(x+w-1-t, i, color);
    1978:	4c 2d       	mov	r20, r12
    197a:	6a 2d       	mov	r22, r10
    197c:	8d 2d       	mov	r24, r13
    197e:	0e 94 e7 0a 	call	0x15ce	; 0x15ce <glcd_set_pixel>
    1982:	e3 94       	inc	r14
    1984:	da 94       	dec	r13
		for (t=0; t<(tx); t++) {
    1986:	0e 11       	cpse	r16, r14
    1988:	f2 cf       	rjmp	.-28     	; 0x196e <glcd_draw_rect_thick+0xbc>
	for (i=y; i<y+h; i++) {
    198a:	8f ef       	ldi	r24, 0xFF	; 255
    198c:	a8 1a       	sub	r10, r24
    198e:	b8 0a       	sbc	r11, r24
    1990:	bc cf       	rjmp	.-136    	; 0x190a <glcd_draw_rect_thick+0x58>

00001992 <glcd_draw_rect_shadow>:

void glcd_draw_rect_shadow(uint8_t x, uint8_t y, uint8_t w, uint8_t h, uint8_t color)
{
    1992:	ef 92       	push	r14
    1994:	ff 92       	push	r15
    1996:	0f 93       	push	r16
    1998:	1f 93       	push	r17
    199a:	cf 93       	push	r28
    199c:	df 93       	push	r29
    199e:	e8 2e       	mov	r14, r24
    19a0:	16 2f       	mov	r17, r22
    19a2:	c4 2f       	mov	r28, r20
    19a4:	d2 2f       	mov	r29, r18
	glcd_draw_rect(x, y, w, h, color);
    19a6:	0e 94 07 0c 	call	0x180e	; 0x180e <glcd_draw_rect>
	glcd_draw_line(x+1, y+h, x+w, y+h, color);
    19aa:	d1 0f       	add	r29, r17
    19ac:	ce 0d       	add	r28, r14
    19ae:	2d 2f       	mov	r18, r29
    19b0:	4c 2f       	mov	r20, r28
    19b2:	6d 2f       	mov	r22, r29
    19b4:	81 e0       	ldi	r24, 0x01	; 1
    19b6:	8e 0d       	add	r24, r14
    19b8:	0e 94 50 0b 	call	0x16a0	; 0x16a0 <glcd_draw_line>
	glcd_draw_line(x+w, y+1, x+w, y+h, color);
    19bc:	61 e0       	ldi	r22, 0x01	; 1
    19be:	61 0f       	add	r22, r17
    19c0:	2d 2f       	mov	r18, r29
    19c2:	4c 2f       	mov	r20, r28
    19c4:	8c 2f       	mov	r24, r28
    19c6:	0e 94 50 0b 	call	0x16a0	; 0x16a0 <glcd_draw_line>
}
    19ca:	df 91       	pop	r29
    19cc:	cf 91       	pop	r28
    19ce:	1f 91       	pop	r17
    19d0:	0f 91       	pop	r16
    19d2:	ff 90       	pop	r15
    19d4:	ef 90       	pop	r14
    19d6:	08 95       	ret

000019d8 <glcd_draw_circle>:

void glcd_draw_circle(uint8_t x0, uint8_t y0, uint8_t r, uint8_t color)
{
    19d8:	af 92       	push	r10
    19da:	bf 92       	push	r11
    19dc:	cf 92       	push	r12
    19de:	df 92       	push	r13
    19e0:	ef 92       	push	r14
    19e2:	ff 92       	push	r15
    19e4:	0f 93       	push	r16
    19e6:	1f 93       	push	r17
    19e8:	cf 93       	push	r28
    19ea:	df 93       	push	r29
    19ec:	e8 2e       	mov	r14, r24
    19ee:	d6 2e       	mov	r13, r22
    19f0:	f2 2e       	mov	r15, r18
		
	int8_t f = 1 - r;
    19f2:	81 e0       	ldi	r24, 0x01	; 1
    19f4:	c8 2e       	mov	r12, r24
    19f6:	c4 1a       	sub	r12, r20
	int8_t ddF_x = 1;
	int8_t ddF_y = -2 * r;
    19f8:	b4 2e       	mov	r11, r20
    19fa:	b1 94       	neg	r11
    19fc:	bb 0c       	add	r11, r11
	int8_t x = 0;
	int8_t y = r;
    19fe:	c4 2f       	mov	r28, r20
	
	glcd_update_bbox(x0-r, y0-r, x0+r, y0+r);
    1a00:	a4 2e       	mov	r10, r20
    1a02:	a6 0e       	add	r10, r22
    1a04:	14 2f       	mov	r17, r20
    1a06:	1e 0d       	add	r17, r14
    1a08:	06 2f       	mov	r16, r22
    1a0a:	04 1b       	sub	r16, r20
    1a0c:	de 2d       	mov	r29, r14
    1a0e:	d4 1b       	sub	r29, r20
    1a10:	2a 2d       	mov	r18, r10
    1a12:	41 2f       	mov	r20, r17
    1a14:	60 2f       	mov	r22, r16
    1a16:	8d 2f       	mov	r24, r29
    1a18:	0e 94 32 06 	call	0xc64	; 0xc64 <glcd_update_bbox>
	
	glcd_set_pixel(x0, y0+r, color);
    1a1c:	4f 2d       	mov	r20, r15
    1a1e:	6a 2d       	mov	r22, r10
    1a20:	8e 2d       	mov	r24, r14
    1a22:	0e 94 e7 0a 	call	0x15ce	; 0x15ce <glcd_set_pixel>
	glcd_set_pixel(x0, y0-r, color);
    1a26:	4f 2d       	mov	r20, r15
    1a28:	60 2f       	mov	r22, r16
    1a2a:	8e 2d       	mov	r24, r14
    1a2c:	0e 94 e7 0a 	call	0x15ce	; 0x15ce <glcd_set_pixel>
	glcd_set_pixel(x0+r, y0, color);
    1a30:	4f 2d       	mov	r20, r15
    1a32:	6d 2d       	mov	r22, r13
    1a34:	81 2f       	mov	r24, r17
    1a36:	0e 94 e7 0a 	call	0x15ce	; 0x15ce <glcd_set_pixel>
	glcd_set_pixel(x0-r, y0, color);
    1a3a:	4f 2d       	mov	r20, r15
    1a3c:	6d 2d       	mov	r22, r13
    1a3e:	8d 2f       	mov	r24, r29
    1a40:	0e 94 e7 0a 	call	0x15ce	; 0x15ce <glcd_set_pixel>
	int8_t x = 0;
    1a44:	d0 e0       	ldi	r29, 0x00	; 0
	
	while (x<y) {
    1a46:	dc 17       	cp	r29, r28
    1a48:	5c f0       	brlt	.+22     	; 0x1a60 <glcd_draw_circle+0x88>
		glcd_set_pixel(x0 - y, y0 + x, color);
		glcd_set_pixel(x0 + y, y0 - x, color);
		glcd_set_pixel(x0 - y, y0 - x, color);
		
	}
}
    1a4a:	df 91       	pop	r29
    1a4c:	cf 91       	pop	r28
    1a4e:	1f 91       	pop	r17
    1a50:	0f 91       	pop	r16
    1a52:	ff 90       	pop	r15
    1a54:	ef 90       	pop	r14
    1a56:	df 90       	pop	r13
    1a58:	cf 90       	pop	r12
    1a5a:	bf 90       	pop	r11
    1a5c:	af 90       	pop	r10
    1a5e:	08 95       	ret
		if (f >= 0) {
    1a60:	c7 fc       	sbrc	r12, 7
    1a62:	04 c0       	rjmp	.+8      	; 0x1a6c <glcd_draw_circle+0x94>
			y--;
    1a64:	c1 50       	subi	r28, 0x01	; 1
			ddF_y += 2;
    1a66:	b3 94       	inc	r11
    1a68:	b3 94       	inc	r11
			f += ddF_y;
    1a6a:	cb 0c       	add	r12, r11
		x++;
    1a6c:	df 5f       	subi	r29, 0xFF	; 255
		ddF_x += 2;
    1a6e:	8d 2f       	mov	r24, r29
    1a70:	88 0f       	add	r24, r24
    1a72:	8f 5f       	subi	r24, 0xFF	; 255
		f += ddF_x;
    1a74:	c8 0e       	add	r12, r24
		glcd_set_pixel(x0 + x, y0 + y, color);
    1a76:	ae 2c       	mov	r10, r14
    1a78:	ad 0e       	add	r10, r29
    1a7a:	4f 2d       	mov	r20, r15
    1a7c:	1c 2f       	mov	r17, r28
    1a7e:	1d 0d       	add	r17, r13
    1a80:	61 2f       	mov	r22, r17
    1a82:	8a 2d       	mov	r24, r10
    1a84:	0e 94 e7 0a 	call	0x15ce	; 0x15ce <glcd_set_pixel>
		glcd_set_pixel(x0 - x, y0 + y, color);
    1a88:	0e 2d       	mov	r16, r14
    1a8a:	0d 1b       	sub	r16, r29
    1a8c:	4f 2d       	mov	r20, r15
    1a8e:	61 2f       	mov	r22, r17
    1a90:	80 2f       	mov	r24, r16
    1a92:	0e 94 e7 0a 	call	0x15ce	; 0x15ce <glcd_set_pixel>
		glcd_set_pixel(x0 + x, y0 - y, color);
    1a96:	4f 2d       	mov	r20, r15
    1a98:	1d 2d       	mov	r17, r13
    1a9a:	1c 1b       	sub	r17, r28
    1a9c:	61 2f       	mov	r22, r17
    1a9e:	8a 2d       	mov	r24, r10
    1aa0:	0e 94 e7 0a 	call	0x15ce	; 0x15ce <glcd_set_pixel>
		glcd_set_pixel(x0 - x, y0 - y, color);
    1aa4:	4f 2d       	mov	r20, r15
    1aa6:	61 2f       	mov	r22, r17
    1aa8:	80 2f       	mov	r24, r16
    1aaa:	0e 94 e7 0a 	call	0x15ce	; 0x15ce <glcd_set_pixel>
		glcd_set_pixel(x0 + y, y0 + x, color);
    1aae:	1d 2d       	mov	r17, r13
    1ab0:	1d 0f       	add	r17, r29
    1ab2:	4f 2d       	mov	r20, r15
    1ab4:	61 2f       	mov	r22, r17
    1ab6:	0c 2f       	mov	r16, r28
    1ab8:	0e 0d       	add	r16, r14
    1aba:	80 2f       	mov	r24, r16
    1abc:	0e 94 e7 0a 	call	0x15ce	; 0x15ce <glcd_set_pixel>
		glcd_set_pixel(x0 - y, y0 + x, color);
    1ac0:	4f 2d       	mov	r20, r15
    1ac2:	61 2f       	mov	r22, r17
    1ac4:	1e 2d       	mov	r17, r14
    1ac6:	1c 1b       	sub	r17, r28
    1ac8:	81 2f       	mov	r24, r17
    1aca:	0e 94 e7 0a 	call	0x15ce	; 0x15ce <glcd_set_pixel>
		glcd_set_pixel(x0 + y, y0 - x, color);
    1ace:	ad 2c       	mov	r10, r13
    1ad0:	ad 1a       	sub	r10, r29
    1ad2:	4f 2d       	mov	r20, r15
    1ad4:	6a 2d       	mov	r22, r10
    1ad6:	80 2f       	mov	r24, r16
    1ad8:	0e 94 e7 0a 	call	0x15ce	; 0x15ce <glcd_set_pixel>
		glcd_set_pixel(x0 - y, y0 - x, color);
    1adc:	4f 2d       	mov	r20, r15
    1ade:	6a 2d       	mov	r22, r10
    1ae0:	81 2f       	mov	r24, r17
    1ae2:	0e 94 e7 0a 	call	0x15ce	; 0x15ce <glcd_set_pixel>
    1ae6:	af cf       	rjmp	.-162    	; 0x1a46 <glcd_draw_circle+0x6e>

00001ae8 <glcd_fill_circle>:

void glcd_fill_circle(uint8_t x0, uint8_t y0, uint8_t r, uint8_t color)
{
    1ae8:	4f 92       	push	r4
    1aea:	5f 92       	push	r5
    1aec:	6f 92       	push	r6
    1aee:	7f 92       	push	r7
    1af0:	8f 92       	push	r8
    1af2:	9f 92       	push	r9
    1af4:	af 92       	push	r10
    1af6:	bf 92       	push	r11
    1af8:	cf 92       	push	r12
    1afa:	df 92       	push	r13
    1afc:	ef 92       	push	r14
    1afe:	ff 92       	push	r15
    1b00:	0f 93       	push	r16
    1b02:	1f 93       	push	r17
    1b04:	cf 93       	push	r28
    1b06:	df 93       	push	r29
    1b08:	f8 2e       	mov	r15, r24
    1b0a:	06 2f       	mov	r16, r22
    1b0c:	82 2e       	mov	r8, r18
	
	int8_t f = 1 - r;
    1b0e:	d1 e0       	ldi	r29, 0x01	; 1
    1b10:	d4 1b       	sub	r29, r20
	int8_t ddF_x = 1;
	int8_t ddF_y = -2 * r;
    1b12:	94 2e       	mov	r9, r20
    1b14:	91 94       	neg	r9
    1b16:	99 0c       	add	r9, r9
	int8_t x = 0;
	int8_t y = r;
    1b18:	c4 2f       	mov	r28, r20
	
	int16_t i;

	glcd_update_bbox(x0-r, y0-r, x0+r, y0+r);
    1b1a:	24 2f       	mov	r18, r20
    1b1c:	26 0f       	add	r18, r22
    1b1e:	48 0f       	add	r20, r24
    1b20:	6c 1b       	sub	r22, r28
    1b22:	8c 1b       	sub	r24, r28
    1b24:	0e 94 32 06 	call	0xc64	; 0xc64 <glcd_update_bbox>
	
	for (i=y0-r; i<=y0+r; i++) {
    1b28:	10 e0       	ldi	r17, 0x00	; 0
    1b2a:	cc 2e       	mov	r12, r28
    1b2c:	d1 2c       	mov	r13, r1
    1b2e:	58 01       	movw	r10, r16
    1b30:	ac 18       	sub	r10, r12
    1b32:	bd 08       	sbc	r11, r13
    1b34:	c0 0e       	add	r12, r16
    1b36:	d1 1e       	adc	r13, r17
    1b38:	ca 14       	cp	r12, r10
    1b3a:	db 04       	cpc	r13, r11
    1b3c:	d4 f4       	brge	.+52     	; 0x1b72 <glcd_fill_circle+0x8a>
    1b3e:	66 24       	eor	r6, r6
    1b40:	63 94       	inc	r6
    1b42:	6f 0c       	add	r6, r15
    1b44:	77 24       	eor	r7, r7
    1b46:	7a 94       	dec	r7
    1b48:	7f 0c       	add	r7, r15
	int8_t x = 0;
    1b4a:	e1 2c       	mov	r14, r1
		glcd_set_pixel(x0, i, color);
	}
	
	while (x < y) {
    1b4c:	ec 16       	cp	r14, r28
    1b4e:	d4 f0       	brlt	.+52     	; 0x1b84 <glcd_fill_circle+0x9c>
		for (i=y0-x; i<=y0+x; i++) {
			glcd_set_pixel(x0+y, i, color);
			glcd_set_pixel(x0-y, i, color);
		}    
	}
}
    1b50:	df 91       	pop	r29
    1b52:	cf 91       	pop	r28
    1b54:	1f 91       	pop	r17
    1b56:	0f 91       	pop	r16
    1b58:	ff 90       	pop	r15
    1b5a:	ef 90       	pop	r14
    1b5c:	df 90       	pop	r13
    1b5e:	cf 90       	pop	r12
    1b60:	bf 90       	pop	r11
    1b62:	af 90       	pop	r10
    1b64:	9f 90       	pop	r9
    1b66:	8f 90       	pop	r8
    1b68:	7f 90       	pop	r7
    1b6a:	6f 90       	pop	r6
    1b6c:	5f 90       	pop	r5
    1b6e:	4f 90       	pop	r4
    1b70:	08 95       	ret
		glcd_set_pixel(x0, i, color);
    1b72:	48 2d       	mov	r20, r8
    1b74:	6a 2d       	mov	r22, r10
    1b76:	8f 2d       	mov	r24, r15
    1b78:	0e 94 e7 0a 	call	0x15ce	; 0x15ce <glcd_set_pixel>
	for (i=y0-r; i<=y0+r; i++) {
    1b7c:	8f ef       	ldi	r24, 0xFF	; 255
    1b7e:	a8 1a       	sub	r10, r24
    1b80:	b8 0a       	sbc	r11, r24
    1b82:	da cf       	rjmp	.-76     	; 0x1b38 <glcd_fill_circle+0x50>
		if (f >= 0) {
    1b84:	d7 fd       	sbrc	r29, 7
    1b86:	04 c0       	rjmp	.+8      	; 0x1b90 <glcd_fill_circle+0xa8>
			y--;
    1b88:	c1 50       	subi	r28, 0x01	; 1
			ddF_y += 2;
    1b8a:	93 94       	inc	r9
    1b8c:	93 94       	inc	r9
			f += ddF_y;
    1b8e:	d9 0d       	add	r29, r9
		x++;
    1b90:	e3 94       	inc	r14
		ddF_x += 2;
    1b92:	8e 2d       	mov	r24, r14
    1b94:	88 0f       	add	r24, r24
    1b96:	8f 5f       	subi	r24, 0xFF	; 255
		f += ddF_x;
    1b98:	d8 0f       	add	r29, r24
		for (i=y0-y; i<=y0+y; i++) {
    1b9a:	ac 2e       	mov	r10, r28
    1b9c:	0c 2e       	mov	r0, r28
    1b9e:	00 0c       	add	r0, r0
    1ba0:	bb 08       	sbc	r11, r11
    1ba2:	68 01       	movw	r12, r16
    1ba4:	ca 18       	sub	r12, r10
    1ba6:	db 08       	sbc	r13, r11
    1ba8:	a0 0e       	add	r10, r16
    1baa:	b1 1e       	adc	r11, r17
    1bac:	ac 14       	cp	r10, r12
    1bae:	bd 04       	cpc	r11, r13
    1bb0:	9c f4       	brge	.+38     	; 0x1bd8 <glcd_fill_circle+0xf0>
		for (i=y0-x; i<=y0+x; i++) {
    1bb2:	ae 2c       	mov	r10, r14
    1bb4:	0e 2c       	mov	r0, r14
    1bb6:	00 0c       	add	r0, r0
    1bb8:	bb 08       	sbc	r11, r11
    1bba:	68 01       	movw	r12, r16
    1bbc:	ca 18       	sub	r12, r10
    1bbe:	db 08       	sbc	r13, r11
    1bc0:	a0 0e       	add	r10, r16
    1bc2:	b1 1e       	adc	r11, r17
			glcd_set_pixel(x0+y, i, color);
    1bc4:	5c 2e       	mov	r5, r28
    1bc6:	5f 0c       	add	r5, r15
			glcd_set_pixel(x0-y, i, color);
    1bc8:	4f 2c       	mov	r4, r15
    1bca:	4c 1a       	sub	r4, r28
		for (i=y0-x; i<=y0+x; i++) {
    1bcc:	ac 14       	cp	r10, r12
    1bce:	bd 04       	cpc	r11, r13
    1bd0:	8c f4       	brge	.+34     	; 0x1bf4 <glcd_fill_circle+0x10c>
    1bd2:	63 94       	inc	r6
    1bd4:	7a 94       	dec	r7
    1bd6:	ba cf       	rjmp	.-140    	; 0x1b4c <glcd_fill_circle+0x64>
			glcd_set_pixel(x0+x, i, color);
    1bd8:	48 2d       	mov	r20, r8
    1bda:	6c 2d       	mov	r22, r12
    1bdc:	86 2d       	mov	r24, r6
    1bde:	0e 94 e7 0a 	call	0x15ce	; 0x15ce <glcd_set_pixel>
			glcd_set_pixel(x0-x, i, color);
    1be2:	48 2d       	mov	r20, r8
    1be4:	6c 2d       	mov	r22, r12
    1be6:	87 2d       	mov	r24, r7
    1be8:	0e 94 e7 0a 	call	0x15ce	; 0x15ce <glcd_set_pixel>
		for (i=y0-y; i<=y0+y; i++) {
    1bec:	8f ef       	ldi	r24, 0xFF	; 255
    1bee:	c8 1a       	sub	r12, r24
    1bf0:	d8 0a       	sbc	r13, r24
    1bf2:	dc cf       	rjmp	.-72     	; 0x1bac <glcd_fill_circle+0xc4>
			glcd_set_pixel(x0+y, i, color);
    1bf4:	48 2d       	mov	r20, r8
    1bf6:	6c 2d       	mov	r22, r12
    1bf8:	85 2d       	mov	r24, r5
    1bfa:	0e 94 e7 0a 	call	0x15ce	; 0x15ce <glcd_set_pixel>
			glcd_set_pixel(x0-y, i, color);
    1bfe:	48 2d       	mov	r20, r8
    1c00:	6c 2d       	mov	r22, r12
    1c02:	84 2d       	mov	r24, r4
    1c04:	0e 94 e7 0a 	call	0x15ce	; 0x15ce <glcd_set_pixel>
		for (i=y0-x; i<=y0+x; i++) {
    1c08:	8f ef       	ldi	r24, 0xFF	; 255
    1c0a:	c8 1a       	sub	r12, r24
    1c0c:	d8 0a       	sbc	r13, r24
    1c0e:	de cf       	rjmp	.-68     	; 0x1bcc <glcd_fill_circle+0xe4>

00001c10 <glcd_invert_area>:

void glcd_invert_area(uint8_t x, uint8_t y, uint8_t w, uint8_t h)
{
    1c10:	cf 92       	push	r12
    1c12:	df 92       	push	r13
    1c14:	ef 92       	push	r14
    1c16:	ff 92       	push	r15
    1c18:	1f 93       	push	r17
    1c1a:	cf 93       	push	r28
    1c1c:	df 93       	push	r29
    1c1e:	16 2f       	mov	r17, r22
	uint8_t xx, yy;
	for (xx = x; xx < (x+w); xx++) {
    1c20:	c8 2f       	mov	r28, r24
    1c22:	84 0f       	add	r24, r20
    1c24:	99 27       	eor	r25, r25
    1c26:	99 1f       	adc	r25, r25
    1c28:	7c 01       	movw	r14, r24
		/* Loop through each partial column */
		for (yy = y; yy < (y+h); yy++) {
    1c2a:	86 2f       	mov	r24, r22
    1c2c:	82 0f       	add	r24, r18
    1c2e:	99 27       	eor	r25, r25
    1c30:	99 1f       	adc	r25, r25
    1c32:	6c 01       	movw	r12, r24
	for (xx = x; xx < (x+w); xx++) {
    1c34:	ce 15       	cp	r28, r14
    1c36:	1f 04       	cpc	r1, r15
    1c38:	94 f0       	brlt	.+36     	; 0x1c5e <glcd_invert_area+0x4e>
			/* Go down and invert every pixel */
			glcd_invert_pixel(xx,yy);
		}
	}
}
    1c3a:	df 91       	pop	r29
    1c3c:	cf 91       	pop	r28
    1c3e:	1f 91       	pop	r17
    1c40:	ff 90       	pop	r15
    1c42:	ef 90       	pop	r14
    1c44:	df 90       	pop	r13
    1c46:	cf 90       	pop	r12
    1c48:	08 95       	ret
			glcd_invert_pixel(xx,yy);
    1c4a:	6d 2f       	mov	r22, r29
    1c4c:	8c 2f       	mov	r24, r28
    1c4e:	0e 94 2a 0b 	call	0x1654	; 0x1654 <glcd_invert_pixel>
		for (yy = y; yy < (y+h); yy++) {
    1c52:	df 5f       	subi	r29, 0xFF	; 255
    1c54:	dc 15       	cp	r29, r12
    1c56:	1d 04       	cpc	r1, r13
    1c58:	c4 f3       	brlt	.-16     	; 0x1c4a <glcd_invert_area+0x3a>
	for (xx = x; xx < (x+w); xx++) {
    1c5a:	cf 5f       	subi	r28, 0xFF	; 255
    1c5c:	eb cf       	rjmp	.-42     	; 0x1c34 <glcd_invert_area+0x24>
		for (yy = y; yy < (y+h); yy++) {
    1c5e:	d1 2f       	mov	r29, r17
    1c60:	f9 cf       	rjmp	.-14     	; 0x1c54 <glcd_invert_area+0x44>

00001c62 <glcd_draw_bitmap>:
	glcd_select_screen(original_buffer, glcd_bbox_selected);	
#endif
	
	/* Copy bitmap data to the screen buffer */
#if defined(GLCD_DEVICE_AVR8)
	memcpy_P(glcd_buffer_selected, data, (GLCD_LCD_WIDTH * GLCD_LCD_HEIGHT / 8));
    1c62:	48 ef       	ldi	r20, 0xF8	; 248
    1c64:	51 e0       	ldi	r21, 0x01	; 1
    1c66:	bc 01       	movw	r22, r24
    1c68:	80 91 fe 06 	lds	r24, 0x06FE	; 0x8006fe <glcd_buffer_selected>
    1c6c:	90 91 ff 06 	lds	r25, 0x06FF	; 0x8006ff <glcd_buffer_selected+0x1>
    1c70:	0e 94 02 30 	call	0x6004	; 0x6004 <memcpy_P>
#else
	memcpy(glcd_buffer_selected, data, (GLCD_LCD_WIDTH * GLCD_LCD_HEIGHT / 8));
#endif

	glcd_bbox_refresh(); 
    1c74:	0c 94 60 06 	jmp	0xcc0	; 0xcc0 <glcd_bbox_refresh>

00001c78 <glcd_test_circles>:
		0x00, 0x00, 0x00, 0x00, 0x00, 0x00, 0x00, 0x00, 0x00, 0x00, 0x00, 0x00, 0x00, 0x00, 0x00, 0x00, 0x00, 0x00, 0x00, 0x00, 0x00, 0x00, 0x00, 0x00, 0x00, 0x00, 0x00, 0x00, 0x00, 0x00, 0x00, 0x00, 0x00, 0x00, 0x00, 0x00, 0x00, 0x00, 0x00, 0x00, 0x00, 0x00, 0x00, 0x00, 0x00, 0x00, 0x00, 0x00, 0x00, 0x00, 0x00, 0x80, 0x80, 0xc0, 0xc0, 0xc0, 0xe0, 0xe0, 0xe0, 0xe0, 0xe0, 0xe0, 0xe0, 0xe0, 0xe0, 0xe0, 0xe0, 0xe0, 0xe0, 0xe0, 0xc0, 0xc0, 0xc0, 0x80, 0x80, 0x00, 0x00, 0x00, 0x00, 0x00, 0x00, 0x00, 0x00, 0x00, 0x00, 0x00, 0x00, 0x00, 0x00, 0x00, 0x00, 0x00, 0x00, 0x00, 0x00, 0x00, 0x00, 0x00, 0x00, 0x00, 0x00, 0x00, 0x00, 0x00, 0x00, 0x00, 0x00, 0x00, 0x00, 0x00, 0x00, 0x00, 0x00, 0x00, 0x00, 0x00, 0x00, 0x00, 0x00, 0x00, 0x00, 0x00, 0x00, 0x00, 0x00, 0x00, 0x00, 0x00, 0x00, 0x00, 0x00, 0x00, 0x00, 0x00, 0x00, 0x00, 0x00, 0x00, 0x00, 0x00, 0x00, 0x00, 0x00, 0x00, 0x00, 0x00, 0x00, 0x00, 0x00, 0x00, 0x00, 0x00, 0x00, 0x00, 0x00, 0x00, 0x00, 0x00, 0x00, 0x00, 0x00, 0x00, 0x00, 0x00, 0x00, 0x00, 0x00, 0x00, 0x00, 0x80, 0xc0, 0xe0, 0xf0, 0xf8, 0xfc, 0xfc, 0xfe, 0xff, 0xff, 0xff, 0xff, 0xff, 0xff, 0xff, 0xff, 0xff, 0xff, 0xff, 0xff, 0xff, 0xff, 0xff, 0xff, 0xff, 0xff, 0xff, 0xff, 0xff, 0xff, 0xff, 0xff, 0xff, 0xff, 0xff, 0xff, 0xfe, 0xfc, 0xfc, 0xf8, 0xf0, 0xe0, 0xc0, 0x80, 0x00, 0x00, 0x00, 0x00, 0x00, 0x00, 0x00, 0x00, 0x00, 0x00, 0x00, 0x00, 0x00, 0x00, 0x00, 0x00, 0x00, 0x00, 0x00, 0x00, 0x00, 0x00, 0x00, 0x00, 0x00, 0x00, 0x00, 0x00, 0x00, 0x00, 0x00, 0x00, 0x00, 0x00, 0x00, 0x00, 0x00, 0x00, 0x00, 0x00, 0x00, 0x00, 0x00, 0x00, 0x00, 0x00, 0x00, 0x00, 0x00, 0x00, 0x00, 0x00, 0x00, 0x00, 0x00, 0x00, 0x00, 0x00, 0x00, 0x00, 0x00, 0x00, 0x00, 0x00, 0x00, 0x00, 0x00, 0x00, 0x00, 0x00, 0x00, 0x00, 0x00, 0x00, 0x00, 0x00, 0x00, 0x00, 0x00, 0x00, 0x80, 0xf0, 0xfc, 0xfe, 0xff, 0xff, 0xff, 0xff, 0xff, 0xff, 0xff, 0xff, 0xff, 0xff, 0xff, 0xff, 0xff, 0xff, 0xff, 0xff, 0xff, 0xff, 0xff, 0xff, 0xff, 0xff, 0xff, 0xff, 0xff, 0xff, 0xff, 0xff, 0xff, 0xff, 0xff, 0xff, 0xff, 0xff, 0xff, 0xff, 0xff, 0xff, 0xff, 0xff, 0xff, 0xff, 0xff, 0xff, 0xfe, 0xfc, 0xf0, 0xc0, 0x00, 0x00, 0x00, 0x00, 0x00, 0x00, 0x00, 0x00, 0x00, 0x00, 0x00, 0x00, 0x00, 0x00, 0x00, 0x00, 0x00, 0x00, 0x00, 0x00, 0x00, 0x00, 0x00, 0x00, 0x00, 0x00, 0x00, 0x00, 0x00, 0x00, 0x00, 0x00, 0x00, 0x00, 0x00, 0x00, 0x00, 0x00, 0x00, 0x00, 0x00, 0x00, 0x00, 0x00, 0x00, 0x00, 0x00, 0x00, 0x00, 0x00, 0x00, 0x00, 0x00, 0x00, 0x00, 0x00, 0x00, 0x00, 0x00, 0x00, 0x00, 0x00, 0x00, 0x00, 0x00, 0x00, 0x00, 0x00, 0x00, 0x00, 0x00, 0x00, 0x00, 0x00, 0x00, 0xfc, 0xff, 0xff, 0xff, 0xff, 0xff, 0xff, 0xff, 0xff, 0xff, 0xff, 0xff, 0xff, 0xff, 0xff, 0xff, 0xff, 0xff, 0xff, 0x1f, 0x07, 0x03, 0x01, 0x01, 0x00, 0x00, 0x00, 0x00, 0x00, 0x00, 0x00, 0x01, 0x03, 0x07, 0x1f, 0xff, 0xff, 0xff, 0xff, 0xff, 0xff, 0xff, 0xff, 0xff, 0xff, 0xff, 0xff, 0xff, 0xff, 0xff, 0xff, 0xff, 0xff, 0xfc, 0x00, 0x00, 0x00, 0x00, 0x00, 0x00, 0x00, 0x00, 0x00, 0x00, 0x00, 0x00, 0x00, 0x00, 0x00, 0x00, 0x00, 0x00, 0x00, 0x00, 0x00, 0x00, 0x00, 0x00, 0x00, 0x00, 0x00, 0x00, 0x00, 0x00, 0x00, 0x00, 0x00, 0x00, 0x00, 0x00, 0x00, 0x00, 0x00, 0x00, 0x00, 0x00, 0x00, 0x00, 0x00, 0x00, 0x00, 0x00, 0x00, 0x00, 0x00, 0x00, 0x00, 0x00, 0x00, 0x00, 0x00, 0x00, 0x00, 0x00, 0x00, 0x00, 0x00, 0x00, 0x00, 0x00, 0x00, 0x00, 0x00, 0x00, 0x00, 0x00, 0x00, 0x00, 0x1f, 0xff, 0xff, 0xff, 0xff, 0xff, 0xff, 0xff, 0xff, 0xff, 0xff, 0xff, 0xff, 0xff, 0xff, 0xff, 0xff, 0xff, 0xff, 0xfc, 0xf0, 0xe0, 0xc0, 0x80, 0x80, 0x00, 0x00, 0x00, 0x00, 0x00, 0x80, 0xc0, 0xc0, 0xf0, 0xfc, 0xff, 0xff, 0xff, 0xff, 0xff, 0xff, 0xff, 0xff, 0xff, 0xff, 0xff, 0xff, 0xff, 0xff, 0xff, 0xff, 0xff, 0xff, 0x3f, 0x00, 0x00, 0x00, 0x00, 0x00, 0x00, 0x00, 0x00, 0x00, 0x00, 0x00, 0x00, 0x00, 0x00, 0x00, 0x00, 0x00, 0x00, 0x00, 0x00, 0x00, 0x00, 0x00, 0x00, 0x00, 0x00, 0x00, 0x00, 0x00, 0x00, 0x00, 0x00, 0x00, 0x00, 0x00, 0x00, 0x00, 0x00, 0x00, 0x00, 0x00, 0x00, 0x00, 0x00, 0x00, 0x00, 0x00, 0x00, 0x00, 0x00, 0x00, 0x00, 0x00, 0x00, 0x00, 0x00, 0x00, 0x00, 0x00, 0x00, 0x00, 0x00, 0x00, 0x00, 0x00, 0x00, 0x00, 0x00, 0x00, 0x00, 0x00, 0x00, 0x00, 0x00, 0x00, 0x01, 0x07, 0x1f, 0x7f, 0xff, 0xff, 0xff, 0xff, 0xff, 0xff, 0xff, 0xff, 0xff, 0xff, 0xff, 0xff, 0xff, 0xff, 0xff, 0xff, 0xff, 0x7f, 0x0f, 0x03, 0x00, 0x00, 0x00, 0x00, 0x01, 0x0f, 0x3f, 0xff, 0xff, 0xff, 0xff, 0xff, 0xff, 0xff, 0xff, 0xff, 0xff, 0xff, 0xff, 0xff, 0xff, 0xff, 0xff, 0xff, 0x7f, 0x1f, 0x07, 0x01, 0x00, 0x00, 0x00, 0x00, 0x00, 0x00, 0x00, 0x00, 0x00, 0x00, 0x00, 0x00, 0x00, 0x00, 0x00, 0x00, 0x00, 0x00, 0x00, 0x00, 0x00, 0x00, 0x00, 0x00, 0x00, 0x00, 0x00, 0x00, 0x00, 0x00, 0x00, 0x00, 0x00, 0x00, 0x00, 0x00, 0x00, 0x00, 0x00, 0x00, 0x00, 0x00, 0x00, 0x00, 0x00, 0x00, 0x00, 0x00, 0x00, 0x00, 0x00, 0x00, 0x00, 0x00, 0x00, 0x00, 0x00, 0x00, 0x00, 0x00, 0x00, 0x00, 0x00, 0x00, 0x00, 0x00, 0x00, 0x00, 0x00, 0x00, 0x00, 0x00, 0x00, 0x00, 0x00, 0x00, 0x00, 0x00, 0x00, 0x00, 0x00, 0x01, 0x03, 0x07, 0x0f, 0x1f, 0x3f, 0x3f, 0x7f, 0xff, 0xff, 0xff, 0xff, 0xff, 0x7f, 0x0f, 0x03, 0x00, 0x00, 0x00, 0x00, 0x00, 0x00, 0x00, 0x00, 0x00, 0x00, 0x01, 0x0f, 0x3f, 0xff, 0xff, 0xff, 0xff, 0xff, 0x7f, 0x7f, 0x3f, 0x1f, 0x0f, 0x07, 0x03, 0x01, 0x00, 0x00, 0x00, 0x00, 0x00, 0x00, 0x00, 0x00, 0x00, 0x00, 0x00, 0x00, 0x00, 0x00, 0x00, 0x00, 0x00, 0x00, 0x00, 0x00, 0x00, 0x00, 0x00, 0x00, 0x00, 0x00, 0x00, 0x00, 0x00, 0x00, 0x00, 0x00, 0x00, 0x00, 0x00, 0x00, 0x00, 0x00, 0x00, 0x00, 0x00, 0x00, 0x00, 0x00, 0x00, 0x00, 0x00, 0x00, 0x00, 0x00, 0x00, 0x00, 0x00, 0x00, 0x00, 0x00, 0x00, 0x00, 0x00, 0x00, 0x00, 0x00, 0x00, 0x00, 0x00, 0x00, 0x00, 0x00, 0x00, 0x00, 0x00, 0x00, 0x00, 0x00, 0x00, 0x00, 0x00, 0x00, 0x00, 0x00, 0x00, 0x00, 0x00, 0x00, 0x00, 0x00, 0x00, 0x00, 0x00, 0x00, 0x00, 0x00, 0x00, 0x00, 0x00, 0x00, 0x00, 0x01, 0x01, 0x00, 0x00, 0x00, 0x00, 0x00, 0x00, 0x00, 0x00, 0x00, 0x00, 0x00, 0x00, 0x00, 0x00, 0x00, 0x00, 0x01, 0x01, 0x01, 0x00, 0x00, 0x00, 0x00, 0x00, 0x00, 0x00, 0x00, 0x00, 0x00, 0x00, 0x00, 0x00, 0x00, 0x00, 0x00, 0x00, 0x00, 0x00, 0x00, 0x00, 0x00, 0x00, 0x00, 0x00, 0x00, 0x00, 0x00, 0x00, 0x00, 0x00, 0x00, 0x00, 0x00, 0x00, 0x00, 0x00, 0x00, 0x00, 0x00, 0x00, 0x00, 0x00, 0x00, 0x00, 0x00, 0x00, 0x00, 0x00, 0x00, 0x00, 0x00, 0x00, 0x00   // 
	};
#endif /* GLCD_UNIT_TEST_BITMAP_ENABLE */

void glcd_test_circles(void)
{
    1c78:	6f 92       	push	r6
    1c7a:	7f 92       	push	r7
    1c7c:	8f 92       	push	r8
    1c7e:	9f 92       	push	r9
    1c80:	af 92       	push	r10
    1c82:	bf 92       	push	r11
    1c84:	cf 92       	push	r12
    1c86:	df 92       	push	r13
    1c88:	ef 92       	push	r14
    1c8a:	ff 92       	push	r15
    1c8c:	0f 93       	push	r16
    1c8e:	1f 93       	push	r17
    1c90:	cf 93       	push	r28
    1c92:	df 93       	push	r29
		uint8_t i;
		
		glcd_clear();

		// generate random(ish) position on display
		x = rand() % GLCD_LCD_WIDTH;
    1c94:	04 e5       	ldi	r16, 0x54	; 84
    1c96:	10 e0       	ldi	r17, 0x00	; 0
		y = rand() % GLCD_LCD_HEIGHT;
    1c98:	80 e3       	ldi	r24, 0x30	; 48
    1c9a:	e8 2e       	mov	r14, r24
    1c9c:	f1 2c       	mov	r15, r1
		radius = rand() % 50;
    1c9e:	92 e3       	ldi	r25, 0x32	; 50
    1ca0:	c9 2e       	mov	r12, r25
    1ca2:	d1 2c       	mov	r13, r1
    1ca4:	20 ea       	ldi	r18, 0xA0	; 160
    1ca6:	a2 2e       	mov	r10, r18
    1ca8:	2f e0       	ldi	r18, 0x0F	; 15
    1caa:	b2 2e       	mov	r11, r18
    1cac:	30 ed       	ldi	r19, 0xD0	; 208
    1cae:	83 2e       	mov	r8, r19
    1cb0:	37 e0       	ldi	r19, 0x07	; 7
    1cb2:	93 2e       	mov	r9, r19
		glcd_clear();
    1cb4:	0e 94 6b 06 	call	0xcd6	; 0xcd6 <glcd_clear>
		x = rand() % GLCD_LCD_WIDTH;
    1cb8:	0e 94 f2 2f 	call	0x5fe4	; 0x5fe4 <rand>
    1cbc:	b8 01       	movw	r22, r16
    1cbe:	0e 94 48 2f 	call	0x5e90	; 0x5e90 <__divmodhi4>
    1cc2:	78 2e       	mov	r7, r24
		y = rand() % GLCD_LCD_HEIGHT;
    1cc4:	0e 94 f2 2f 	call	0x5fe4	; 0x5fe4 <rand>
    1cc8:	b7 01       	movw	r22, r14
    1cca:	0e 94 48 2f 	call	0x5e90	; 0x5e90 <__divmodhi4>
    1cce:	68 2e       	mov	r6, r24
		radius = rand() % 50;
    1cd0:	0e 94 f2 2f 	call	0x5fe4	; 0x5fe4 <rand>
    1cd4:	b6 01       	movw	r22, r12
    1cd6:	0e 94 48 2f 	call	0x5e90	; 0x5e90 <__divmodhi4>
    1cda:	d8 2f       	mov	r29, r24

		//x = 70; y=25; radius=50; // for debugging

		// fill circle with black
		
		for (i=0; i<=radius; i++) {
    1cdc:	c0 e0       	ldi	r28, 0x00	; 0
			glcd_fill_circle(x,y,i,BLACK);
    1cde:	21 e0       	ldi	r18, 0x01	; 1
    1ce0:	4c 2f       	mov	r20, r28
    1ce2:	66 2d       	mov	r22, r6
    1ce4:	87 2d       	mov	r24, r7
    1ce6:	0e 94 74 0d 	call	0x1ae8	; 0x1ae8 <glcd_fill_circle>
			glcd_write();
    1cea:	0e 94 10 07 	call	0xe20	; 0xe20 <glcd_write>
    1cee:	c5 01       	movw	r24, r10
    1cf0:	01 97       	sbiw	r24, 0x01	; 1
    1cf2:	f1 f7       	brne	.-4      	; 0x1cf0 <glcd_test_circles+0x78>
		for (i=0; i<=radius; i++) {
    1cf4:	cf 5f       	subi	r28, 0xFF	; 255
    1cf6:	dc 17       	cp	r29, r28
    1cf8:	90 f7       	brcc	.-28     	; 0x1cde <glcd_test_circles+0x66>
			delay_ms(2);
		}

		// fill the same circle above but with white
		for (i=0; i<=radius; i++) {
    1cfa:	c0 e0       	ldi	r28, 0x00	; 0
			glcd_fill_circle(x,y,i,WHITE);
    1cfc:	20 e0       	ldi	r18, 0x00	; 0
    1cfe:	4c 2f       	mov	r20, r28
    1d00:	66 2d       	mov	r22, r6
    1d02:	87 2d       	mov	r24, r7
    1d04:	0e 94 74 0d 	call	0x1ae8	; 0x1ae8 <glcd_fill_circle>
			glcd_write();
    1d08:	0e 94 10 07 	call	0xe20	; 0xe20 <glcd_write>
    1d0c:	c4 01       	movw	r24, r8
    1d0e:	01 97       	sbiw	r24, 0x01	; 1
    1d10:	f1 f7       	brne	.-4      	; 0x1d0e <glcd_test_circles+0x96>
		for (i=0; i<=radius; i++) {
    1d12:	cf 5f       	subi	r28, 0xFF	; 255
    1d14:	dc 17       	cp	r29, r28
    1d16:	90 f7       	brcc	.-28     	; 0x1cfc <glcd_test_circles+0x84>
			delay_ms(1);
		}
		DEMO_RETURN();
    1d18:	80 91 d8 01 	lds	r24, 0x01D8	; 0x8001d8 <unit_test_return>
    1d1c:	88 23       	and	r24, r24
    1d1e:	51 f2       	breq	.-108    	; 0x1cb4 <glcd_test_circles+0x3c>
    1d20:	10 92 d8 01 	sts	0x01D8, r1	; 0x8001d8 <unit_test_return>
	}
}
    1d24:	df 91       	pop	r29
    1d26:	cf 91       	pop	r28
    1d28:	1f 91       	pop	r17
    1d2a:	0f 91       	pop	r16
    1d2c:	ff 90       	pop	r15
    1d2e:	ef 90       	pop	r14
    1d30:	df 90       	pop	r13
    1d32:	cf 90       	pop	r12
    1d34:	bf 90       	pop	r11
    1d36:	af 90       	pop	r10
    1d38:	9f 90       	pop	r9
    1d3a:	8f 90       	pop	r8
    1d3c:	7f 90       	pop	r7
    1d3e:	6f 90       	pop	r6
    1d40:	08 95       	ret

00001d42 <glcd_test_counter_and_graph>:

void glcd_test_counter_and_graph(void)
{
    1d42:	cf 92       	push	r12
    1d44:	df 92       	push	r13
    1d46:	ef 92       	push	r14
    1d48:	ff 92       	push	r15
    1d4a:	0f 93       	push	r16
    1d4c:	1f 93       	push	r17
    1d4e:	cf 93       	push	r28
    1d50:	df 93       	push	r29
    1d52:	cd b7       	in	r28, 0x3d	; 61
    1d54:	de b7       	in	r29, 0x3e	; 62
    1d56:	28 97       	sbiw	r28, 0x08	; 8
    1d58:	0f b6       	in	r0, 0x3f	; 63
    1d5a:	f8 94       	cli
    1d5c:	de bf       	out	0x3e, r29	; 62
    1d5e:	0f be       	out	0x3f, r0	; 63
    1d60:	cd bf       	out	0x3d, r28	; 61
	uint8_t count = 0;
	char string[8] = "";
    1d62:	1a 82       	std	Y+2, r1	; 0x02
    1d64:	19 82       	std	Y+1, r1	; 0x01
    1d66:	fe 01       	movw	r30, r28
    1d68:	33 96       	adiw	r30, 0x03	; 3
    1d6a:	86 e0       	ldi	r24, 0x06	; 6
    1d6c:	df 01       	movw	r26, r30
    1d6e:	1d 92       	st	X+, r1
    1d70:	8a 95       	dec	r24
    1d72:	e9 f7       	brne	.-6      	; 0x1d6e <glcd_test_counter_and_graph+0x2c>
	uint8_t count = 0;
    1d74:	10 e0       	ldi	r17, 0x00	; 0
		//glcd_set_font(Liberation_Sans27x36_Numbers,27,36,46,57);
		//glcd_set_font(Bebas_Neue20x36_Bold_Numbers,20,36,46,57);
		//glcd_set_font(Bebas_Neue18x36_Numbers,18,36,46,57);
		//glcd_set_font(HelveticaNeueLT_Com_57_Cn23x35_Numbers,23,35,46,57); // commercial font - not for public distribution

		sprintf(string,"%d",count);
    1d76:	89 e5       	ldi	r24, 0x59	; 89
    1d78:	c8 2e       	mov	r12, r24
    1d7a:	81 e0       	ldi	r24, 0x01	; 1
    1d7c:	d8 2e       	mov	r13, r24
    1d7e:	ce 01       	movw	r24, r28
    1d80:	01 96       	adiw	r24, 0x01	; 1
    1d82:	7c 01       	movw	r14, r24
		glcd_clear_buffer();
    1d84:	0e 94 7f 06 	call	0xcfe	; 0xcfe <glcd_clear_buffer>
		glcd_set_font(Liberation_Sans15x21_Numbers,15,21,46,57);
    1d88:	09 e3       	ldi	r16, 0x39	; 57
    1d8a:	2e e2       	ldi	r18, 0x2E	; 46
    1d8c:	45 e1       	ldi	r20, 0x15	; 21
    1d8e:	6f e0       	ldi	r22, 0x0F	; 15
    1d90:	80 eb       	ldi	r24, 0xB0	; 176
    1d92:	97 e0       	ldi	r25, 0x07	; 7
    1d94:	0e 94 d3 08 	call	0x11a6	; 0x11a6 <glcd_set_font>
		sprintf(string,"%d",count);
    1d98:	1f 92       	push	r1
    1d9a:	1f 93       	push	r17
    1d9c:	df 92       	push	r13
    1d9e:	cf 92       	push	r12
    1da0:	ff 92       	push	r15
    1da2:	ef 92       	push	r14
    1da4:	0e 94 57 30 	call	0x60ae	; 0x60ae <sprintf>
		glcd_draw_string_xy(0,0,string);
    1da8:	a7 01       	movw	r20, r14
    1daa:	60 e0       	ldi	r22, 0x00	; 0
    1dac:	80 e0       	ldi	r24, 0x00	; 0
    1dae:	0e 94 a5 0a 	call	0x154a	; 0x154a <glcd_draw_string_xy>
		glcd_bar_graph_horizontal(10,38,30,6,count*4);
    1db2:	01 2f       	mov	r16, r17
    1db4:	00 0f       	add	r16, r16
    1db6:	00 0f       	add	r16, r16
    1db8:	26 e0       	ldi	r18, 0x06	; 6
    1dba:	4e e1       	ldi	r20, 0x1E	; 30
    1dbc:	66 e2       	ldi	r22, 0x26	; 38
    1dbe:	8a e0       	ldi	r24, 0x0A	; 10
    1dc0:	0e 94 6f 07 	call	0xede	; 0xede <glcd_bar_graph_horizontal>
		glcd_bar_graph_vertical(70,0,8,30,count*2);
    1dc4:	01 2f       	mov	r16, r17
    1dc6:	00 0f       	add	r16, r16
    1dc8:	2e e1       	ldi	r18, 0x1E	; 30
    1dca:	48 e0       	ldi	r20, 0x08	; 8
    1dcc:	60 e0       	ldi	r22, 0x00	; 0
    1dce:	86 e4       	ldi	r24, 0x46	; 70
    1dd0:	0e 94 ab 07 	call	0xf56	; 0xf56 <glcd_bar_graph_vertical>

		glcd_write();
    1dd4:	0e 94 10 07 	call	0xe20	; 0xe20 <glcd_write>
		count += 1;
    1dd8:	1f 5f       	subi	r17, 0xFF	; 255

		DEMO_RETURN();
    1dda:	80 91 d8 01 	lds	r24, 0x01D8	; 0x8001d8 <unit_test_return>
    1dde:	0f 90       	pop	r0
    1de0:	0f 90       	pop	r0
    1de2:	0f 90       	pop	r0
    1de4:	0f 90       	pop	r0
    1de6:	0f 90       	pop	r0
    1de8:	0f 90       	pop	r0
    1dea:	88 23       	and	r24, r24
    1dec:	59 f2       	breq	.-106    	; 0x1d84 <glcd_test_counter_and_graph+0x42>
    1dee:	10 92 d8 01 	sts	0x01D8, r1	; 0x8001d8 <unit_test_return>
	}

}
    1df2:	28 96       	adiw	r28, 0x08	; 8
    1df4:	0f b6       	in	r0, 0x3f	; 63
    1df6:	f8 94       	cli
    1df8:	de bf       	out	0x3e, r29	; 62
    1dfa:	0f be       	out	0x3f, r0	; 63
    1dfc:	cd bf       	out	0x3d, r28	; 61
    1dfe:	df 91       	pop	r29
    1e00:	cf 91       	pop	r28
    1e02:	1f 91       	pop	r17
    1e04:	0f 91       	pop	r16
    1e06:	ff 90       	pop	r15
    1e08:	ef 90       	pop	r14
    1e0a:	df 90       	pop	r13
    1e0c:	cf 90       	pop	r12
    1e0e:	08 95       	ret

00001e10 <glcd_test_glcdutils>:

/* Test glcd-utils font table type, increments and display a 16-bit number over and over */
#include "fonts/Earthbound_12x19_48to57.h"
void glcd_test_glcdutils(void)
{
    1e10:	8f 92       	push	r8
    1e12:	9f 92       	push	r9
    1e14:	af 92       	push	r10
    1e16:	bf 92       	push	r11
    1e18:	cf 92       	push	r12
    1e1a:	df 92       	push	r13
    1e1c:	ef 92       	push	r14
    1e1e:	0f 93       	push	r16
    1e20:	cf 93       	push	r28
    1e22:	df 93       	push	r29
    1e24:	cd b7       	in	r28, 0x3d	; 61
    1e26:	de b7       	in	r29, 0x3e	; 62
    1e28:	28 97       	sbiw	r28, 0x08	; 8
    1e2a:	0f b6       	in	r0, 0x3f	; 63
    1e2c:	f8 94       	cli
    1e2e:	de bf       	out	0x3e, r29	; 62
    1e30:	0f be       	out	0x3f, r0	; 63
    1e32:	cd bf       	out	0x3d, r28	; 61
	uint16_t count = 0;
	char string[8] = "";
    1e34:	1a 82       	std	Y+2, r1	; 0x02
    1e36:	19 82       	std	Y+1, r1	; 0x01
    1e38:	fe 01       	movw	r30, r28
    1e3a:	33 96       	adiw	r30, 0x03	; 3
    1e3c:	86 e0       	ldi	r24, 0x06	; 6
    1e3e:	df 01       	movw	r26, r30
    1e40:	1d 92       	st	X+, r1
    1e42:	8a 95       	dec	r24
    1e44:	e9 f7       	brne	.-6      	; 0x1e40 <glcd_test_glcdutils+0x30>
	uint16_t count = 0;
    1e46:	d1 2c       	mov	r13, r1
    1e48:	c1 2c       	mov	r12, r1
		glcd_clear_buffer();

		/* Set the font */
		glcd_font(font_Earthbound_12x19_48to57,12,19,48,57,GLCD_UTILS);

		sprintf(string,"%d",count);
    1e4a:	99 e5       	ldi	r25, 0x59	; 89
    1e4c:	89 2e       	mov	r8, r25
    1e4e:	91 e0       	ldi	r25, 0x01	; 1
    1e50:	99 2e       	mov	r9, r25
    1e52:	ce 01       	movw	r24, r28
    1e54:	01 96       	adiw	r24, 0x01	; 1
    1e56:	5c 01       	movw	r10, r24
		glcd_clear_buffer();
    1e58:	0e 94 7f 06 	call	0xcfe	; 0xcfe <glcd_clear_buffer>
		glcd_font(font_Earthbound_12x19_48to57,12,19,48,57,GLCD_UTILS);
    1e5c:	82 e0       	ldi	r24, 0x02	; 2
    1e5e:	e8 2e       	mov	r14, r24
    1e60:	09 e3       	ldi	r16, 0x39	; 57
    1e62:	20 e3       	ldi	r18, 0x30	; 48
    1e64:	43 e1       	ldi	r20, 0x13	; 19
    1e66:	6c e0       	ldi	r22, 0x0C	; 12
    1e68:	88 e4       	ldi	r24, 0x48	; 72
    1e6a:	92 e0       	ldi	r25, 0x02	; 2
    1e6c:	0e 94 e0 08 	call	0x11c0	; 0x11c0 <glcd_font>
		sprintf(string,"%d",count);
    1e70:	df 92       	push	r13
    1e72:	cf 92       	push	r12
    1e74:	9f 92       	push	r9
    1e76:	8f 92       	push	r8
    1e78:	bf 92       	push	r11
    1e7a:	af 92       	push	r10
    1e7c:	0e 94 57 30 	call	0x60ae	; 0x60ae <sprintf>
		glcd_draw_string_xy(0,0,string);
    1e80:	a5 01       	movw	r20, r10
    1e82:	60 e0       	ldi	r22, 0x00	; 0
    1e84:	80 e0       	ldi	r24, 0x00	; 0
    1e86:	0e 94 a5 0a 	call	0x154a	; 0x154a <glcd_draw_string_xy>
		glcd_write();
    1e8a:	0e 94 10 07 	call	0xe20	; 0xe20 <glcd_write>
		
		count += 1;
    1e8e:	9f ef       	ldi	r25, 0xFF	; 255
    1e90:	c9 1a       	sub	r12, r25
    1e92:	d9 0a       	sbc	r13, r25

		DEMO_RETURN();
    1e94:	80 91 d8 01 	lds	r24, 0x01D8	; 0x8001d8 <unit_test_return>
    1e98:	0f 90       	pop	r0
    1e9a:	0f 90       	pop	r0
    1e9c:	0f 90       	pop	r0
    1e9e:	0f 90       	pop	r0
    1ea0:	0f 90       	pop	r0
    1ea2:	0f 90       	pop	r0
    1ea4:	88 23       	and	r24, r24
    1ea6:	c1 f2       	breq	.-80     	; 0x1e58 <glcd_test_glcdutils+0x48>
    1ea8:	10 92 d8 01 	sts	0x01D8, r1	; 0x8001d8 <unit_test_return>
	}
}
    1eac:	28 96       	adiw	r28, 0x08	; 8
    1eae:	0f b6       	in	r0, 0x3f	; 63
    1eb0:	f8 94       	cli
    1eb2:	de bf       	out	0x3e, r29	; 62
    1eb4:	0f be       	out	0x3f, r0	; 63
    1eb6:	cd bf       	out	0x3d, r28	; 61
    1eb8:	df 91       	pop	r29
    1eba:	cf 91       	pop	r28
    1ebc:	0f 91       	pop	r16
    1ebe:	ef 90       	pop	r14
    1ec0:	df 90       	pop	r13
    1ec2:	cf 90       	pop	r12
    1ec4:	bf 90       	pop	r11
    1ec6:	af 90       	pop	r10
    1ec8:	9f 90       	pop	r9
    1eca:	8f 90       	pop	r8
    1ecc:	08 95       	ret

00001ece <glcd_test_text_up_down>:

void glcd_test_text_up_down(void)
{
    1ece:	0f 93       	push	r16
    1ed0:	1f 93       	push	r17
    1ed2:	cf 93       	push	r28
    1ed4:	df 93       	push	r29

	uint8_t y;
	uint8_t max_y;
	
	//glcd_set_font(Liberation_Sans11x14_Numbers,11,14,46,57);
	glcd_set_font(Liberation_Sans15x21_Numbers,15,21,46,57);
    1ed6:	09 e3       	ldi	r16, 0x39	; 57
    1ed8:	2e e2       	ldi	r18, 0x2E	; 46
    1eda:	45 e1       	ldi	r20, 0x15	; 21
    1edc:	6f e0       	ldi	r22, 0x0F	; 15
    1ede:	80 eb       	ldi	r24, 0xB0	; 176
    1ee0:	97 e0       	ldi	r25, 0x07	; 7
    1ee2:	0e 94 d3 08 	call	0x11a6	; 0x11a6 <glcd_set_font>
	//glcd_set_font(Liberation_Sans27x36_Numbers,27,36,46,57);
	//glcd_set_font(Liberation_Sans17x17_Alpha,17,17,46,90);

	max_y = GLCD_LCD_HEIGHT - font_current.height - 2; // max y start position for draw_string
    1ee6:	80 91 05 07 	lds	r24, 0x0705	; 0x800705 <font_current+0x3>
    1eea:	ce e2       	ldi	r28, 0x2E	; 46
    1eec:	c8 1b       	sub	r28, r24
    1eee:	08 ec       	ldi	r16, 0xC8	; 200
    1ef0:	10 e0       	ldi	r17, 0x00	; 0

	while(1) {
		// move top to bottom
		for (y=0; y<max_y; y++) {
    1ef2:	d0 e0       	ldi	r29, 0x00	; 0
    1ef4:	dc 13       	cpse	r29, r28
    1ef6:	1a c0       	rjmp	.+52     	; 0x1f2c <glcd_test_text_up_down+0x5e>
    1ef8:	dc 2f       	mov	r29, r28
			glcd_write();
			delay_ms(80);
		}

		// move bottom to top
		for (y=(max_y); y>0; y--) {
    1efa:	dd 23       	and	r29, r29
    1efc:	d1 f3       	breq	.-12     	; 0x1ef2 <glcd_test_text_up_down+0x24>
			DEMO_RETURN();
    1efe:	80 91 d8 01 	lds	r24, 0x01D8	; 0x8001d8 <unit_test_return>
    1f02:	81 11       	cpse	r24, r1
    1f04:	17 c0       	rjmp	.+46     	; 0x1f34 <glcd_test_text_up_down+0x66>
			glcd_clear_buffer();
    1f06:	0e 94 7f 06 	call	0xcfe	; 0xcfe <glcd_clear_buffer>
			glcd_draw_string_xy(0,y,"456");
    1f0a:	40 e6       	ldi	r20, 0x60	; 96
    1f0c:	51 e0       	ldi	r21, 0x01	; 1
    1f0e:	6d 2f       	mov	r22, r29
    1f10:	80 e0       	ldi	r24, 0x00	; 0
    1f12:	0e 94 a5 0a 	call	0x154a	; 0x154a <glcd_draw_string_xy>
			glcd_write();
    1f16:	0e 94 10 07 	call	0xe20	; 0xe20 <glcd_write>
    1f1a:	80 e2       	ldi	r24, 0x20	; 32
    1f1c:	93 e0       	ldi	r25, 0x03	; 3
    1f1e:	f8 01       	movw	r30, r16
    1f20:	31 97       	sbiw	r30, 0x01	; 1
    1f22:	f1 f7       	brne	.-4      	; 0x1f20 <glcd_test_text_up_down+0x52>
			__ticks --;
    1f24:	01 97       	sbiw	r24, 0x01	; 1
		while(__ticks)
    1f26:	d9 f7       	brne	.-10     	; 0x1f1e <glcd_test_text_up_down+0x50>
		for (y=(max_y); y>0; y--) {
    1f28:	d1 50       	subi	r29, 0x01	; 1
    1f2a:	e7 cf       	rjmp	.-50     	; 0x1efa <glcd_test_text_up_down+0x2c>
			DEMO_RETURN();
    1f2c:	80 91 d8 01 	lds	r24, 0x01D8	; 0x8001d8 <unit_test_return>
    1f30:	88 23       	and	r24, r24
    1f32:	39 f0       	breq	.+14     	; 0x1f42 <glcd_test_text_up_down+0x74>
			DEMO_RETURN();
    1f34:	10 92 d8 01 	sts	0x01D8, r1	; 0x8001d8 <unit_test_return>
			delay_ms(80);
		}
		
	}

}
    1f38:	df 91       	pop	r29
    1f3a:	cf 91       	pop	r28
    1f3c:	1f 91       	pop	r17
    1f3e:	0f 91       	pop	r16
    1f40:	08 95       	ret
			glcd_clear_buffer();
    1f42:	0e 94 7f 06 	call	0xcfe	; 0xcfe <glcd_clear_buffer>
			glcd_draw_string_xy(0,y,"123");
    1f46:	4c e5       	ldi	r20, 0x5C	; 92
    1f48:	51 e0       	ldi	r21, 0x01	; 1
    1f4a:	6d 2f       	mov	r22, r29
    1f4c:	80 e0       	ldi	r24, 0x00	; 0
    1f4e:	0e 94 a5 0a 	call	0x154a	; 0x154a <glcd_draw_string_xy>
			glcd_write();
    1f52:	0e 94 10 07 	call	0xe20	; 0xe20 <glcd_write>
    1f56:	80 e2       	ldi	r24, 0x20	; 32
    1f58:	93 e0       	ldi	r25, 0x03	; 3
    1f5a:	f8 01       	movw	r30, r16
    1f5c:	31 97       	sbiw	r30, 0x01	; 1
    1f5e:	f1 f7       	brne	.-4      	; 0x1f5c <glcd_test_text_up_down+0x8e>
			__ticks --;
    1f60:	01 97       	sbiw	r24, 0x01	; 1
		while(__ticks)
    1f62:	d9 f7       	brne	.-10     	; 0x1f5a <glcd_test_text_up_down+0x8c>
		for (y=0; y<max_y; y++) {
    1f64:	df 5f       	subi	r29, 0xFF	; 255
    1f66:	c6 cf       	rjmp	.-116    	; 0x1ef4 <glcd_test_text_up_down+0x26>

00001f68 <glcd_test_tiny_text>:

void glcd_test_tiny_text(void)
{
    1f68:	cf 92       	push	r12
    1f6a:	df 92       	push	r13
    1f6c:	ef 92       	push	r14
    1f6e:	ff 92       	push	r15
    1f70:	0f 93       	push	r16
    1f72:	1f 93       	push	r17
    1f74:	cf 93       	push	r28
    1f76:	df 93       	push	r29
    1f78:	cd b7       	in	r28, 0x3d	; 61
    1f7a:	de b7       	in	r29, 0x3e	; 62
    1f7c:	2f 97       	sbiw	r28, 0x0f	; 15
    1f7e:	0f b6       	in	r0, 0x3f	; 63
    1f80:	f8 94       	cli
    1f82:	de bf       	out	0x3e, r29	; 62
    1f84:	0f be       	out	0x3f, r0	; 63
    1f86:	cd bf       	out	0x3d, r28	; 61
	char string[GLCD_LCD_WIDTH / 6 + 1];

	uint8_t c = 32;
	uint8_t len = GLCD_LCD_WIDTH / 6;
	
	GLCD_TEXT_INIT();
    1f88:	0f e7       	ldi	r16, 0x7F	; 127
    1f8a:	20 e2       	ldi	r18, 0x20	; 32
    1f8c:	47 e0       	ldi	r20, 0x07	; 7
    1f8e:	65 e0       	ldi	r22, 0x05	; 5
    1f90:	88 ed       	ldi	r24, 0xD8	; 216
    1f92:	99 e0       	ldi	r25, 0x09	; 9
    1f94:	0e 94 37 11 	call	0x226e	; 0x226e <glcd_tiny_set_font>
	uint8_t c = 32;
    1f98:	10 e2       	ldi	r17, 0x20	; 32
    1f9a:	7e 01       	movw	r14, r28
    1f9c:	8f e0       	ldi	r24, 0x0F	; 15
    1f9e:	e8 0e       	add	r14, r24
    1fa0:	f1 1c       	adc	r15, r1
    1fa2:	88 ec       	ldi	r24, 0xC8	; 200
    1fa4:	c8 2e       	mov	r12, r24
    1fa6:	d1 2c       	mov	r13, r1
	
	while(1) {
		// write chars to string from 32 to 127 ASCII
		uint8_t i;
		for (i=0; i<len; i++) {
    1fa8:	fe 01       	movw	r30, r28
    1faa:	31 96       	adiw	r30, 0x01	; 1
    1fac:	cf 01       	movw	r24, r30
			string[i] = c;
    1fae:	11 93       	st	Z+, r17
			c++;
    1fb0:	1f 5f       	subi	r17, 0xFF	; 255
			if (c > 127) {
    1fb2:	17 fd       	sbrc	r17, 7
				c = 32;
    1fb4:	10 e2       	ldi	r17, 0x20	; 32
		for (i=0; i<len; i++) {
    1fb6:	ee 16       	cp	r14, r30
    1fb8:	ff 06       	cpc	r15, r31
    1fba:	c9 f7       	brne	.-14     	; 0x1fae <glcd_test_tiny_text+0x46>
			}
		}

		// write null terminator
		string[len] = '\0';
    1fbc:	1f 86       	std	Y+15, r1	; 0x0f

		GLCD_WRITE(string);
    1fbe:	0e 94 1a 12 	call	0x2434	; 0x2434 <glcd_tiny_draw_string_ammend>
		
		DEMO_RETURN();
    1fc2:	80 91 d8 01 	lds	r24, 0x01D8	; 0x8001d8 <unit_test_return>
    1fc6:	88 23       	and	r24, r24
    1fc8:	89 f0       	breq	.+34     	; 0x1fec <glcd_test_tiny_text+0x84>
    1fca:	10 92 d8 01 	sts	0x01D8, r1	; 0x8001d8 <unit_test_return>
		
		delay_ms(1000);
	}

}
    1fce:	2f 96       	adiw	r28, 0x0f	; 15
    1fd0:	0f b6       	in	r0, 0x3f	; 63
    1fd2:	f8 94       	cli
    1fd4:	de bf       	out	0x3e, r29	; 62
    1fd6:	0f be       	out	0x3f, r0	; 63
    1fd8:	cd bf       	out	0x3d, r28	; 61
    1fda:	df 91       	pop	r29
    1fdc:	cf 91       	pop	r28
    1fde:	1f 91       	pop	r17
    1fe0:	0f 91       	pop	r16
    1fe2:	ff 90       	pop	r15
    1fe4:	ef 90       	pop	r14
    1fe6:	df 90       	pop	r13
    1fe8:	cf 90       	pop	r12
    1fea:	08 95       	ret
    1fec:	80 e1       	ldi	r24, 0x10	; 16
    1fee:	97 e2       	ldi	r25, 0x27	; 39
    1ff0:	f6 01       	movw	r30, r12
    1ff2:	31 97       	sbiw	r30, 0x01	; 1
    1ff4:	f1 f7       	brne	.-4      	; 0x1ff2 <glcd_test_tiny_text+0x8a>
			__ticks --;
    1ff6:	01 97       	sbiw	r24, 0x01	; 1
		while(__ticks)
    1ff8:	d9 f7       	brne	.-10     	; 0x1ff0 <glcd_test_tiny_text+0x88>
    1ffa:	d6 cf       	rjmp	.-84     	; 0x1fa8 <glcd_test_tiny_text+0x40>

00001ffc <glcd_test_hello_world>:

void glcd_test_hello_world(void)
{
    1ffc:	0f 93       	push	r16
	glcd_tiny_set_font(Font5x7,5,7,32,127);
    1ffe:	0f e7       	ldi	r16, 0x7F	; 127
    2000:	20 e2       	ldi	r18, 0x20	; 32
    2002:	47 e0       	ldi	r20, 0x07	; 7
    2004:	65 e0       	ldi	r22, 0x05	; 5
    2006:	88 ed       	ldi	r24, 0xD8	; 216
    2008:	99 e0       	ldi	r25, 0x09	; 9
    200a:	0e 94 37 11 	call	0x226e	; 0x226e <glcd_tiny_set_font>
	glcd_clear_buffer();
    200e:	0e 94 7f 06 	call	0xcfe	; 0xcfe <glcd_clear_buffer>
	glcd_tiny_draw_string(0,0,"Hello World!");
    2012:	44 e6       	ldi	r20, 0x64	; 100
    2014:	51 e0       	ldi	r21, 0x01	; 1
    2016:	60 e0       	ldi	r22, 0x00	; 0
    2018:	80 e0       	ldi	r24, 0x00	; 0
    201a:	0e 94 a8 11 	call	0x2350	; 0x2350 <glcd_tiny_draw_string>
	glcd_write();
    201e:	0e 94 10 07 	call	0xe20	; 0xe20 <glcd_write>
	while(1) {
		DEMO_RETURN();
    2022:	80 91 d8 01 	lds	r24, 0x01D8	; 0x8001d8 <unit_test_return>
    2026:	88 23       	and	r24, r24
    2028:	e1 f3       	breq	.-8      	; 0x2022 <glcd_test_hello_world+0x26>
    202a:	10 92 d8 01 	sts	0x01D8, r1	; 0x8001d8 <unit_test_return>
	}
}
    202e:	0f 91       	pop	r16
    2030:	08 95       	ret

00002032 <glcd_test_rectangles>:

void glcd_test_rectangles(void)
{
    2032:	cf 92       	push	r12
    2034:	ef 92       	push	r14
    2036:	0f 93       	push	r16
    2038:	cf 93       	push	r28
    203a:	df 93       	push	r29
	glcd_tiny_set_font(Font5x7,5,7,32,127);
    203c:	0f e7       	ldi	r16, 0x7F	; 127
    203e:	20 e2       	ldi	r18, 0x20	; 32
    2040:	47 e0       	ldi	r20, 0x07	; 7
    2042:	65 e0       	ldi	r22, 0x05	; 5
    2044:	88 ed       	ldi	r24, 0xD8	; 216
    2046:	99 e0       	ldi	r25, 0x09	; 9
    2048:	0e 94 37 11 	call	0x226e	; 0x226e <glcd_tiny_set_font>
	glcd_clear_buffer();
    204c:	0e 94 7f 06 	call	0xcfe	; 0xcfe <glcd_clear_buffer>
	glcd_tiny_draw_string(0,0,"RECTANGLE DEMO");
    2050:	41 e7       	ldi	r20, 0x71	; 113
    2052:	51 e0       	ldi	r21, 0x01	; 1
    2054:	60 e0       	ldi	r22, 0x00	; 0
    2056:	80 e0       	ldi	r24, 0x00	; 0
    2058:	0e 94 a8 11 	call	0x2350	; 0x2350 <glcd_tiny_draw_string>
	glcd_write();
    205c:	0e 94 10 07 	call	0xe20	; 0xe20 <glcd_write>
    2060:	80 ed       	ldi	r24, 0xD0	; 208
    2062:	97 e0       	ldi	r25, 0x07	; 7
    2064:	28 ec       	ldi	r18, 0xC8	; 200
    2066:	30 e0       	ldi	r19, 0x00	; 0
    2068:	f9 01       	movw	r30, r18
    206a:	31 97       	sbiw	r30, 0x01	; 1
    206c:	f1 f7       	brne	.-4      	; 0x206a <glcd_test_rectangles+0x38>
			__ticks --;
    206e:	01 97       	sbiw	r24, 0x01	; 1
		while(__ticks)
    2070:	d9 f7       	brne	.-10     	; 0x2068 <glcd_test_rectangles+0x36>
    2072:	c8 ec       	ldi	r28, 0xC8	; 200
    2074:	d0 e0       	ldi	r29, 0x00	; 0
	delay_ms(200);
	
	while(1) {
		
		glcd_clear();
    2076:	0e 94 6b 06 	call	0xcd6	; 0xcd6 <glcd_clear>
		glcd_draw_rect(0,0,100,50,BLACK);
    207a:	01 e0       	ldi	r16, 0x01	; 1
    207c:	22 e3       	ldi	r18, 0x32	; 50
    207e:	44 e6       	ldi	r20, 0x64	; 100
    2080:	60 e0       	ldi	r22, 0x00	; 0
    2082:	80 e0       	ldi	r24, 0x00	; 0
    2084:	0e 94 07 0c 	call	0x180e	; 0x180e <glcd_draw_rect>
		glcd_tiny_draw_string(0,GLCD_NUMBER_OF_BANKS-1,"glcd_draw_rect");
    2088:	40 e8       	ldi	r20, 0x80	; 128
    208a:	51 e0       	ldi	r21, 0x01	; 1
    208c:	69 e0       	ldi	r22, 0x09	; 9
    208e:	80 e0       	ldi	r24, 0x00	; 0
    2090:	0e 94 a8 11 	call	0x2350	; 0x2350 <glcd_tiny_draw_string>
		glcd_write();
    2094:	0e 94 10 07 	call	0xe20	; 0xe20 <glcd_write>
    2098:	88 e8       	ldi	r24, 0x88	; 136
    209a:	93 e1       	ldi	r25, 0x13	; 19
    209c:	fe 01       	movw	r30, r28
    209e:	31 97       	sbiw	r30, 0x01	; 1
    20a0:	f1 f7       	brne	.-4      	; 0x209e <glcd_test_rectangles+0x6c>
			__ticks --;
    20a2:	01 97       	sbiw	r24, 0x01	; 1
		while(__ticks)
    20a4:	d9 f7       	brne	.-10     	; 0x209c <glcd_test_rectangles+0x6a>
		delay_ms(500);
		DEMO_RETURN();
    20a6:	80 91 d8 01 	lds	r24, 0x01D8	; 0x8001d8 <unit_test_return>
    20aa:	88 23       	and	r24, r24
    20ac:	41 f0       	breq	.+16     	; 0x20be <glcd_test_rectangles+0x8c>
		DEMO_RETURN();
		
		glcd_draw_rect_shadow(95,5,30,30,BLACK);
		glcd_write();
		delay_ms(500);
		DEMO_RETURN();
    20ae:	10 92 d8 01 	sts	0x01D8, r1	; 0x8001d8 <unit_test_return>
		
	}
	
}
    20b2:	df 91       	pop	r29
    20b4:	cf 91       	pop	r28
    20b6:	0f 91       	pop	r16
    20b8:	ef 90       	pop	r14
    20ba:	cf 90       	pop	r12
    20bc:	08 95       	ret
		glcd_clear();
    20be:	0e 94 6b 06 	call	0xcd6	; 0xcd6 <glcd_clear>
		glcd_tiny_draw_string(0,GLCD_NUMBER_OF_BANKS-1,"glcd_draw_rect_thick");
    20c2:	4f e8       	ldi	r20, 0x8F	; 143
    20c4:	51 e0       	ldi	r21, 0x01	; 1
    20c6:	69 e0       	ldi	r22, 0x09	; 9
    20c8:	80 e0       	ldi	r24, 0x00	; 0
    20ca:	0e 94 a8 11 	call	0x2350	; 0x2350 <glcd_tiny_draw_string>
		glcd_write();
    20ce:	0e 94 10 07 	call	0xe20	; 0xe20 <glcd_write>
		glcd_draw_rect_thick(5,5,80,30,3,6,BLACK);
    20d2:	cc 24       	eor	r12, r12
    20d4:	c3 94       	inc	r12
    20d6:	26 e0       	ldi	r18, 0x06	; 6
    20d8:	e2 2e       	mov	r14, r18
    20da:	03 e0       	ldi	r16, 0x03	; 3
    20dc:	2e e1       	ldi	r18, 0x1E	; 30
    20de:	40 e5       	ldi	r20, 0x50	; 80
    20e0:	65 e0       	ldi	r22, 0x05	; 5
    20e2:	85 e0       	ldi	r24, 0x05	; 5
    20e4:	0e 94 59 0c 	call	0x18b2	; 0x18b2 <glcd_draw_rect_thick>
		glcd_write();
    20e8:	0e 94 10 07 	call	0xe20	; 0xe20 <glcd_write>
    20ec:	88 e8       	ldi	r24, 0x88	; 136
    20ee:	93 e1       	ldi	r25, 0x13	; 19
    20f0:	fe 01       	movw	r30, r28
    20f2:	31 97       	sbiw	r30, 0x01	; 1
    20f4:	f1 f7       	brne	.-4      	; 0x20f2 <glcd_test_rectangles+0xc0>
			__ticks --;
    20f6:	01 97       	sbiw	r24, 0x01	; 1
		while(__ticks)
    20f8:	d9 f7       	brne	.-10     	; 0x20f0 <glcd_test_rectangles+0xbe>
		DEMO_RETURN();
    20fa:	80 91 d8 01 	lds	r24, 0x01D8	; 0x8001d8 <unit_test_return>
    20fe:	81 11       	cpse	r24, r1
    2100:	d6 cf       	rjmp	.-84     	; 0x20ae <glcd_test_rectangles+0x7c>
		glcd_draw_rect_thick(0,0,20,20,2,2,BLACK);
    2102:	cc 24       	eor	r12, r12
    2104:	c3 94       	inc	r12
    2106:	92 e0       	ldi	r25, 0x02	; 2
    2108:	e9 2e       	mov	r14, r25
    210a:	02 e0       	ldi	r16, 0x02	; 2
    210c:	24 e1       	ldi	r18, 0x14	; 20
    210e:	44 e1       	ldi	r20, 0x14	; 20
    2110:	60 e0       	ldi	r22, 0x00	; 0
    2112:	80 e0       	ldi	r24, 0x00	; 0
    2114:	0e 94 59 0c 	call	0x18b2	; 0x18b2 <glcd_draw_rect_thick>
		glcd_write();
    2118:	0e 94 10 07 	call	0xe20	; 0xe20 <glcd_write>
    211c:	88 e8       	ldi	r24, 0x88	; 136
    211e:	93 e1       	ldi	r25, 0x13	; 19
    2120:	fe 01       	movw	r30, r28
    2122:	31 97       	sbiw	r30, 0x01	; 1
    2124:	f1 f7       	brne	.-4      	; 0x2122 <glcd_test_rectangles+0xf0>
			__ticks --;
    2126:	01 97       	sbiw	r24, 0x01	; 1
		while(__ticks)
    2128:	d9 f7       	brne	.-10     	; 0x2120 <glcd_test_rectangles+0xee>
		DEMO_RETURN();
    212a:	80 91 d8 01 	lds	r24, 0x01D8	; 0x8001d8 <unit_test_return>
    212e:	81 11       	cpse	r24, r1
    2130:	be cf       	rjmp	.-132    	; 0x20ae <glcd_test_rectangles+0x7c>
		glcd_draw_rect_thick(100,10,20,20,5,5,BLACK);
    2132:	cc 24       	eor	r12, r12
    2134:	c3 94       	inc	r12
    2136:	85 e0       	ldi	r24, 0x05	; 5
    2138:	e8 2e       	mov	r14, r24
    213a:	05 e0       	ldi	r16, 0x05	; 5
    213c:	24 e1       	ldi	r18, 0x14	; 20
    213e:	44 e1       	ldi	r20, 0x14	; 20
    2140:	6a e0       	ldi	r22, 0x0A	; 10
    2142:	84 e6       	ldi	r24, 0x64	; 100
    2144:	0e 94 59 0c 	call	0x18b2	; 0x18b2 <glcd_draw_rect_thick>
		glcd_write();
    2148:	0e 94 10 07 	call	0xe20	; 0xe20 <glcd_write>
    214c:	88 e8       	ldi	r24, 0x88	; 136
    214e:	93 e1       	ldi	r25, 0x13	; 19
    2150:	fe 01       	movw	r30, r28
    2152:	31 97       	sbiw	r30, 0x01	; 1
    2154:	f1 f7       	brne	.-4      	; 0x2152 <glcd_test_rectangles+0x120>
			__ticks --;
    2156:	01 97       	sbiw	r24, 0x01	; 1
		while(__ticks)
    2158:	d9 f7       	brne	.-10     	; 0x2150 <glcd_test_rectangles+0x11e>
		DEMO_RETURN();
    215a:	80 91 d8 01 	lds	r24, 0x01D8	; 0x8001d8 <unit_test_return>
    215e:	81 11       	cpse	r24, r1
    2160:	a6 cf       	rjmp	.-180    	; 0x20ae <glcd_test_rectangles+0x7c>
		glcd_clear();
    2162:	0e 94 6b 06 	call	0xcd6	; 0xcd6 <glcd_clear>
		glcd_tiny_draw_string(0,GLCD_NUMBER_OF_BANKS-1,"glcd_draw_rect_shadow");
    2166:	44 ea       	ldi	r20, 0xA4	; 164
    2168:	51 e0       	ldi	r21, 0x01	; 1
    216a:	69 e0       	ldi	r22, 0x09	; 9
    216c:	80 e0       	ldi	r24, 0x00	; 0
    216e:	0e 94 a8 11 	call	0x2350	; 0x2350 <glcd_tiny_draw_string>
		glcd_draw_rect_shadow(0,0,45,30,BLACK);
    2172:	01 e0       	ldi	r16, 0x01	; 1
    2174:	2e e1       	ldi	r18, 0x1E	; 30
    2176:	4d e2       	ldi	r20, 0x2D	; 45
    2178:	60 e0       	ldi	r22, 0x00	; 0
    217a:	80 e0       	ldi	r24, 0x00	; 0
    217c:	0e 94 c9 0c 	call	0x1992	; 0x1992 <glcd_draw_rect_shadow>
		glcd_write();
    2180:	0e 94 10 07 	call	0xe20	; 0xe20 <glcd_write>
    2184:	88 e8       	ldi	r24, 0x88	; 136
    2186:	93 e1       	ldi	r25, 0x13	; 19
    2188:	fe 01       	movw	r30, r28
    218a:	31 97       	sbiw	r30, 0x01	; 1
    218c:	f1 f7       	brne	.-4      	; 0x218a <glcd_test_rectangles+0x158>
			__ticks --;
    218e:	01 97       	sbiw	r24, 0x01	; 1
		while(__ticks)
    2190:	d9 f7       	brne	.-10     	; 0x2188 <glcd_test_rectangles+0x156>
		DEMO_RETURN();
    2192:	80 91 d8 01 	lds	r24, 0x01D8	; 0x8001d8 <unit_test_return>
    2196:	81 11       	cpse	r24, r1
    2198:	8a cf       	rjmp	.-236    	; 0x20ae <glcd_test_rectangles+0x7c>
		glcd_draw_rect_shadow(95,5,30,30,BLACK);
    219a:	01 e0       	ldi	r16, 0x01	; 1
    219c:	2e e1       	ldi	r18, 0x1E	; 30
    219e:	4e e1       	ldi	r20, 0x1E	; 30
    21a0:	65 e0       	ldi	r22, 0x05	; 5
    21a2:	8f e5       	ldi	r24, 0x5F	; 95
    21a4:	0e 94 c9 0c 	call	0x1992	; 0x1992 <glcd_draw_rect_shadow>
		glcd_write();
    21a8:	0e 94 10 07 	call	0xe20	; 0xe20 <glcd_write>
    21ac:	88 e8       	ldi	r24, 0x88	; 136
    21ae:	93 e1       	ldi	r25, 0x13	; 19
    21b0:	fe 01       	movw	r30, r28
    21b2:	31 97       	sbiw	r30, 0x01	; 1
    21b4:	f1 f7       	brne	.-4      	; 0x21b2 <glcd_test_rectangles+0x180>
			__ticks --;
    21b6:	01 97       	sbiw	r24, 0x01	; 1
		while(__ticks)
    21b8:	d9 f7       	brne	.-10     	; 0x21b0 <glcd_test_rectangles+0x17e>
		DEMO_RETURN();
    21ba:	80 91 d8 01 	lds	r24, 0x01D8	; 0x8001d8 <unit_test_return>
    21be:	88 23       	and	r24, r24
    21c0:	09 f4       	brne	.+2      	; 0x21c4 <glcd_test_rectangles+0x192>
    21c2:	59 cf       	rjmp	.-334    	; 0x2076 <glcd_test_rectangles+0x44>
    21c4:	74 cf       	rjmp	.-280    	; 0x20ae <glcd_test_rectangles+0x7c>

000021c6 <glcd_test_scrolling_graph>:

void glcd_test_scrolling_graph(void)
{
    21c6:	0f 93       	push	r16
    21c8:	cf 93       	push	r28
    21ca:	df 93       	push	r29
	glcd_clear();
    21cc:	0e 94 6b 06 	call	0xcd6	; 0xcd6 <glcd_clear>
	glcd_write();
    21d0:	0e 94 10 07 	call	0xe20	; 0xe20 <glcd_write>
{
    21d4:	c0 e0       	ldi	r28, 0x00	; 0
	while(1) {
		uint16_t n;
		for (n=0; n<=255; n += 20) {
			glcd_scrolling_bar_graph(0,0,50,50,n);
    21d6:	0c 2f       	mov	r16, r28
    21d8:	22 e3       	ldi	r18, 0x32	; 50
    21da:	42 e3       	ldi	r20, 0x32	; 50
    21dc:	60 e0       	ldi	r22, 0x00	; 0
    21de:	80 e0       	ldi	r24, 0x00	; 0
    21e0:	0e 94 e7 07 	call	0xfce	; 0xfce <glcd_scrolling_bar_graph>
			glcd_scrolling_bar_graph(60,0,50,30,n);
    21e4:	2e e1       	ldi	r18, 0x1E	; 30
    21e6:	42 e3       	ldi	r20, 0x32	; 50
    21e8:	60 e0       	ldi	r22, 0x00	; 0
    21ea:	8c e3       	ldi	r24, 0x3C	; 60
    21ec:	0e 94 e7 07 	call	0xfce	; 0xfce <glcd_scrolling_bar_graph>
			glcd_scrolling_bar_graph(60,35,60,20,n);
    21f0:	24 e1       	ldi	r18, 0x14	; 20
    21f2:	4c e3       	ldi	r20, 0x3C	; 60
    21f4:	63 e2       	ldi	r22, 0x23	; 35
    21f6:	8c e3       	ldi	r24, 0x3C	; 60
    21f8:	0e 94 e7 07 	call	0xfce	; 0xfce <glcd_scrolling_bar_graph>
			DEMO_RETURN();
    21fc:	80 91 d8 01 	lds	r24, 0x01D8	; 0x8001d8 <unit_test_return>
    2200:	88 23       	and	r24, r24
    2202:	31 f0       	breq	.+12     	; 0x2210 <glcd_test_scrolling_graph+0x4a>
		}
		for (n=0; n<=255; n += 20) {
			glcd_scrolling_bar_graph(0,0,50,50,255-n);
			glcd_scrolling_bar_graph(60,0,50,30,n);
			glcd_scrolling_bar_graph(60,35,60,20,n);
			DEMO_RETURN();
    2204:	10 92 d8 01 	sts	0x01D8, r1	; 0x8001d8 <unit_test_return>
		}
	}	
}
    2208:	df 91       	pop	r29
    220a:	cf 91       	pop	r28
    220c:	0f 91       	pop	r16
    220e:	08 95       	ret
			DEMO_RETURN();
    2210:	cc 5e       	subi	r28, 0xEC	; 236
		for (n=0; n<=255; n += 20) {
    2212:	c4 30       	cpi	r28, 0x04	; 4
    2214:	01 f7       	brne	.-64     	; 0x21d6 <glcd_test_scrolling_graph+0x10>
    2216:	cf ef       	ldi	r28, 0xFF	; 255
			glcd_scrolling_bar_graph(0,0,50,50,255-n);
    2218:	0c 2f       	mov	r16, r28
    221a:	22 e3       	ldi	r18, 0x32	; 50
    221c:	42 e3       	ldi	r20, 0x32	; 50
    221e:	60 e0       	ldi	r22, 0x00	; 0
    2220:	80 e0       	ldi	r24, 0x00	; 0
    2222:	0e 94 e7 07 	call	0xfce	; 0xfce <glcd_scrolling_bar_graph>
			glcd_scrolling_bar_graph(60,0,50,30,n);
    2226:	dc 2f       	mov	r29, r28
    2228:	d0 95       	com	r29
    222a:	0d 2f       	mov	r16, r29
    222c:	2e e1       	ldi	r18, 0x1E	; 30
    222e:	42 e3       	ldi	r20, 0x32	; 50
    2230:	60 e0       	ldi	r22, 0x00	; 0
    2232:	8c e3       	ldi	r24, 0x3C	; 60
    2234:	0e 94 e7 07 	call	0xfce	; 0xfce <glcd_scrolling_bar_graph>
			glcd_scrolling_bar_graph(60,35,60,20,n);
    2238:	24 e1       	ldi	r18, 0x14	; 20
    223a:	4c e3       	ldi	r20, 0x3C	; 60
    223c:	63 e2       	ldi	r22, 0x23	; 35
    223e:	8c e3       	ldi	r24, 0x3C	; 60
    2240:	0e 94 e7 07 	call	0xfce	; 0xfce <glcd_scrolling_bar_graph>
			DEMO_RETURN();
    2244:	80 91 d8 01 	lds	r24, 0x01D8	; 0x8001d8 <unit_test_return>
    2248:	81 11       	cpse	r24, r1
    224a:	dc cf       	rjmp	.-72     	; 0x2204 <glcd_test_scrolling_graph+0x3e>
    224c:	c4 51       	subi	r28, 0x14	; 20
		for (n=0; n<=255; n += 20) {
    224e:	cb 3f       	cpi	r28, 0xFB	; 251
    2250:	19 f7       	brne	.-58     	; 0x2218 <glcd_test_scrolling_graph+0x52>
    2252:	c0 cf       	rjmp	.-128    	; 0x21d4 <glcd_test_scrolling_graph+0xe>

00002254 <glcd_test_bitmap_128x64>:

#if defined (GLCD_UNIT_TEST_BITMAP_ENABLE)
void glcd_test_bitmap_128x64(void)
{
	glcd_draw_bitmap(bmp_oslogo);
    2254:	80 eb       	ldi	r24, 0xB0	; 176
    2256:	93 e0       	ldi	r25, 0x03	; 3
    2258:	0e 94 31 0e 	call	0x1c62	; 0x1c62 <glcd_draw_bitmap>
	glcd_write();	
    225c:	0e 94 10 07 	call	0xe20	; 0xe20 <glcd_write>
	while (1) {
		DEMO_RETURN();
    2260:	80 91 d8 01 	lds	r24, 0x01D8	; 0x8001d8 <unit_test_return>
    2264:	88 23       	and	r24, r24
    2266:	e1 f3       	breq	.-8      	; 0x2260 <glcd_test_bitmap_128x64+0xc>
    2268:	10 92 d8 01 	sts	0x01D8, r1	; 0x8001d8 <unit_test_return>
	}
}
    226c:	08 95       	ret

0000226e <glcd_tiny_set_font>:
#if defined(GLCD_DEVICE_AVR8)
void glcd_tiny_set_font(PGM_P font_table, uint8_t width, uint8_t height, char start_char, char end_char)
#else
void glcd_tiny_set_font(const char * font_table, uint8_t width, uint8_t height, char start_char, char end_char)
#endif
{
    226e:	0f 93       	push	r16
	font_current.font_table = font_table;
    2270:	e2 e0       	ldi	r30, 0x02	; 2
    2272:	f7 e0       	ldi	r31, 0x07	; 7
    2274:	91 83       	std	Z+1, r25	; 0x01
    2276:	80 83       	st	Z, r24
	font_current.width = width;
    2278:	62 83       	std	Z+2, r22	; 0x02
	font_current.height = height;
    227a:	43 83       	std	Z+3, r20	; 0x03
	font_current.start_char = start_char;
    227c:	24 83       	std	Z+4, r18	; 0x04
	font_current.end_char = end_char;
    227e:	05 83       	std	Z+5, r16	; 0x05
	font_current.table_type = STANG;
    2280:	16 82       	std	Z+6, r1	; 0x06
}
    2282:	0f 91       	pop	r16
    2284:	08 95       	ret

00002286 <glcd_tiny_draw_char>:

void glcd_tiny_draw_char(uint8_t x, uint8_t line, char c)
{
    2286:	1f 93       	push	r17
    2288:	cf 93       	push	r28
    228a:	df 93       	push	r29
    228c:	d8 2f       	mov	r29, r24
    228e:	16 2f       	mov	r17, r22
    2290:	c4 2f       	mov	r28, r20
	uint8_t i;
	
	/* Only works for fonts < 8 bits in height */
	if (font_current.height >= 8) {
    2292:	20 91 05 07 	lds	r18, 0x0705	; 0x800705 <font_current+0x3>
    2296:	28 30       	cpi	r18, 0x08	; 8
    2298:	b0 f5       	brcc	.+108    	; 0x2306 <glcd_tiny_draw_char+0x80>
		return;
	}
	if (c < font_current.start_char || c > font_current.end_char) {
    229a:	80 91 06 07 	lds	r24, 0x0706	; 0x800706 <font_current+0x4>
    229e:	48 17       	cp	r20, r24
    22a0:	20 f0       	brcs	.+8      	; 0x22aa <glcd_tiny_draw_char+0x24>
    22a2:	80 91 07 07 	lds	r24, 0x0707	; 0x800707 <font_current+0x5>
    22a6:	84 17       	cp	r24, r20
    22a8:	08 f4       	brcc	.+2      	; 0x22ac <glcd_tiny_draw_char+0x26>
		c = '.';
    22aa:	ce e2       	ldi	r28, 0x2E	; 46
	}
	if ( line >= GLCD_LCD_HEIGHT / (font_current.height + 1) ) {
    22ac:	62 2f       	mov	r22, r18
    22ae:	70 e0       	ldi	r23, 0x00	; 0
    22b0:	6f 5f       	subi	r22, 0xFF	; 255
    22b2:	7f 4f       	sbci	r23, 0xFF	; 255
    22b4:	80 e3       	ldi	r24, 0x30	; 48
    22b6:	90 e0       	ldi	r25, 0x00	; 0
    22b8:	0e 94 48 2f 	call	0x5e90	; 0x5e90 <__divmodhi4>
    22bc:	16 17       	cp	r17, r22
    22be:	17 06       	cpc	r1, r23
    22c0:	14 f5       	brge	.+68     	; 0x2306 <glcd_tiny_draw_char+0x80>
		return;
	}		
	if ( (x+font_current.width) >= GLCD_LCD_WIDTH ) {
    22c2:	40 91 04 07 	lds	r20, 0x0704	; 0x800704 <font_current+0x2>
    22c6:	6d 2f       	mov	r22, r29
    22c8:	64 0f       	add	r22, r20
    22ca:	77 27       	eor	r23, r23
    22cc:	77 1f       	adc	r23, r23
    22ce:	64 35       	cpi	r22, 0x54	; 84
    22d0:	71 05       	cpc	r23, r1
    22d2:	cc f4       	brge	.+50     	; 0x2306 <glcd_tiny_draw_char+0x80>
		return;
	}		
	
	glcd_update_bbox(x, line*(font_current.height + 1), x+font_current.width, line*(font_current.height + 1) + (font_current.height + 1));
    22d4:	81 e0       	ldi	r24, 0x01	; 1
    22d6:	82 0f       	add	r24, r18
    22d8:	28 2f       	mov	r18, r24
    22da:	18 9f       	mul	r17, r24
    22dc:	20 0d       	add	r18, r0
    22de:	11 24       	eor	r1, r1
    22e0:	4d 0f       	add	r20, r29
    22e2:	62 2f       	mov	r22, r18
    22e4:	68 1b       	sub	r22, r24
    22e6:	8d 2f       	mov	r24, r29
    22e8:	0e 94 32 06 	call	0xc64	; 0xc64 <glcd_update_bbox>
	
	for ( i = 0; i < font_current.width; i++ ) {
#if defined(GLCD_DEVICE_AVR8)		
		glcd_buffer_selected[x + (line * GLCD_LCD_WIDTH)] = pgm_read_byte( font_current.font_table + ((c - font_current.start_char) * (font_current.width)) + i );
    22ec:	84 e5       	ldi	r24, 0x54	; 84
    22ee:	18 9f       	mul	r17, r24
    22f0:	b0 01       	movw	r22, r0
    22f2:	11 24       	eor	r1, r1
	for ( i = 0; i < font_current.width; i++ ) {
    22f4:	80 e0       	ldi	r24, 0x00	; 0
		glcd_buffer_selected[x + (line * GLCD_LCD_WIDTH)] = pgm_read_byte( font_current.font_table + ((c - font_current.start_char) * (font_current.width)) + i );
    22f6:	4c 2f       	mov	r20, r28
    22f8:	50 e0       	ldi	r21, 0x00	; 0
    22fa:	a8 2f       	mov	r26, r24
    22fc:	ad 0f       	add	r26, r29
	for ( i = 0; i < font_current.width; i++ ) {
    22fe:	90 91 04 07 	lds	r25, 0x0704	; 0x800704 <font_current+0x2>
    2302:	89 17       	cp	r24, r25
    2304:	20 f0       	brcs	.+8      	; 0x230e <glcd_tiny_draw_char+0x88>
#else
		glcd_buffer_selected[x + (line * GLCD_LCD_WIDTH)] = *( font_current.font_table + ((c - font_current.start_char) * (font_current.width)) + i );
#endif
		x++;
	}
}
    2306:	df 91       	pop	r29
    2308:	cf 91       	pop	r28
    230a:	1f 91       	pop	r17
    230c:	08 95       	ret
		glcd_buffer_selected[x + (line * GLCD_LCD_WIDTH)] = pgm_read_byte( font_current.font_table + ((c - font_current.start_char) * (font_current.width)) + i );
    230e:	20 91 06 07 	lds	r18, 0x0706	; 0x800706 <font_current+0x4>
    2312:	fa 01       	movw	r30, r20
    2314:	e2 1b       	sub	r30, r18
    2316:	f1 09       	sbc	r31, r1
    2318:	9f 01       	movw	r18, r30
    231a:	92 9f       	mul	r25, r18
    231c:	f0 01       	movw	r30, r0
    231e:	93 9f       	mul	r25, r19
    2320:	f0 0d       	add	r31, r0
    2322:	11 24       	eor	r1, r1
    2324:	9f 01       	movw	r18, r30
    2326:	28 0f       	add	r18, r24
    2328:	31 1d       	adc	r19, r1
    232a:	e0 91 02 07 	lds	r30, 0x0702	; 0x800702 <font_current>
    232e:	f0 91 03 07 	lds	r31, 0x0703	; 0x800703 <font_current+0x1>
    2332:	e2 0f       	add	r30, r18
    2334:	f3 1f       	adc	r31, r19
    2336:	e4 91       	lpm	r30, Z
    2338:	20 91 fe 06 	lds	r18, 0x06FE	; 0x8006fe <glcd_buffer_selected>
    233c:	30 91 ff 06 	lds	r19, 0x06FF	; 0x8006ff <glcd_buffer_selected+0x1>
    2340:	26 0f       	add	r18, r22
    2342:	37 1f       	adc	r19, r23
    2344:	a2 0f       	add	r26, r18
    2346:	b3 2f       	mov	r27, r19
    2348:	b1 1d       	adc	r27, r1
    234a:	ec 93       	st	X, r30
	for ( i = 0; i < font_current.width; i++ ) {
    234c:	8f 5f       	subi	r24, 0xFF	; 255
    234e:	d5 cf       	rjmp	.-86     	; 0x22fa <glcd_tiny_draw_char+0x74>

00002350 <glcd_tiny_draw_string>:

void glcd_tiny_draw_string(uint8_t x, uint8_t line, char *str)
{
    2350:	ef 92       	push	r14
    2352:	ff 92       	push	r15
    2354:	0f 93       	push	r16
    2356:	1f 93       	push	r17
    2358:	cf 93       	push	r28
    235a:	df 93       	push	r29
    235c:	c8 2f       	mov	r28, r24
    235e:	d6 2f       	mov	r29, r22
	if (font_current.height >= 8) {
    2360:	80 91 05 07 	lds	r24, 0x0705	; 0x800705 <font_current+0x3>
    2364:	88 30       	cpi	r24, 0x08	; 8
    2366:	30 f5       	brcc	.+76     	; 0x23b4 <glcd_tiny_draw_string+0x64>
    2368:	8a 01       	movw	r16, r20
		x += (font_current.width + 1);
		if ((x + font_current.width + 1) > GLCD_LCD_WIDTH) {
			x = 0; /* Ran out of this line */
			line++;
		}
		if (line >= (GLCD_LCD_HEIGHT/(font_current.height + 1)))
    236a:	80 e3       	ldi	r24, 0x30	; 48
    236c:	e8 2e       	mov	r14, r24
    236e:	f1 2c       	mov	r15, r1
	while (*str) {
    2370:	f8 01       	movw	r30, r16
    2372:	41 91       	ld	r20, Z+
    2374:	8f 01       	movw	r16, r30
    2376:	44 23       	and	r20, r20
    2378:	e9 f0       	breq	.+58     	; 0x23b4 <glcd_tiny_draw_string+0x64>
		glcd_tiny_draw_char(x, line, *str++);
    237a:	6d 2f       	mov	r22, r29
    237c:	8c 2f       	mov	r24, r28
    237e:	0e 94 43 11 	call	0x2286	; 0x2286 <glcd_tiny_draw_char>
		x += (font_current.width + 1);
    2382:	80 91 04 07 	lds	r24, 0x0704	; 0x800704 <font_current+0x2>
    2386:	91 e0       	ldi	r25, 0x01	; 1
    2388:	98 0f       	add	r25, r24
    238a:	c9 0f       	add	r28, r25
		if ((x + font_current.width + 1) > GLCD_LCD_WIDTH) {
    238c:	2c 2f       	mov	r18, r28
    238e:	28 0f       	add	r18, r24
    2390:	33 27       	eor	r19, r19
    2392:	33 1f       	adc	r19, r19
    2394:	24 35       	cpi	r18, 0x54	; 84
    2396:	31 05       	cpc	r19, r1
    2398:	14 f0       	brlt	.+4      	; 0x239e <glcd_tiny_draw_string+0x4e>
			line++;
    239a:	df 5f       	subi	r29, 0xFF	; 255
			x = 0; /* Ran out of this line */
    239c:	c0 e0       	ldi	r28, 0x00	; 0
		if (line >= (GLCD_LCD_HEIGHT/(font_current.height + 1)))
    239e:	60 91 05 07 	lds	r22, 0x0705	; 0x800705 <font_current+0x3>
    23a2:	70 e0       	ldi	r23, 0x00	; 0
    23a4:	6f 5f       	subi	r22, 0xFF	; 255
    23a6:	7f 4f       	sbci	r23, 0xFF	; 255
    23a8:	c7 01       	movw	r24, r14
    23aa:	0e 94 48 2f 	call	0x5e90	; 0x5e90 <__divmodhi4>
    23ae:	d6 17       	cp	r29, r22
    23b0:	17 06       	cpc	r1, r23
    23b2:	f4 f2       	brlt	.-68     	; 0x2370 <glcd_tiny_draw_string+0x20>
			return; /* Ran out of space :( */
	}
}
    23b4:	df 91       	pop	r29
    23b6:	cf 91       	pop	r28
    23b8:	1f 91       	pop	r17
    23ba:	0f 91       	pop	r16
    23bc:	ff 90       	pop	r15
    23be:	ef 90       	pop	r14
    23c0:	08 95       	ret

000023c2 <glcd_tiny_draw_string_P>:
#if defined(GLCD_DEVICE_AVR8)
void glcd_tiny_draw_string_P(uint8_t x, uint8_t line, PGM_P str)
#else
void glcd_tiny_draw_string_P(uint8_t x, uint8_t line, const char *str)
#endif
{
    23c2:	ef 92       	push	r14
    23c4:	ff 92       	push	r15
    23c6:	0f 93       	push	r16
    23c8:	1f 93       	push	r17
    23ca:	cf 93       	push	r28
    23cc:	df 93       	push	r29
    23ce:	18 2f       	mov	r17, r24
    23d0:	06 2f       	mov	r16, r22
	if (font_current.height >= 8) {
    23d2:	80 91 05 07 	lds	r24, 0x0705	; 0x800705 <font_current+0x3>
    23d6:	88 30       	cpi	r24, 0x08	; 8
    23d8:	30 f5       	brcc	.+76     	; 0x2426 <glcd_tiny_draw_string_P+0x64>
    23da:	ea 01       	movw	r28, r20
		x += (font_current.width + 1);
		if ((x + font_current.width + 1) > GLCD_LCD_WIDTH) {
			x = 0; /* Ran out of this line */
			line++;
		}
		if (line >= (GLCD_LCD_HEIGHT/(font_current.height + 1)))
    23dc:	80 e3       	ldi	r24, 0x30	; 48
    23de:	e8 2e       	mov	r14, r24
    23e0:	f1 2c       	mov	r15, r1
		char c = pgm_read_byte(str++);
    23e2:	fe 01       	movw	r30, r28
    23e4:	44 91       	lpm	r20, Z
		if (!c)
    23e6:	44 23       	and	r20, r20
    23e8:	f1 f0       	breq	.+60     	; 0x2426 <glcd_tiny_draw_string_P+0x64>
		glcd_tiny_draw_char(x, line, c);
    23ea:	60 2f       	mov	r22, r16
    23ec:	81 2f       	mov	r24, r17
    23ee:	0e 94 43 11 	call	0x2286	; 0x2286 <glcd_tiny_draw_char>
		x += (font_current.width + 1);
    23f2:	80 91 04 07 	lds	r24, 0x0704	; 0x800704 <font_current+0x2>
    23f6:	91 e0       	ldi	r25, 0x01	; 1
    23f8:	98 0f       	add	r25, r24
    23fa:	19 0f       	add	r17, r25
		if ((x + font_current.width + 1) > GLCD_LCD_WIDTH) {
    23fc:	21 2f       	mov	r18, r17
    23fe:	28 0f       	add	r18, r24
    2400:	33 27       	eor	r19, r19
    2402:	33 1f       	adc	r19, r19
    2404:	24 35       	cpi	r18, 0x54	; 84
    2406:	31 05       	cpc	r19, r1
    2408:	14 f0       	brlt	.+4      	; 0x240e <glcd_tiny_draw_string_P+0x4c>
			line++;
    240a:	0f 5f       	subi	r16, 0xFF	; 255
			x = 0; /* Ran out of this line */
    240c:	10 e0       	ldi	r17, 0x00	; 0
		if (line >= (GLCD_LCD_HEIGHT/(font_current.height + 1)))
    240e:	21 96       	adiw	r28, 0x01	; 1
    2410:	60 91 05 07 	lds	r22, 0x0705	; 0x800705 <font_current+0x3>
    2414:	70 e0       	ldi	r23, 0x00	; 0
    2416:	6f 5f       	subi	r22, 0xFF	; 255
    2418:	7f 4f       	sbci	r23, 0xFF	; 255
    241a:	c7 01       	movw	r24, r14
    241c:	0e 94 48 2f 	call	0x5e90	; 0x5e90 <__divmodhi4>
    2420:	06 17       	cp	r16, r22
    2422:	17 06       	cpc	r1, r23
    2424:	f4 f2       	brlt	.-68     	; 0x23e2 <glcd_tiny_draw_string_P+0x20>
			return; /* Ran out of space :( */
	}	
}
    2426:	df 91       	pop	r29
    2428:	cf 91       	pop	r28
    242a:	1f 91       	pop	r17
    242c:	0f 91       	pop	r16
    242e:	ff 90       	pop	r15
    2430:	ef 90       	pop	r14
    2432:	08 95       	ret

00002434 <glcd_tiny_draw_string_ammend>:

void glcd_tiny_draw_string_ammend(char *str) {
    2434:	cf 93       	push	r28
    2436:	df 93       	push	r29
    2438:	ec 01       	movw	r28, r24
	glcd_scroll_line();
    243a:	0e 94 9b 06 	call	0xd36	; 0xd36 <glcd_scroll_line>
	glcd_tiny_draw_string(0, (GLCD_LCD_HEIGHT/8-1), str);
    243e:	ae 01       	movw	r20, r28
    2440:	65 e0       	ldi	r22, 0x05	; 5
    2442:	80 e0       	ldi	r24, 0x00	; 0
    2444:	0e 94 a8 11 	call	0x2350	; 0x2350 <glcd_tiny_draw_string>
	glcd_write();
}
    2448:	df 91       	pop	r29
    244a:	cf 91       	pop	r28
	glcd_write();
    244c:	0c 94 10 07 	jmp	0xe20	; 0xe20 <glcd_write>

00002450 <glcd_tiny_draw_string_ammend_P>:

void glcd_tiny_draw_string_ammend_P(const char *str) {
    2450:	cf 93       	push	r28
    2452:	df 93       	push	r29
    2454:	ec 01       	movw	r28, r24
	glcd_scroll_line();
    2456:	0e 94 9b 06 	call	0xd36	; 0xd36 <glcd_scroll_line>
	glcd_tiny_draw_string_P(0, (GLCD_LCD_HEIGHT/8-1), str);
    245a:	ae 01       	movw	r20, r28
    245c:	65 e0       	ldi	r22, 0x05	; 5
    245e:	80 e0       	ldi	r24, 0x00	; 0
    2460:	0e 94 e1 11 	call	0x23c2	; 0x23c2 <glcd_tiny_draw_string_P>
	glcd_write();
}
    2464:	df 91       	pop	r29
    2466:	cf 91       	pop	r28
	glcd_write();
    2468:	0c 94 10 07 	jmp	0xe20	; 0xe20 <glcd_write>

0000246c <glcd_tiny_invert_line>:

void glcd_tiny_invert_line(uint8_t line)
{
	glcd_invert_area(0,line*8,GLCD_LCD_WIDTH-1,8);
    246c:	68 2f       	mov	r22, r24
    246e:	66 0f       	add	r22, r22
    2470:	66 0f       	add	r22, r22
    2472:	66 0f       	add	r22, r22
    2474:	28 e0       	ldi	r18, 0x08	; 8
    2476:	43 e5       	ldi	r20, 0x53	; 83
    2478:	80 e0       	ldi	r24, 0x00	; 0
    247a:	0c 94 08 0e 	jmp	0x1c10	; 0x1c10 <glcd_invert_area>

0000247e <glcd_tiny_draw_char_xy>:
}

void glcd_tiny_draw_char_xy(uint8_t x, uint8_t y, char c)
{
    247e:	bf 92       	push	r11
    2480:	cf 92       	push	r12
    2482:	df 92       	push	r13
    2484:	ef 92       	push	r14
    2486:	ff 92       	push	r15
    2488:	0f 93       	push	r16
    248a:	1f 93       	push	r17
    248c:	cf 93       	push	r28
    248e:	df 93       	push	r29
    2490:	d8 2e       	mov	r13, r24
    2492:	c6 2e       	mov	r12, r22
	uint8_t dat;
	
	/* Only works for fonts < 8 bits in height */
	
	/* Check all important bounds requirements are okay */
	if ( (y >= GLCD_LCD_HEIGHT) || ((x+font_current.width) >= GLCD_LCD_WIDTH) || (font_current.height >= 8) || font_current.table_type != STANG) {
    2494:	2f e2       	ldi	r18, 0x2F	; 47
    2496:	26 17       	cp	r18, r22
    2498:	08 f4       	brcc	.+2      	; 0x249c <glcd_tiny_draw_char_xy+0x1e>
    249a:	60 c0       	rjmp	.+192    	; 0x255c <glcd_tiny_draw_char_xy+0xde>
    249c:	80 91 04 07 	lds	r24, 0x0704	; 0x800704 <font_current+0x2>
    24a0:	8d 0d       	add	r24, r13
    24a2:	99 27       	eor	r25, r25
    24a4:	99 1f       	adc	r25, r25
    24a6:	84 35       	cpi	r24, 0x54	; 84
    24a8:	91 05       	cpc	r25, r1
    24aa:	0c f0       	brlt	.+2      	; 0x24ae <glcd_tiny_draw_char_xy+0x30>
    24ac:	57 c0       	rjmp	.+174    	; 0x255c <glcd_tiny_draw_char_xy+0xde>
    24ae:	80 91 05 07 	lds	r24, 0x0705	; 0x800705 <font_current+0x3>
    24b2:	88 30       	cpi	r24, 0x08	; 8
    24b4:	08 f0       	brcs	.+2      	; 0x24b8 <glcd_tiny_draw_char_xy+0x3a>
    24b6:	52 c0       	rjmp	.+164    	; 0x255c <glcd_tiny_draw_char_xy+0xde>
    24b8:	80 91 08 07 	lds	r24, 0x0708	; 0x800708 <font_current+0x6>
    24bc:	81 11       	cpse	r24, r1
    24be:	4e c0       	rjmp	.+156    	; 0x255c <glcd_tiny_draw_char_xy+0xde>
		return;
	}		
	if (c < font_current.start_char || c > font_current.end_char) {
    24c0:	80 91 06 07 	lds	r24, 0x0706	; 0x800706 <font_current+0x4>
    24c4:	48 17       	cp	r20, r24
    24c6:	20 f0       	brcs	.+8      	; 0x24d0 <glcd_tiny_draw_char_xy+0x52>
    24c8:	80 91 07 07 	lds	r24, 0x0707	; 0x800707 <font_current+0x5>
    24cc:	84 17       	cp	r24, r20
    24ce:	08 f4       	brcc	.+2      	; 0x24d2 <glcd_tiny_draw_char_xy+0x54>
		c = '.';
    24d0:	4e e2       	ldi	r20, 0x2E	; 46
	}
	
	xvar = x;
	
	for ( i = 0; i < font_current.width; i++ ) {
    24d2:	f1 2c       	mov	r15, r1
#if defined(GLCD_DEVICE_AVR8)			
		dat = pgm_read_byte( font_current.font_table + ((c - font_current.start_char) * (font_current.width)) + i );
    24d4:	c4 2f       	mov	r28, r20
    24d6:	d0 e0       	ldi	r29, 0x00	; 0
    24d8:	bf 2c       	mov	r11, r15
    24da:	bd 0c       	add	r11, r13
	for ( i = 0; i < font_current.width; i++ ) {
    24dc:	40 91 04 07 	lds	r20, 0x0704	; 0x800704 <font_current+0x2>
    24e0:	f4 16       	cp	r15, r20
    24e2:	88 f0       	brcs	.+34     	; 0x2506 <glcd_tiny_draw_char_xy+0x88>
			glcd_set_pixel(xvar,y+yvar, (dat & (1<<yvar) ? 1 : 0) );
		}
		xvar++;
	}
	
	glcd_update_bbox(x, y, x+font_current.width,y+font_current.height);
    24e4:	20 91 05 07 	lds	r18, 0x0705	; 0x800705 <font_current+0x3>
    24e8:	2c 0d       	add	r18, r12
    24ea:	4d 0d       	add	r20, r13
    24ec:	6c 2d       	mov	r22, r12
    24ee:	8d 2d       	mov	r24, r13
	
}
    24f0:	df 91       	pop	r29
    24f2:	cf 91       	pop	r28
    24f4:	1f 91       	pop	r17
    24f6:	0f 91       	pop	r16
    24f8:	ff 90       	pop	r15
    24fa:	ef 90       	pop	r14
    24fc:	df 90       	pop	r13
    24fe:	cf 90       	pop	r12
    2500:	bf 90       	pop	r11
	glcd_update_bbox(x, y, x+font_current.width,y+font_current.height);
    2502:	0c 94 32 06 	jmp	0xc64	; 0xc64 <glcd_update_bbox>
		dat = pgm_read_byte( font_current.font_table + ((c - font_current.start_char) * (font_current.width)) + i );
    2506:	80 91 06 07 	lds	r24, 0x0706	; 0x800706 <font_current+0x4>
    250a:	9e 01       	movw	r18, r28
    250c:	28 1b       	sub	r18, r24
    250e:	31 09       	sbc	r19, r1
    2510:	42 9f       	mul	r20, r18
    2512:	80 01       	movw	r16, r0
    2514:	43 9f       	mul	r20, r19
    2516:	10 0d       	add	r17, r0
    2518:	11 24       	eor	r1, r1
    251a:	0f 0d       	add	r16, r15
    251c:	11 1d       	adc	r17, r1
    251e:	e0 91 02 07 	lds	r30, 0x0702	; 0x800702 <font_current>
    2522:	f0 91 03 07 	lds	r31, 0x0703	; 0x800703 <font_current+0x1>
    2526:	e0 0f       	add	r30, r16
    2528:	f1 1f       	adc	r31, r17
    252a:	e4 91       	lpm	r30, Z
		for (yvar = 0; yvar < font_current.height; yvar++) {
    252c:	e1 2c       	mov	r14, r1
			glcd_set_pixel(xvar,y+yvar, (dat & (1<<yvar) ? 1 : 0) );
    252e:	0e 2f       	mov	r16, r30
    2530:	10 e0       	ldi	r17, 0x00	; 0
		for (yvar = 0; yvar < font_current.height; yvar++) {
    2532:	80 91 05 07 	lds	r24, 0x0705	; 0x800705 <font_current+0x3>
    2536:	e8 16       	cp	r14, r24
    2538:	10 f0       	brcs	.+4      	; 0x253e <glcd_tiny_draw_char_xy+0xc0>
	for ( i = 0; i < font_current.width; i++ ) {
    253a:	f3 94       	inc	r15
    253c:	cd cf       	rjmp	.-102    	; 0x24d8 <glcd_tiny_draw_char_xy+0x5a>
			glcd_set_pixel(xvar,y+yvar, (dat & (1<<yvar) ? 1 : 0) );
    253e:	a8 01       	movw	r20, r16
    2540:	0e 2c       	mov	r0, r14
    2542:	02 c0       	rjmp	.+4      	; 0x2548 <glcd_tiny_draw_char_xy+0xca>
    2544:	55 95       	asr	r21
    2546:	47 95       	ror	r20
    2548:	0a 94       	dec	r0
    254a:	e2 f7       	brpl	.-8      	; 0x2544 <glcd_tiny_draw_char_xy+0xc6>
    254c:	41 70       	andi	r20, 0x01	; 1
    254e:	6e 2d       	mov	r22, r14
    2550:	6c 0d       	add	r22, r12
    2552:	8b 2d       	mov	r24, r11
    2554:	0e 94 e7 0a 	call	0x15ce	; 0x15ce <glcd_set_pixel>
		for (yvar = 0; yvar < font_current.height; yvar++) {
    2558:	e3 94       	inc	r14
    255a:	eb cf       	rjmp	.-42     	; 0x2532 <glcd_tiny_draw_char_xy+0xb4>
}
    255c:	df 91       	pop	r29
    255e:	cf 91       	pop	r28
    2560:	1f 91       	pop	r17
    2562:	0f 91       	pop	r16
    2564:	ff 90       	pop	r15
    2566:	ef 90       	pop	r14
    2568:	df 90       	pop	r13
    256a:	cf 90       	pop	r12
    256c:	bf 90       	pop	r11
    256e:	08 95       	ret

00002570 <BME280_read>:
	i2c_stop();
	
	return 0;
}

static uint8_t BME280_read(uint8_t* data, uint8_t bytes, uint8_t startaddress){
    2570:	cf 92       	push	r12
    2572:	df 92       	push	r13
    2574:	ef 92       	push	r14
    2576:	ff 92       	push	r15
    2578:	0f 93       	push	r16
    257a:	1f 93       	push	r17
    257c:	cf 93       	push	r28
    257e:	df 93       	push	r29
    2580:	6c 01       	movw	r12, r24
    2582:	06 2f       	mov	r16, r22
    2584:	c4 2f       	mov	r28, r20
	uint8_t failed, i;
	failed = i2c_start(BME280_SLAVE_ADDRESS+I2C_WRITE);
    2586:	8e ee       	ldi	r24, 0xEE	; 238
    2588:	0e 94 a7 17 	call	0x2f4e	; 0x2f4e <i2c_start>
	if (failed){
    258c:	81 11       	cpse	r24, r1
    258e:	0f c0       	rjmp	.+30     	; 0x25ae <BME280_read+0x3e>
		return BME280_I2C_FAIL;
	}
	
	failed |= i2c_write(startaddress); //Registeradresse
    2590:	8c 2f       	mov	r24, r28
    2592:	0e 94 fb 17 	call	0x2ff6	; 0x2ff6 <i2c_write>
    2596:	c8 2f       	mov	r28, r24
	failed |= i2c_rep_start(BME280_SLAVE_ADDRESS+I2C_READ);
    2598:	8f ee       	ldi	r24, 0xEF	; 239
    259a:	0e 94 f1 17 	call	0x2fe2	; 0x2fe2 <i2c_rep_start>
    259e:	c8 2b       	or	r28, r24
	if (failed){
		i2c_stop();
		return BME280_I2C_FAIL;
	}
	
	for (i = 0; i < bytes-1; i++){
    25a0:	d0 e0       	ldi	r29, 0x00	; 0
    25a2:	01 50       	subi	r16, 0x01	; 1
    25a4:	11 0b       	sbc	r17, r17
	if (failed){
    25a6:	cc 23       	and	r28, r28
    25a8:	49 f0       	breq	.+18     	; 0x25bc <BME280_read+0x4c>
		i2c_stop();
    25aa:	0e 94 f3 17 	call	0x2fe6	; 0x2fe6 <i2c_stop>
		return BME280_I2C_FAIL;
    25ae:	c1 e0       	ldi	r28, 0x01	; 1
    25b0:	13 c0       	rjmp	.+38     	; 0x25d8 <BME280_read+0x68>
		data[i] = i2c_readAck();
    25b2:	0e 94 0c 18 	call	0x3018	; 0x3018 <i2c_readAck>
    25b6:	f7 01       	movw	r30, r14
    25b8:	80 83       	st	Z, r24
	for (i = 0; i < bytes-1; i++){
    25ba:	df 5f       	subi	r29, 0xFF	; 255
    25bc:	8d 2f       	mov	r24, r29
    25be:	90 e0       	ldi	r25, 0x00	; 0
    25c0:	76 01       	movw	r14, r12
    25c2:	e8 0e       	add	r14, r24
    25c4:	f9 1e       	adc	r15, r25
    25c6:	80 17       	cp	r24, r16
    25c8:	91 07       	cpc	r25, r17
    25ca:	9c f3       	brlt	.-26     	; 0x25b2 <BME280_read+0x42>
	}
	data[i] = i2c_readNak();
    25cc:	0e 94 16 18 	call	0x302c	; 0x302c <i2c_readNak>
    25d0:	f7 01       	movw	r30, r14
    25d2:	80 83       	st	Z, r24
	
	i2c_stop();
    25d4:	0e 94 f3 17 	call	0x2fe6	; 0x2fe6 <i2c_stop>
	
	return 0;
}
    25d8:	8c 2f       	mov	r24, r28
    25da:	df 91       	pop	r29
    25dc:	cf 91       	pop	r28
    25de:	1f 91       	pop	r17
    25e0:	0f 91       	pop	r16
    25e2:	ff 90       	pop	r15
    25e4:	ef 90       	pop	r14
    25e6:	df 90       	pop	r13
    25e8:	cf 90       	pop	r12
    25ea:	08 95       	ret

000025ec <BME280_waitfor_status>:

//wartet maximal 100 I2C Buszugriffe auf das Statusbit
static uint8_t BME280_waitfor_status(uint8_t statusbit){
    25ec:	0f 93       	push	r16
    25ee:	1f 93       	push	r17
    25f0:	cf 93       	push	r28
    25f2:	df 93       	push	r29
    25f4:	0f 92       	push	r0
    25f6:	cd b7       	in	r28, 0x3d	; 61
    25f8:	de b7       	in	r29, 0x3e	; 62
    25fa:	08 2f       	mov	r16, r24
    25fc:	14 e6       	ldi	r17, 0x64	; 100
	uint8_t i, statusregister;
	uint8_t failed = 0;
	for (i = 0; i < 100; i++){
		failed |= BME280_read(&statusregister, 1, 0xF3);
    25fe:	43 ef       	ldi	r20, 0xF3	; 243
    2600:	61 e0       	ldi	r22, 0x01	; 1
    2602:	ce 01       	movw	r24, r28
    2604:	01 96       	adiw	r24, 0x01	; 1
    2606:	0e 94 b8 12 	call	0x2570	; 0x2570 <BME280_read>
		if (failed){
    260a:	81 11       	cpse	r24, r1
    260c:	0c c0       	rjmp	.+24     	; 0x2626 <BME280_waitfor_status+0x3a>
			return BME280_I2C_FAIL;
		}
		if ( 0 == (statusregister & statusbit)){
    260e:	89 81       	ldd	r24, Y+1	; 0x01
    2610:	80 23       	and	r24, r16
    2612:	19 f0       	breq	.+6      	; 0x261a <BME280_waitfor_status+0x2e>
    2614:	11 50       	subi	r17, 0x01	; 1
	for (i = 0; i < 100; i++){
    2616:	99 f7       	brne	.-26     	; 0x25fe <BME280_waitfor_status+0x12>
			return 0;
		}
	}
	return BME280_STAT_TIMEOUT;
    2618:	82 e0       	ldi	r24, 0x02	; 2
}
    261a:	0f 90       	pop	r0
    261c:	df 91       	pop	r29
    261e:	cf 91       	pop	r28
    2620:	1f 91       	pop	r17
    2622:	0f 91       	pop	r16
    2624:	08 95       	ret
			return BME280_I2C_FAIL;
    2626:	81 e0       	ldi	r24, 0x01	; 1
    2628:	f8 cf       	rjmp	.-16     	; 0x261a <BME280_waitfor_status+0x2e>

0000262a <BME280_write.constprop.2>:
static uint8_t BME280_write(const uint8_t* data, uint8_t bytes, uint8_t startaddress){
    262a:	0f 93       	push	r16
    262c:	1f 93       	push	r17
    262e:	cf 93       	push	r28
    2630:	8c 01       	movw	r16, r24
    2632:	c6 2f       	mov	r28, r22
	failed = i2c_start(BME280_SLAVE_ADDRESS+I2C_WRITE);
    2634:	8e ee       	ldi	r24, 0xEE	; 238
    2636:	0e 94 a7 17 	call	0x2f4e	; 0x2f4e <i2c_start>
	if (failed){
    263a:	81 11       	cpse	r24, r1
    263c:	0c c0       	rjmp	.+24     	; 0x2656 <BME280_write.constprop.2+0x2c>
		failed |= i2c_write(startaddress++); //Registeradresse
    263e:	8c 2f       	mov	r24, r28
    2640:	0e 94 fb 17 	call	0x2ff6	; 0x2ff6 <i2c_write>
    2644:	c8 2f       	mov	r28, r24
		failed |= i2c_write(data[i]);
    2646:	f8 01       	movw	r30, r16
    2648:	80 81       	ld	r24, Z
    264a:	0e 94 fb 17 	call	0x2ff6	; 0x2ff6 <i2c_write>
    264e:	c8 2b       	or	r28, r24
		if (failed){
    2650:	21 f0       	breq	.+8      	; 0x265a <BME280_write.constprop.2+0x30>
			i2c_stop();
    2652:	0e 94 f3 17 	call	0x2fe6	; 0x2fe6 <i2c_stop>
		return BME280_I2C_FAIL;
    2656:	c1 e0       	ldi	r28, 0x01	; 1
    2658:	02 c0       	rjmp	.+4      	; 0x265e <BME280_write.constprop.2+0x34>
	i2c_stop();
    265a:	0e 94 f3 17 	call	0x2fe6	; 0x2fe6 <i2c_stop>
}
    265e:	8c 2f       	mov	r24, r28
    2660:	cf 91       	pop	r28
    2662:	1f 91       	pop	r17
    2664:	0f 91       	pop	r16
    2666:	08 95       	ret

00002668 <BME280_init>:

uint8_t BME280_init(void){
    2668:	1f 93       	push	r17
    266a:	cf 93       	push	r28
    266c:	df 93       	push	r29
    266e:	cd b7       	in	r28, 0x3d	; 61
    2670:	de b7       	in	r29, 0x3e	; 62
    2672:	a2 97       	sbiw	r28, 0x22	; 34
    2674:	0f b6       	in	r0, 0x3f	; 63
    2676:	f8 94       	cli
    2678:	de bf       	out	0x3e, r29	; 62
    267a:	0f be       	out	0x3f, r0	; 63
    267c:	cd bf       	out	0x3d, r28	; 61
	
	uint8_t calbytes_low[26];
	uint8_t calbytes_high[7];
	uint8_t failed = 0;
	uint8_t reset = 0xB6;
    267e:	86 eb       	ldi	r24, 0xB6	; 182
    2680:	8a a3       	std	Y+34, r24	; 0x22
	
	failed |= BME280_write(&reset, 1, 0xE0);
    2682:	60 ee       	ldi	r22, 0xE0	; 224
    2684:	ce 01       	movw	r24, r28
    2686:	82 96       	adiw	r24, 0x22	; 34
    2688:	0e 94 15 13 	call	0x262a	; 0x262a <BME280_write.constprop.2>
	if (failed){
    268c:	88 23       	and	r24, r24
    268e:	59 f0       	breq	.+22     	; 0x26a6 <BME280_init+0x3e>
		return BME280_I2C_FAIL;
    2690:	81 e0       	ldi	r24, 0x01	; 1
	dig_H4 = (int16_t)((((int16_t)((int8_t)calbytes_high[3])) <<4) |(((uint8_t)0x0F) & calbytes_high[4]));	
	dig_H5 = (int16_t)((((int16_t)((int8_t)calbytes_high[5])) <<4) |(calbytes_high[4] >>4));	
	dig_H6 = (int8_t)calbytes_high[6];
	
	return 0;
}
    2692:	a2 96       	adiw	r28, 0x22	; 34
    2694:	0f b6       	in	r0, 0x3f	; 63
    2696:	f8 94       	cli
    2698:	de bf       	out	0x3e, r29	; 62
    269a:	0f be       	out	0x3f, r0	; 63
    269c:	cd bf       	out	0x3d, r28	; 61
    269e:	df 91       	pop	r29
    26a0:	cf 91       	pop	r28
    26a2:	1f 91       	pop	r17
    26a4:	08 95       	ret
	failed |= BME280_waitfor_status(BME_280_STAT_IM_UPDATE);
    26a6:	81 e0       	ldi	r24, 0x01	; 1
    26a8:	0e 94 f6 12 	call	0x25ec	; 0x25ec <BME280_waitfor_status>
	if (failed){
    26ac:	81 11       	cpse	r24, r1
    26ae:	f0 cf       	rjmp	.-32     	; 0x2690 <BME280_init+0x28>
	failed |= BME280_read(calbytes_low, 26, 0x88);
    26b0:	48 e8       	ldi	r20, 0x88	; 136
    26b2:	6a e1       	ldi	r22, 0x1A	; 26
    26b4:	ce 01       	movw	r24, r28
    26b6:	01 96       	adiw	r24, 0x01	; 1
    26b8:	0e 94 b8 12 	call	0x2570	; 0x2570 <BME280_read>
    26bc:	18 2f       	mov	r17, r24
	failed |= BME280_read(calbytes_high, 7, 0xE1);
    26be:	41 ee       	ldi	r20, 0xE1	; 225
    26c0:	67 e0       	ldi	r22, 0x07	; 7
    26c2:	ce 01       	movw	r24, r28
    26c4:	4b 96       	adiw	r24, 0x1b	; 27
    26c6:	0e 94 b8 12 	call	0x2570	; 0x2570 <BME280_read>
    26ca:	81 2b       	or	r24, r17
	if (failed){
    26cc:	09 f7       	brne	.-62     	; 0x2690 <BME280_init+0x28>
	dig_T1 = (uint16_t)((((uint16_t)((uint8_t)calbytes_low[1])) <<8) | calbytes_low[0]);	
    26ce:	29 81       	ldd	r18, Y+1	; 0x01
    26d0:	3a 81       	ldd	r19, Y+2	; 0x02
    26d2:	30 93 fd 01 	sts	0x01FD, r19	; 0x8001fd <dig_T1+0x1>
    26d6:	20 93 fc 01 	sts	0x01FC, r18	; 0x8001fc <dig_T1>
	dig_T2 = (int16_t) ((((int16_t) ((int8_t) calbytes_low[3])) <<8) | calbytes_low[2]);	
    26da:	9c 81       	ldd	r25, Y+4	; 0x04
    26dc:	2b 81       	ldd	r18, Y+3	; 0x03
    26de:	39 2f       	mov	r19, r25
    26e0:	30 93 fb 01 	sts	0x01FB, r19	; 0x8001fb <dig_T2+0x1>
    26e4:	20 93 fa 01 	sts	0x01FA, r18	; 0x8001fa <dig_T2>
	dig_T3 = (int16_t) ((((int16_t) ((int8_t) calbytes_low[5])) <<8) | calbytes_low[4]);	
    26e8:	9e 81       	ldd	r25, Y+6	; 0x06
    26ea:	2d 81       	ldd	r18, Y+5	; 0x05
    26ec:	39 2f       	mov	r19, r25
    26ee:	30 93 f9 01 	sts	0x01F9, r19	; 0x8001f9 <dig_T3+0x1>
    26f2:	20 93 f8 01 	sts	0x01F8, r18	; 0x8001f8 <dig_T3>
	dig_P1 = (uint16_t)((((uint16_t)((uint8_t)calbytes_low[7])) <<8) | calbytes_low[6]);	
    26f6:	2f 81       	ldd	r18, Y+7	; 0x07
    26f8:	38 85       	ldd	r19, Y+8	; 0x08
    26fa:	30 93 f7 01 	sts	0x01F7, r19	; 0x8001f7 <dig_P1+0x1>
    26fe:	20 93 f6 01 	sts	0x01F6, r18	; 0x8001f6 <dig_P1>
	dig_P2 = (int16_t) ((((int16_t) ((int8_t) calbytes_low[9])) <<8) | calbytes_low[8]);	
    2702:	9a 85       	ldd	r25, Y+10	; 0x0a
    2704:	29 85       	ldd	r18, Y+9	; 0x09
    2706:	39 2f       	mov	r19, r25
    2708:	30 93 f5 01 	sts	0x01F5, r19	; 0x8001f5 <dig_P2+0x1>
    270c:	20 93 f4 01 	sts	0x01F4, r18	; 0x8001f4 <dig_P2>
	dig_P3 = (int16_t) ((((int16_t) ((int8_t) calbytes_low[11])) <<8)| calbytes_low[10]);	
    2710:	9c 85       	ldd	r25, Y+12	; 0x0c
    2712:	2b 85       	ldd	r18, Y+11	; 0x0b
    2714:	39 2f       	mov	r19, r25
    2716:	30 93 f3 01 	sts	0x01F3, r19	; 0x8001f3 <dig_P3+0x1>
    271a:	20 93 f2 01 	sts	0x01F2, r18	; 0x8001f2 <dig_P3>
	dig_P4 = (int16_t) ((((int16_t) ((int8_t) calbytes_low[13])) <<8)| calbytes_low[12]);	
    271e:	9e 85       	ldd	r25, Y+14	; 0x0e
    2720:	2d 85       	ldd	r18, Y+13	; 0x0d
    2722:	39 2f       	mov	r19, r25
    2724:	30 93 f1 01 	sts	0x01F1, r19	; 0x8001f1 <dig_P4+0x1>
    2728:	20 93 f0 01 	sts	0x01F0, r18	; 0x8001f0 <dig_P4>
	dig_P5 = (int16_t) ((((int16_t) ((int8_t) calbytes_low[15])) <<8)| calbytes_low[14]);	
    272c:	98 89       	ldd	r25, Y+16	; 0x10
    272e:	2f 85       	ldd	r18, Y+15	; 0x0f
    2730:	39 2f       	mov	r19, r25
    2732:	30 93 ef 01 	sts	0x01EF, r19	; 0x8001ef <dig_P5+0x1>
    2736:	20 93 ee 01 	sts	0x01EE, r18	; 0x8001ee <dig_P5>
	dig_P6 = (int16_t) ((((int16_t) ((int8_t) calbytes_low[17])) <<8)| calbytes_low[16]);	
    273a:	9a 89       	ldd	r25, Y+18	; 0x12
    273c:	29 89       	ldd	r18, Y+17	; 0x11
    273e:	39 2f       	mov	r19, r25
    2740:	30 93 ed 01 	sts	0x01ED, r19	; 0x8001ed <dig_P6+0x1>
    2744:	20 93 ec 01 	sts	0x01EC, r18	; 0x8001ec <dig_P6>
	dig_P7 = (int16_t) ((((int16_t) ((int8_t) calbytes_low[19])) <<8)| calbytes_low[18]);	
    2748:	9c 89       	ldd	r25, Y+20	; 0x14
    274a:	2b 89       	ldd	r18, Y+19	; 0x13
    274c:	39 2f       	mov	r19, r25
    274e:	30 93 eb 01 	sts	0x01EB, r19	; 0x8001eb <dig_P7+0x1>
    2752:	20 93 ea 01 	sts	0x01EA, r18	; 0x8001ea <dig_P7>
	dig_P8 = (int16_t) ((((int16_t) ((int8_t) calbytes_low[21])) <<8)| calbytes_low[20]);	
    2756:	9e 89       	ldd	r25, Y+22	; 0x16
    2758:	2d 89       	ldd	r18, Y+21	; 0x15
    275a:	39 2f       	mov	r19, r25
    275c:	30 93 e9 01 	sts	0x01E9, r19	; 0x8001e9 <dig_P8+0x1>
    2760:	20 93 e8 01 	sts	0x01E8, r18	; 0x8001e8 <dig_P8>
	dig_P9 = (int16_t) ((((int16_t) ((int8_t) calbytes_low[23])) <<8)| calbytes_low[22]);	
    2764:	98 8d       	ldd	r25, Y+24	; 0x18
    2766:	2f 89       	ldd	r18, Y+23	; 0x17
    2768:	39 2f       	mov	r19, r25
    276a:	30 93 e7 01 	sts	0x01E7, r19	; 0x8001e7 <dig_P9+0x1>
    276e:	20 93 e6 01 	sts	0x01E6, r18	; 0x8001e6 <dig_P9>
	dig_H1 = calbytes_low[25];
    2772:	9a 8d       	ldd	r25, Y+26	; 0x1a
    2774:	90 93 e5 01 	sts	0x01E5, r25	; 0x8001e5 <dig_H1>
	dig_H2 = (int16_t)((((int16_t)((int8_t)calbytes_high[1])) <<8)| calbytes_high[0]);	
    2778:	9c 8d       	ldd	r25, Y+28	; 0x1c
    277a:	2b 8d       	ldd	r18, Y+27	; 0x1b
    277c:	39 2f       	mov	r19, r25
    277e:	30 93 e4 01 	sts	0x01E4, r19	; 0x8001e4 <dig_H2+0x1>
    2782:	20 93 e3 01 	sts	0x01E3, r18	; 0x8001e3 <dig_H2>
	dig_H3 = calbytes_high[2];	
    2786:	9d 8d       	ldd	r25, Y+29	; 0x1d
    2788:	90 93 e2 01 	sts	0x01E2, r25	; 0x8001e2 <dig_H3>
	dig_H4 = (int16_t)((((int16_t)((int8_t)calbytes_high[3])) <<4) |(((uint8_t)0x0F) & calbytes_high[4]));	
    278c:	9f 8d       	ldd	r25, Y+31	; 0x1f
    278e:	2e 8d       	ldd	r18, Y+30	; 0x1e
    2790:	40 e1       	ldi	r20, 0x10	; 16
    2792:	24 02       	muls	r18, r20
    2794:	90 01       	movw	r18, r0
    2796:	11 24       	eor	r1, r1
    2798:	49 2f       	mov	r20, r25
    279a:	4f 70       	andi	r20, 0x0F	; 15
    279c:	24 2b       	or	r18, r20
    279e:	30 93 e1 01 	sts	0x01E1, r19	; 0x8001e1 <dig_H4+0x1>
    27a2:	20 93 e0 01 	sts	0x01E0, r18	; 0x8001e0 <dig_H4>
	dig_H5 = (int16_t)((((int16_t)((int8_t)calbytes_high[5])) <<4) |(calbytes_high[4] >>4));	
    27a6:	28 a1       	ldd	r18, Y+32	; 0x20
    27a8:	40 e1       	ldi	r20, 0x10	; 16
    27aa:	24 02       	muls	r18, r20
    27ac:	90 01       	movw	r18, r0
    27ae:	11 24       	eor	r1, r1
    27b0:	92 95       	swap	r25
    27b2:	9f 70       	andi	r25, 0x0F	; 15
    27b4:	29 2b       	or	r18, r25
    27b6:	30 93 df 01 	sts	0x01DF, r19	; 0x8001df <dig_H5+0x1>
    27ba:	20 93 de 01 	sts	0x01DE, r18	; 0x8001de <dig_H5>
	dig_H6 = (int8_t)calbytes_high[6];
    27be:	99 a1       	ldd	r25, Y+33	; 0x21
    27c0:	90 93 dd 01 	sts	0x01DD, r25	; 0x8001dd <dig_H6>
	return 0;
    27c4:	66 cf       	rjmp	.-308    	; 0x2692 <BME280_init+0x2a>

000027c6 <BME280_set_filter>:

uint8_t BME280_set_filter(uint8_t filter_coeff){
    27c6:	1f 93       	push	r17
    27c8:	cf 93       	push	r28
    27ca:	df 93       	push	r29
    27cc:	0f 92       	push	r0
    27ce:	cd b7       	in	r28, 0x3d	; 61
    27d0:	de b7       	in	r29, 0x3e	; 62
    27d2:	18 2f       	mov	r17, r24
	uint8_t config_register;
	uint8_t failed = 0;
	
	failed |= BME280_read(&config_register, 1, 0xF5);
    27d4:	45 ef       	ldi	r20, 0xF5	; 245
    27d6:	61 e0       	ldi	r22, 0x01	; 1
    27d8:	ce 01       	movw	r24, r28
    27da:	01 96       	adiw	r24, 0x01	; 1
    27dc:	0e 94 b8 12 	call	0x2570	; 0x2570 <BME280_read>
	if (failed){
		return BME280_I2C_FAIL;
    27e0:	91 e0       	ldi	r25, 0x01	; 1
	if (failed){
    27e2:	81 11       	cpse	r24, r1
    27e4:	11 c0       	rjmp	.+34     	; 0x2808 <BME280_set_filter+0x42>
	}
	
	config_register &= 0xE3;
    27e6:	89 81       	ldd	r24, Y+1	; 0x01
    27e8:	83 7e       	andi	r24, 0xE3	; 227
	config_register |= (filter_coeff << 2);
    27ea:	94 e0       	ldi	r25, 0x04	; 4
    27ec:	19 9f       	mul	r17, r25
    27ee:	90 01       	movw	r18, r0
    27f0:	11 24       	eor	r1, r1
    27f2:	82 2b       	or	r24, r18
    27f4:	89 83       	std	Y+1, r24	; 0x01
	
	failed |= BME280_write(&config_register, 1, 0xF5);
    27f6:	65 ef       	ldi	r22, 0xF5	; 245
    27f8:	ce 01       	movw	r24, r28
    27fa:	01 96       	adiw	r24, 0x01	; 1
    27fc:	0e 94 15 13 	call	0x262a	; 0x262a <BME280_write.constprop.2>
	if (failed){
    2800:	91 e0       	ldi	r25, 0x01	; 1
    2802:	81 11       	cpse	r24, r1
    2804:	01 c0       	rjmp	.+2      	; 0x2808 <BME280_set_filter+0x42>
    2806:	90 e0       	ldi	r25, 0x00	; 0
		return BME280_I2C_FAIL;
	}
	
	return 0;
}
    2808:	89 2f       	mov	r24, r25
    280a:	0f 90       	pop	r0
    280c:	df 91       	pop	r29
    280e:	cf 91       	pop	r28
    2810:	1f 91       	pop	r17
    2812:	08 95       	ret

00002814 <BME280_set_standby>:

uint8_t BME280_set_standby(uint8_t t_standby){
    2814:	1f 93       	push	r17
    2816:	cf 93       	push	r28
    2818:	df 93       	push	r29
    281a:	0f 92       	push	r0
    281c:	cd b7       	in	r28, 0x3d	; 61
    281e:	de b7       	in	r29, 0x3e	; 62
    2820:	18 2f       	mov	r17, r24
	uint8_t config_register;
	uint8_t failed = 0;
	
	failed |= BME280_read(&config_register, 1, 0xF5);
    2822:	45 ef       	ldi	r20, 0xF5	; 245
    2824:	61 e0       	ldi	r22, 0x01	; 1
    2826:	ce 01       	movw	r24, r28
    2828:	01 96       	adiw	r24, 0x01	; 1
    282a:	0e 94 b8 12 	call	0x2570	; 0x2570 <BME280_read>
	if (failed){
		return BME280_I2C_FAIL;
    282e:	91 e0       	ldi	r25, 0x01	; 1
	if (failed){
    2830:	81 11       	cpse	r24, r1
    2832:	11 c0       	rjmp	.+34     	; 0x2856 <BME280_set_standby+0x42>
	}
	
	config_register &= 0x1F;
    2834:	89 81       	ldd	r24, Y+1	; 0x01
    2836:	8f 71       	andi	r24, 0x1F	; 31
	config_register |= (t_standby << 5);
    2838:	90 e2       	ldi	r25, 0x20	; 32
    283a:	19 9f       	mul	r17, r25
    283c:	90 01       	movw	r18, r0
    283e:	11 24       	eor	r1, r1
    2840:	82 2b       	or	r24, r18
    2842:	89 83       	std	Y+1, r24	; 0x01
	
	failed |= BME280_write(&config_register, 1, 0xF5);
    2844:	65 ef       	ldi	r22, 0xF5	; 245
    2846:	ce 01       	movw	r24, r28
    2848:	01 96       	adiw	r24, 0x01	; 1
    284a:	0e 94 15 13 	call	0x262a	; 0x262a <BME280_write.constprop.2>
	if (failed){
    284e:	91 e0       	ldi	r25, 0x01	; 1
    2850:	81 11       	cpse	r24, r1
    2852:	01 c0       	rjmp	.+2      	; 0x2856 <BME280_set_standby+0x42>
    2854:	90 e0       	ldi	r25, 0x00	; 0
		return BME280_I2C_FAIL;
	}
	
	return 0;
}
    2856:	89 2f       	mov	r24, r25
    2858:	0f 90       	pop	r0
    285a:	df 91       	pop	r29
    285c:	cf 91       	pop	r28
    285e:	1f 91       	pop	r17
    2860:	08 95       	ret

00002862 <BME280_set_measure>:

uint8_t BME280_set_measure(uint8_t oversampling, uint8_t measuretype){
    2862:	0f 93       	push	r16
    2864:	1f 93       	push	r17
    2866:	cf 93       	push	r28
    2868:	df 93       	push	r29
    286a:	00 d0       	rcall	.+0      	; 0x286c <BME280_set_measure+0xa>
    286c:	cd b7       	in	r28, 0x3d	; 61
    286e:	de b7       	in	r29, 0x3e	; 62
    2870:	18 2f       	mov	r17, r24
    2872:	06 2f       	mov	r16, r22
	uint8_t ctrl_hum, ctrl_meas;
	uint8_t failed = 0;
	
	failed |= BME280_read(&ctrl_meas, 1, 0xF4);
    2874:	44 ef       	ldi	r20, 0xF4	; 244
    2876:	61 e0       	ldi	r22, 0x01	; 1
    2878:	ce 01       	movw	r24, r28
    287a:	01 96       	adiw	r24, 0x01	; 1
    287c:	0e 94 b8 12 	call	0x2570	; 0x2570 <BME280_read>
	if (failed){
    2880:	88 23       	and	r24, r24
    2882:	49 f0       	breq	.+18     	; 0x2896 <BME280_set_measure+0x34>
		return BME280_I2C_FAIL;
    2884:	91 e0       	ldi	r25, 0x01	; 1
	if (failed){
		return BME280_I2C_FAIL;
	}
	
	return 0;
}
    2886:	89 2f       	mov	r24, r25
    2888:	0f 90       	pop	r0
    288a:	0f 90       	pop	r0
    288c:	df 91       	pop	r29
    288e:	cf 91       	pop	r28
    2890:	1f 91       	pop	r17
    2892:	0f 91       	pop	r16
    2894:	08 95       	ret
	switch (measuretype){
    2896:	01 30       	cpi	r16, 0x01	; 1
    2898:	b9 f0       	breq	.+46     	; 0x28c8 <BME280_set_measure+0x66>
    289a:	00 23       	and	r16, r16
    289c:	61 f0       	breq	.+24     	; 0x28b6 <BME280_set_measure+0x54>
    289e:	02 30       	cpi	r16, 0x02	; 2
    28a0:	e1 f0       	breq	.+56     	; 0x28da <BME280_set_measure+0x78>
	failed |= BME280_write(&ctrl_meas, 1, 0xF4);
    28a2:	64 ef       	ldi	r22, 0xF4	; 244
    28a4:	ce 01       	movw	r24, r28
    28a6:	01 96       	adiw	r24, 0x01	; 1
    28a8:	0e 94 15 13 	call	0x262a	; 0x262a <BME280_write.constprop.2>
	if (failed){
    28ac:	91 e0       	ldi	r25, 0x01	; 1
    28ae:	81 11       	cpse	r24, r1
    28b0:	ea cf       	rjmp	.-44     	; 0x2886 <BME280_set_measure+0x24>
    28b2:	90 e0       	ldi	r25, 0x00	; 0
    28b4:	e8 cf       	rjmp	.-48     	; 0x2886 <BME280_set_measure+0x24>
			ctrl_hum = oversampling;
    28b6:	1a 83       	std	Y+2, r17	; 0x02
			failed |= BME280_write(&ctrl_hum, 1, 0xF2);
    28b8:	62 ef       	ldi	r22, 0xF2	; 242
    28ba:	ce 01       	movw	r24, r28
    28bc:	02 96       	adiw	r24, 0x02	; 2
    28be:	0e 94 15 13 	call	0x262a	; 0x262a <BME280_write.constprop.2>
			if (failed){
    28c2:	88 23       	and	r24, r24
    28c4:	71 f3       	breq	.-36     	; 0x28a2 <BME280_set_measure+0x40>
    28c6:	de cf       	rjmp	.-68     	; 0x2884 <BME280_set_measure+0x22>
			ctrl_meas &= 0xE3;
    28c8:	29 81       	ldd	r18, Y+1	; 0x01
    28ca:	23 7e       	andi	r18, 0xE3	; 227
			ctrl_meas |= (oversampling << 2);
    28cc:	34 e0       	ldi	r19, 0x04	; 4
			ctrl_meas |= (oversampling << 5);
    28ce:	13 9f       	mul	r17, r19
    28d0:	c0 01       	movw	r24, r0
    28d2:	11 24       	eor	r1, r1
    28d4:	82 2b       	or	r24, r18
    28d6:	89 83       	std	Y+1, r24	; 0x01
			break;
    28d8:	e4 cf       	rjmp	.-56     	; 0x28a2 <BME280_set_measure+0x40>
			ctrl_meas &= 0x1F;
    28da:	29 81       	ldd	r18, Y+1	; 0x01
    28dc:	2f 71       	andi	r18, 0x1F	; 31
			ctrl_meas |= (oversampling << 5);
    28de:	30 e2       	ldi	r19, 0x20	; 32
    28e0:	f6 cf       	rjmp	.-20     	; 0x28ce <BME280_set_measure+0x6c>

000028e2 <BME280_set_measuremode>:

uint8_t BME280_set_measuremode(uint8_t measuremode){
    28e2:	1f 93       	push	r17
    28e4:	cf 93       	push	r28
    28e6:	df 93       	push	r29
    28e8:	0f 92       	push	r0
    28ea:	cd b7       	in	r28, 0x3d	; 61
    28ec:	de b7       	in	r29, 0x3e	; 62
    28ee:	18 2f       	mov	r17, r24
	uint8_t ctrl_meas;
	uint8_t failed = 0;
	
	failed |= BME280_read(&ctrl_meas, 1, 0xF4);
    28f0:	44 ef       	ldi	r20, 0xF4	; 244
    28f2:	61 e0       	ldi	r22, 0x01	; 1
    28f4:	ce 01       	movw	r24, r28
    28f6:	01 96       	adiw	r24, 0x01	; 1
    28f8:	0e 94 b8 12 	call	0x2570	; 0x2570 <BME280_read>
	if (failed){
		return BME280_I2C_FAIL;
    28fc:	91 e0       	ldi	r25, 0x01	; 1
	if (failed){
    28fe:	81 11       	cpse	r24, r1
    2900:	0d c0       	rjmp	.+26     	; 0x291c <BME280_set_measuremode+0x3a>
	}
	
	ctrl_meas &= 0xFC;
    2902:	89 81       	ldd	r24, Y+1	; 0x01
    2904:	8c 7f       	andi	r24, 0xFC	; 252
	ctrl_meas |= measuremode;
    2906:	81 2b       	or	r24, r17
    2908:	89 83       	std	Y+1, r24	; 0x01
	
	failed |= BME280_write(&ctrl_meas, 1, 0xF4);
    290a:	64 ef       	ldi	r22, 0xF4	; 244
    290c:	ce 01       	movw	r24, r28
    290e:	01 96       	adiw	r24, 0x01	; 1
    2910:	0e 94 15 13 	call	0x262a	; 0x262a <BME280_write.constprop.2>
	if (failed){
    2914:	91 e0       	ldi	r25, 0x01	; 1
    2916:	81 11       	cpse	r24, r1
    2918:	01 c0       	rjmp	.+2      	; 0x291c <BME280_set_measuremode+0x3a>
    291a:	90 e0       	ldi	r25, 0x00	; 0
		return BME280_I2C_FAIL;
	}
	
	return 0;
}
    291c:	89 2f       	mov	r24, r25
    291e:	0f 90       	pop	r0
    2920:	df 91       	pop	r29
    2922:	cf 91       	pop	r28
    2924:	1f 91       	pop	r17
    2926:	08 95       	ret

00002928 <BME280_readout>:

uint8_t BME280_readout(int32_t* temp_p, uint32_t* press_p, uint32_t* hum_p){
    2928:	2f 92       	push	r2
    292a:	3f 92       	push	r3
    292c:	4f 92       	push	r4
    292e:	5f 92       	push	r5
    2930:	6f 92       	push	r6
    2932:	7f 92       	push	r7
    2934:	8f 92       	push	r8
    2936:	9f 92       	push	r9
    2938:	af 92       	push	r10
    293a:	bf 92       	push	r11
    293c:	cf 92       	push	r12
    293e:	df 92       	push	r13
    2940:	ef 92       	push	r14
    2942:	ff 92       	push	r15
    2944:	0f 93       	push	r16
    2946:	1f 93       	push	r17
    2948:	cf 93       	push	r28
    294a:	df 93       	push	r29
    294c:	cd b7       	in	r28, 0x3d	; 61
    294e:	de b7       	in	r29, 0x3e	; 62
    2950:	63 97       	sbiw	r28, 0x13	; 19
    2952:	0f b6       	in	r0, 0x3f	; 63
    2954:	f8 94       	cli
    2956:	de bf       	out	0x3e, r29	; 62
    2958:	0f be       	out	0x3f, r0	; 63
    295a:	cd bf       	out	0x3d, r28	; 61
    295c:	5c 01       	movw	r10, r24
    295e:	1b 01       	movw	r2, r22
    2960:	5b 8b       	std	Y+19, r21	; 0x13
    2962:	4a 8b       	std	Y+18, r20	; 0x12

	uint8_t failed = 0;
	
	//Messung triggern wenn sleep mode statt normal mode
	uint8_t ctrl_meas;
	failed |= BME280_read(&ctrl_meas, 1, 0xF4);
    2964:	44 ef       	ldi	r20, 0xF4	; 244
    2966:	61 e0       	ldi	r22, 0x01	; 1
    2968:	ce 01       	movw	r24, r28
    296a:	09 96       	adiw	r24, 0x09	; 9
    296c:	0e 94 b8 12 	call	0x2570	; 0x2570 <BME280_read>
	if (failed){
    2970:	88 23       	and	r24, r24
    2972:	d9 f0       	breq	.+54     	; 0x29aa <BME280_readout+0x82>
		return BME280_I2C_FAIL;
    2974:	11 e0       	ldi	r17, 0x01	; 1
	*temp_p  = BME280_compensate_T_int32(temp);
	*press_p = BME280_compensate_P_int32(press);
	*hum_p   = bme280_compensate_H_int32(hum);
	
	return 0;
}
    2976:	81 2f       	mov	r24, r17
    2978:	63 96       	adiw	r28, 0x13	; 19
    297a:	0f b6       	in	r0, 0x3f	; 63
    297c:	f8 94       	cli
    297e:	de bf       	out	0x3e, r29	; 62
    2980:	0f be       	out	0x3f, r0	; 63
    2982:	cd bf       	out	0x3d, r28	; 61
    2984:	df 91       	pop	r29
    2986:	cf 91       	pop	r28
    2988:	1f 91       	pop	r17
    298a:	0f 91       	pop	r16
    298c:	ff 90       	pop	r15
    298e:	ef 90       	pop	r14
    2990:	df 90       	pop	r13
    2992:	cf 90       	pop	r12
    2994:	bf 90       	pop	r11
    2996:	af 90       	pop	r10
    2998:	9f 90       	pop	r9
    299a:	8f 90       	pop	r8
    299c:	7f 90       	pop	r7
    299e:	6f 90       	pop	r6
    29a0:	5f 90       	pop	r5
    29a2:	4f 90       	pop	r4
    29a4:	3f 90       	pop	r3
    29a6:	2f 90       	pop	r2
    29a8:	08 95       	ret
	if ((ctrl_meas & 0x03) == BME280_MODE_SLEEP){
    29aa:	89 85       	ldd	r24, Y+9	; 0x09
    29ac:	98 2f       	mov	r25, r24
    29ae:	93 70       	andi	r25, 0x03	; 3
    29b0:	09 f4       	brne	.+2      	; 0x29b4 <BME280_readout+0x8c>
    29b2:	aa c2       	rjmp	.+1364   	; 0x2f08 <BME280_readout+0x5e0>
	failed |= BME280_read(measurebytes, 8, 0xF7);
    29b4:	47 ef       	ldi	r20, 0xF7	; 247
    29b6:	68 e0       	ldi	r22, 0x08	; 8
    29b8:	ce 01       	movw	r24, r28
    29ba:	01 96       	adiw	r24, 0x01	; 1
    29bc:	0e 94 b8 12 	call	0x2570	; 0x2570 <BME280_read>
    29c0:	18 2f       	mov	r17, r24
	if (failed){
    29c2:	81 11       	cpse	r24, r1
    29c4:	d7 cf       	rjmp	.-82     	; 0x2974 <BME280_readout+0x4c>
	int32_t press = (int32_t)(((uint32_t)measurebytes[0]<<12) | ((uint32_t)measurebytes[1]<<4) | (uint32_t)measurebytes[2] >> 4);
    29c6:	09 81       	ldd	r16, Y+1	; 0x01
    29c8:	ea 81       	ldd	r30, Y+2	; 0x02
    29ca:	fb 81       	ldd	r31, Y+3	; 0x03
	int32_t temp  = (int32_t)(((uint32_t)measurebytes[3]<<12) | ((uint32_t)measurebytes[4]<<4) | (uint32_t)measurebytes[5] >> 4);
    29cc:	2c 81       	ldd	r18, Y+4	; 0x04
    29ce:	30 e0       	ldi	r19, 0x00	; 0
    29d0:	50 e0       	ldi	r21, 0x00	; 0
    29d2:	40 e0       	ldi	r20, 0x00	; 0
    29d4:	ac e0       	ldi	r26, 0x0C	; 12
    29d6:	22 0f       	add	r18, r18
    29d8:	33 1f       	adc	r19, r19
    29da:	44 1f       	adc	r20, r20
    29dc:	55 1f       	adc	r21, r21
    29de:	aa 95       	dec	r26
    29e0:	d1 f7       	brne	.-12     	; 0x29d6 <BME280_readout+0xae>
    29e2:	8d 81       	ldd	r24, Y+5	; 0x05
    29e4:	90 e0       	ldi	r25, 0x00	; 0
    29e6:	b0 e0       	ldi	r27, 0x00	; 0
    29e8:	a0 e0       	ldi	r26, 0x00	; 0
    29ea:	64 e0       	ldi	r22, 0x04	; 4
    29ec:	88 0f       	add	r24, r24
    29ee:	99 1f       	adc	r25, r25
    29f0:	aa 1f       	adc	r26, r26
    29f2:	bb 1f       	adc	r27, r27
    29f4:	6a 95       	dec	r22
    29f6:	d1 f7       	brne	.-12     	; 0x29ec <BME280_readout+0xc4>
    29f8:	82 2b       	or	r24, r18
    29fa:	93 2b       	or	r25, r19
    29fc:	a4 2b       	or	r26, r20
    29fe:	b5 2b       	or	r27, r21
    2a00:	2e 81       	ldd	r18, Y+6	; 0x06
    2a02:	22 95       	swap	r18
    2a04:	2f 70       	andi	r18, 0x0F	; 15
    2a06:	6c 01       	movw	r12, r24
    2a08:	7d 01       	movw	r14, r26
    2a0a:	c2 2a       	or	r12, r18
    2a0c:	a7 01       	movw	r20, r14
    2a0e:	96 01       	movw	r18, r12
	int32_t hum   = (int32_t)(((uint32_t)measurebytes[6]<<8)  | ((uint32_t)measurebytes[7]));
    2a10:	8f 81       	ldd	r24, Y+7	; 0x07
    2a12:	98 85       	ldd	r25, Y+8	; 0x08
    2a14:	98 27       	eor	r25, r24
    2a16:	89 27       	eor	r24, r25
    2a18:	98 27       	eor	r25, r24
    2a1a:	6c 01       	movw	r12, r24
    2a1c:	f1 2c       	mov	r15, r1
    2a1e:	e1 2c       	mov	r14, r1
    2a20:	ce 86       	std	Y+14, r12	; 0x0e
    2a22:	df 86       	std	Y+15, r13	; 0x0f
    2a24:	e8 8a       	std	Y+16, r14	; 0x10
    2a26:	f9 8a       	std	Y+17, r15	; 0x11

// Returns temperature in DegC, resolution is 0.01 DegC. Output value of 5123 equals 51.23 DegC.
static int32_t BME280_compensate_T_int32(int32_t adc_T){
	int32_t var1, var2, T;
	var1 = ((((adc_T>>3) - ((int32_t)dig_T1<<1))) * ((int32_t)dig_T2)) >> 11;
    2a28:	80 91 fc 01 	lds	r24, 0x01FC	; 0x8001fc <dig_T1>
    2a2c:	90 91 fd 01 	lds	r25, 0x01FD	; 0x8001fd <dig_T1+0x1>
    2a30:	b0 e0       	ldi	r27, 0x00	; 0
    2a32:	a0 e0       	ldi	r26, 0x00	; 0
	var2 = (((((adc_T>>4) - ((int32_t)dig_T1)) * ((adc_T>>4) - ((int32_t)dig_T1))) >> 12) * ((int32_t)dig_T3)) >> 14;
    2a34:	29 01       	movw	r4, r18
    2a36:	3a 01       	movw	r6, r20
    2a38:	74 e0       	ldi	r23, 0x04	; 4
    2a3a:	75 94       	asr	r7
    2a3c:	67 94       	ror	r6
    2a3e:	57 94       	ror	r5
    2a40:	47 94       	ror	r4
    2a42:	7a 95       	dec	r23
    2a44:	d1 f7       	brne	.-12     	; 0x2a3a <BME280_readout+0x112>
    2a46:	48 1a       	sub	r4, r24
    2a48:	59 0a       	sbc	r5, r25
    2a4a:	6a 0a       	sbc	r6, r26
    2a4c:	7b 0a       	sbc	r7, r27
	var1 = ((((adc_T>>3) - ((int32_t)dig_T1<<1))) * ((int32_t)dig_T2)) >> 11;
    2a4e:	63 e0       	ldi	r22, 0x03	; 3
    2a50:	55 95       	asr	r21
    2a52:	47 95       	ror	r20
    2a54:	37 95       	ror	r19
    2a56:	27 95       	ror	r18
    2a58:	6a 95       	dec	r22
    2a5a:	d1 f7       	brne	.-12     	; 0x2a50 <BME280_readout+0x128>
    2a5c:	88 0f       	add	r24, r24
    2a5e:	99 1f       	adc	r25, r25
    2a60:	aa 1f       	adc	r26, r26
    2a62:	bb 1f       	adc	r27, r27
    2a64:	28 1b       	sub	r18, r24
    2a66:	39 0b       	sbc	r19, r25
    2a68:	4a 0b       	sbc	r20, r26
    2a6a:	5b 0b       	sbc	r21, r27
    2a6c:	a0 91 fa 01 	lds	r26, 0x01FA	; 0x8001fa <dig_T2>
    2a70:	b0 91 fb 01 	lds	r27, 0x01FB	; 0x8001fb <dig_T2+0x1>
    2a74:	0e 94 9e 2f 	call	0x5f3c	; 0x5f3c <__mulshisi3>
    2a78:	6b 01       	movw	r12, r22
    2a7a:	7c 01       	movw	r14, r24
    2a7c:	ab e0       	ldi	r26, 0x0B	; 11
    2a7e:	f5 94       	asr	r15
    2a80:	e7 94       	ror	r14
    2a82:	d7 94       	ror	r13
    2a84:	c7 94       	ror	r12
    2a86:	aa 95       	dec	r26
    2a88:	d1 f7       	brne	.-12     	; 0x2a7e <BME280_readout+0x156>
	var2 = (((((adc_T>>4) - ((int32_t)dig_T1)) * ((adc_T>>4) - ((int32_t)dig_T1))) >> 12) * ((int32_t)dig_T3)) >> 14;
    2a8a:	a3 01       	movw	r20, r6
    2a8c:	92 01       	movw	r18, r4
    2a8e:	c3 01       	movw	r24, r6
    2a90:	b2 01       	movw	r22, r4
    2a92:	0e 94 24 2f 	call	0x5e48	; 0x5e48 <__mulsi3>
    2a96:	9b 01       	movw	r18, r22
    2a98:	ac 01       	movw	r20, r24
    2a9a:	bc e0       	ldi	r27, 0x0C	; 12
    2a9c:	55 95       	asr	r21
    2a9e:	47 95       	ror	r20
    2aa0:	37 95       	ror	r19
    2aa2:	27 95       	ror	r18
    2aa4:	ba 95       	dec	r27
    2aa6:	d1 f7       	brne	.-12     	; 0x2a9c <BME280_readout+0x174>
    2aa8:	a0 91 f8 01 	lds	r26, 0x01F8	; 0x8001f8 <dig_T3>
    2aac:	b0 91 f9 01 	lds	r27, 0x01F9	; 0x8001f9 <dig_T3+0x1>
    2ab0:	0e 94 9e 2f 	call	0x5f3c	; 0x5f3c <__mulshisi3>
    2ab4:	2e e0       	ldi	r18, 0x0E	; 14
    2ab6:	95 95       	asr	r25
    2ab8:	87 95       	ror	r24
    2aba:	77 95       	ror	r23
    2abc:	67 95       	ror	r22
    2abe:	2a 95       	dec	r18
    2ac0:	d1 f7       	brne	.-12     	; 0x2ab6 <BME280_readout+0x18e>
	t_fine = var1 + var2;
    2ac2:	c6 0e       	add	r12, r22
    2ac4:	d7 1e       	adc	r13, r23
    2ac6:	e8 1e       	adc	r14, r24
    2ac8:	f9 1e       	adc	r15, r25
    2aca:	c0 92 d9 01 	sts	0x01D9, r12	; 0x8001d9 <t_fine>
    2ace:	d0 92 da 01 	sts	0x01DA, r13	; 0x8001da <t_fine+0x1>
    2ad2:	e0 92 db 01 	sts	0x01DB, r14	; 0x8001db <t_fine+0x2>
    2ad6:	f0 92 dc 01 	sts	0x01DC, r15	; 0x8001dc <t_fine+0x3>
	T = (t_fine * 5 + 128) >> 8;
    2ada:	a5 e0       	ldi	r26, 0x05	; 5
    2adc:	b0 e0       	ldi	r27, 0x00	; 0
    2ade:	a7 01       	movw	r20, r14
    2ae0:	96 01       	movw	r18, r12
    2ae2:	0e 94 93 2f 	call	0x5f26	; 0x5f26 <__muluhisi3>
    2ae6:	60 58       	subi	r22, 0x80	; 128
    2ae8:	7f 4f       	sbci	r23, 0xFF	; 255
    2aea:	8f 4f       	sbci	r24, 0xFF	; 255
    2aec:	9f 4f       	sbci	r25, 0xFF	; 255
    2aee:	67 2f       	mov	r22, r23
    2af0:	78 2f       	mov	r23, r24
    2af2:	89 2f       	mov	r24, r25
    2af4:	99 27       	eor	r25, r25
    2af6:	87 fd       	sbrc	r24, 7
    2af8:	9a 95       	dec	r25
	*temp_p  = BME280_compensate_T_int32(temp);
    2afa:	d5 01       	movw	r26, r10
    2afc:	6d 93       	st	X+, r22
    2afe:	7d 93       	st	X+, r23
    2b00:	8d 93       	st	X+, r24
    2b02:	9c 93       	st	X, r25
    2b04:	13 97       	sbiw	r26, 0x03	; 3
	
// Returns pressure in Pa as unsigned 32 bit integer. Output value of 96386 equals 96386 Pa = 963.86 hPa
static uint32_t BME280_compensate_P_int32(int32_t adc_P){
	int32_t var1, var2;
	uint32_t p;
	var1 = (((int32_t)t_fine)>>1) - (int32_t)64000;
    2b06:	26 01       	movw	r4, r12
    2b08:	37 01       	movw	r6, r14
    2b0a:	75 94       	asr	r7
    2b0c:	67 94       	ror	r6
    2b0e:	57 94       	ror	r5
    2b10:	47 94       	ror	r4
    2b12:	ba ef       	ldi	r27, 0xFA	; 250
    2b14:	5b 1a       	sub	r5, r27
    2b16:	61 08       	sbc	r6, r1
    2b18:	71 08       	sbc	r7, r1
	var2 = (((var1>>2) * (var1>>2)) >> 11 ) * ((int32_t)dig_P6);
    2b1a:	c3 01       	movw	r24, r6
    2b1c:	b2 01       	movw	r22, r4
    2b1e:	52 e0       	ldi	r21, 0x02	; 2
    2b20:	95 95       	asr	r25
    2b22:	87 95       	ror	r24
    2b24:	77 95       	ror	r23
    2b26:	67 95       	ror	r22
    2b28:	5a 95       	dec	r21
    2b2a:	d1 f7       	brne	.-12     	; 0x2b20 <BME280_readout+0x1f8>
    2b2c:	9b 01       	movw	r18, r22
    2b2e:	ac 01       	movw	r20, r24
    2b30:	0e 94 24 2f 	call	0x5e48	; 0x5e48 <__mulsi3>
    2b34:	6a 87       	std	Y+10, r22	; 0x0a
    2b36:	7b 87       	std	Y+11, r23	; 0x0b
    2b38:	8c 87       	std	Y+12, r24	; 0x0c
    2b3a:	9d 87       	std	Y+13, r25	; 0x0d
	var2 = var2 + ((var1*((int32_t)dig_P5))<<1);
	var2 = (var2>>2)+(((int32_t)dig_P4)<<16);
	var1 = (((dig_P3 * (((var1>>2) * (var1>>2)) >> 13 )) >> 3) + ((((int32_t)dig_P2) * var1)>>1))>>18;
    2b3c:	a0 91 f2 01 	lds	r26, 0x01F2	; 0x8001f2 <dig_P3>
    2b40:	b0 91 f3 01 	lds	r27, 0x01F3	; 0x8001f3 <dig_P3+0x1>
    2b44:	9b 01       	movw	r18, r22
    2b46:	ac 01       	movw	r20, r24
    2b48:	6d e0       	ldi	r22, 0x0D	; 13
    2b4a:	55 95       	asr	r21
    2b4c:	47 95       	ror	r20
    2b4e:	37 95       	ror	r19
    2b50:	27 95       	ror	r18
    2b52:	6a 95       	dec	r22
    2b54:	d1 f7       	brne	.-12     	; 0x2b4a <BME280_readout+0x222>
    2b56:	0e 94 9e 2f 	call	0x5f3c	; 0x5f3c <__mulshisi3>
    2b5a:	4b 01       	movw	r8, r22
    2b5c:	5c 01       	movw	r10, r24
    2b5e:	73 e0       	ldi	r23, 0x03	; 3
    2b60:	b5 94       	asr	r11
    2b62:	a7 94       	ror	r10
    2b64:	97 94       	ror	r9
    2b66:	87 94       	ror	r8
    2b68:	7a 95       	dec	r23
    2b6a:	d1 f7       	brne	.-12     	; 0x2b60 <BME280_readout+0x238>
    2b6c:	a0 91 f4 01 	lds	r26, 0x01F4	; 0x8001f4 <dig_P2>
    2b70:	b0 91 f5 01 	lds	r27, 0x01F5	; 0x8001f5 <dig_P2+0x1>
    2b74:	a3 01       	movw	r20, r6
    2b76:	92 01       	movw	r18, r4
    2b78:	0e 94 9e 2f 	call	0x5f3c	; 0x5f3c <__mulshisi3>
    2b7c:	9b 01       	movw	r18, r22
    2b7e:	ac 01       	movw	r20, r24
    2b80:	55 95       	asr	r21
    2b82:	47 95       	ror	r20
    2b84:	37 95       	ror	r19
    2b86:	27 95       	ror	r18
    2b88:	28 0d       	add	r18, r8
    2b8a:	39 1d       	adc	r19, r9
    2b8c:	4a 1d       	adc	r20, r10
    2b8e:	5b 1d       	adc	r21, r11
    2b90:	b2 e1       	ldi	r27, 0x12	; 18
    2b92:	55 95       	asr	r21
    2b94:	47 95       	ror	r20
    2b96:	37 95       	ror	r19
    2b98:	27 95       	ror	r18
    2b9a:	ba 95       	dec	r27
    2b9c:	d1 f7       	brne	.-12     	; 0x2b92 <BME280_readout+0x26a>
	var1 =((((32768L+var1))*((int32_t)dig_P1))>>15);
    2b9e:	30 58       	subi	r19, 0x80	; 128
    2ba0:	4f 4f       	sbci	r20, 0xFF	; 255
    2ba2:	5f 4f       	sbci	r21, 0xFF	; 255
    2ba4:	a0 91 f6 01 	lds	r26, 0x01F6	; 0x8001f6 <dig_P1>
    2ba8:	b0 91 f7 01 	lds	r27, 0x01F7	; 0x8001f7 <dig_P1+0x1>
    2bac:	0e 94 93 2f 	call	0x5f26	; 0x5f26 <__muluhisi3>
    2bb0:	4b 01       	movw	r8, r22
    2bb2:	5c 01       	movw	r10, r24
    2bb4:	8f e0       	ldi	r24, 0x0F	; 15
    2bb6:	b5 94       	asr	r11
    2bb8:	a7 94       	ror	r10
    2bba:	97 94       	ror	r9
    2bbc:	87 94       	ror	r8
    2bbe:	8a 95       	dec	r24
    2bc0:	d1 f7       	brne	.-12     	; 0x2bb6 <BME280_readout+0x28e>
	if (var1 == 0){
    2bc2:	81 14       	cp	r8, r1
    2bc4:	91 04       	cpc	r9, r1
    2bc6:	a1 04       	cpc	r10, r1
    2bc8:	b1 04       	cpc	r11, r1
    2bca:	09 f4       	brne	.+2      	; 0x2bce <BME280_readout+0x2a6>
    2bcc:	b8 c1       	rjmp	.+880    	; 0x2f3e <BME280_readout+0x616>
	var2 = (((var1>>2) * (var1>>2)) >> 11 ) * ((int32_t)dig_P6);
    2bce:	2a 85       	ldd	r18, Y+10	; 0x0a
    2bd0:	3b 85       	ldd	r19, Y+11	; 0x0b
    2bd2:	4c 85       	ldd	r20, Y+12	; 0x0c
    2bd4:	5d 85       	ldd	r21, Y+13	; 0x0d
    2bd6:	8b e0       	ldi	r24, 0x0B	; 11
    2bd8:	55 95       	asr	r21
    2bda:	47 95       	ror	r20
    2bdc:	37 95       	ror	r19
    2bde:	27 95       	ror	r18
    2be0:	8a 95       	dec	r24
    2be2:	d1 f7       	brne	.-12     	; 0x2bd8 <BME280_readout+0x2b0>
    2be4:	a0 91 ec 01 	lds	r26, 0x01EC	; 0x8001ec <dig_P6>
    2be8:	b0 91 ed 01 	lds	r27, 0x01ED	; 0x8001ed <dig_P6+0x1>
    2bec:	0e 94 9e 2f 	call	0x5f3c	; 0x5f3c <__mulshisi3>
    2bf0:	6a 87       	std	Y+10, r22	; 0x0a
    2bf2:	7b 87       	std	Y+11, r23	; 0x0b
    2bf4:	8c 87       	std	Y+12, r24	; 0x0c
    2bf6:	9d 87       	std	Y+13, r25	; 0x0d
	var2 = var2 + ((var1*((int32_t)dig_P5))<<1);
    2bf8:	a0 91 ee 01 	lds	r26, 0x01EE	; 0x8001ee <dig_P5>
    2bfc:	b0 91 ef 01 	lds	r27, 0x01EF	; 0x8001ef <dig_P5+0x1>
    2c00:	a3 01       	movw	r20, r6
    2c02:	92 01       	movw	r18, r4
    2c04:	0e 94 9e 2f 	call	0x5f3c	; 0x5f3c <__mulshisi3>
    2c08:	dc 01       	movw	r26, r24
    2c0a:	cb 01       	movw	r24, r22
    2c0c:	88 0f       	add	r24, r24
    2c0e:	99 1f       	adc	r25, r25
    2c10:	aa 1f       	adc	r26, r26
    2c12:	bb 1f       	adc	r27, r27
    2c14:	2a 85       	ldd	r18, Y+10	; 0x0a
    2c16:	3b 85       	ldd	r19, Y+11	; 0x0b
    2c18:	4c 85       	ldd	r20, Y+12	; 0x0c
    2c1a:	5d 85       	ldd	r21, Y+13	; 0x0d
    2c1c:	82 0f       	add	r24, r18
    2c1e:	93 1f       	adc	r25, r19
    2c20:	a4 1f       	adc	r26, r20
    2c22:	b5 1f       	adc	r27, r21
	var2 = (var2>>2)+(((int32_t)dig_P4)<<16);
    2c24:	32 e0       	ldi	r19, 0x02	; 2
    2c26:	b5 95       	asr	r27
    2c28:	a7 95       	ror	r26
    2c2a:	97 95       	ror	r25
    2c2c:	87 95       	ror	r24
    2c2e:	3a 95       	dec	r19
    2c30:	d1 f7       	brne	.-12     	; 0x2c26 <BME280_readout+0x2fe>
	int32_t press = (int32_t)(((uint32_t)measurebytes[0]<<12) | ((uint32_t)measurebytes[1]<<4) | (uint32_t)measurebytes[2] >> 4);
    2c32:	2e 2f       	mov	r18, r30
    2c34:	30 e0       	ldi	r19, 0x00	; 0
    2c36:	50 e0       	ldi	r21, 0x00	; 0
    2c38:	40 e0       	ldi	r20, 0x00	; 0
    2c3a:	64 e0       	ldi	r22, 0x04	; 4
    2c3c:	22 0f       	add	r18, r18
    2c3e:	33 1f       	adc	r19, r19
    2c40:	44 1f       	adc	r20, r20
    2c42:	55 1f       	adc	r21, r21
    2c44:	6a 95       	dec	r22
    2c46:	d1 f7       	brne	.-12     	; 0x2c3c <BME280_readout+0x314>
    2c48:	f2 95       	swap	r31
    2c4a:	ff 70       	andi	r31, 0x0F	; 15
    2c4c:	2f 2b       	or	r18, r31
    2c4e:	40 2e       	mov	r4, r16
    2c50:	51 2c       	mov	r5, r1
    2c52:	71 2c       	mov	r7, r1
    2c54:	61 2c       	mov	r6, r1
    2c56:	7c e0       	ldi	r23, 0x0C	; 12
    2c58:	44 0c       	add	r4, r4
    2c5a:	55 1c       	adc	r5, r5
    2c5c:	66 1c       	adc	r6, r6
    2c5e:	77 1c       	adc	r7, r7
    2c60:	7a 95       	dec	r23
    2c62:	d1 f7       	brne	.-12     	; 0x2c58 <BME280_readout+0x330>
    2c64:	24 29       	or	r18, r4
    2c66:	35 29       	or	r19, r5
    2c68:	46 29       	or	r20, r6
    2c6a:	57 29       	or	r21, r7
	var2 = (var2>>2)+(((int32_t)dig_P4)<<16);
    2c6c:	40 90 f0 01 	lds	r4, 0x01F0	; 0x8001f0 <dig_P4>
    2c70:	50 90 f1 01 	lds	r5, 0x01F1	; 0x8001f1 <dig_P4+0x1>
    2c74:	05 2c       	mov	r0, r5
    2c76:	00 0c       	add	r0, r0
    2c78:	66 08       	sbc	r6, r6
    2c7a:	77 08       	sbc	r7, r7
    2c7c:	32 01       	movw	r6, r4
    2c7e:	55 24       	eor	r5, r5
    2c80:	44 24       	eor	r4, r4
    2c82:	84 0d       	add	r24, r4
    2c84:	95 1d       	adc	r25, r5
    2c86:	a6 1d       	adc	r26, r6
    2c88:	b7 1d       	adc	r27, r7
		return 0; // avoid exception caused by division by zero
	}
	p = (((uint32_t)(((int32_t)1048576)-adc_P)-(var2>>12)))*3125L;
    2c8a:	fc e0       	ldi	r31, 0x0C	; 12
    2c8c:	b5 95       	asr	r27
    2c8e:	a7 95       	ror	r26
    2c90:	97 95       	ror	r25
    2c92:	87 95       	ror	r24
    2c94:	fa 95       	dec	r31
    2c96:	d1 f7       	brne	.-12     	; 0x2c8c <BME280_readout+0x364>
    2c98:	28 0f       	add	r18, r24
    2c9a:	39 1f       	adc	r19, r25
    2c9c:	4a 1f       	adc	r20, r26
    2c9e:	5b 1f       	adc	r21, r27
    2ca0:	ab ec       	ldi	r26, 0xCB	; 203
    2ca2:	b3 ef       	ldi	r27, 0xF3	; 243
    2ca4:	0e 94 a1 2f 	call	0x5f42	; 0x5f42 <__mulohisi3>
    2ca8:	80 5b       	subi	r24, 0xB0	; 176
    2caa:	9c 43       	sbci	r25, 0x3C	; 60
	if (p < 0x80000000L){
    2cac:	97 fd       	sbrc	r25, 7
    2cae:	3c c1       	rjmp	.+632    	; 0x2f28 <BME280_readout+0x600>
		p = (p << 1) / ((uint32_t)var1);
    2cb0:	66 0f       	add	r22, r22
    2cb2:	77 1f       	adc	r23, r23
    2cb4:	88 1f       	adc	r24, r24
    2cb6:	99 1f       	adc	r25, r25
    2cb8:	a5 01       	movw	r20, r10
    2cba:	94 01       	movw	r18, r8
    2cbc:	0e 94 5c 2f 	call	0x5eb8	; 0x5eb8 <__udivmodsi4>
    2cc0:	29 01       	movw	r4, r18
    2cc2:	3a 01       	movw	r6, r20
	}else{
		p = (p / (uint32_t)var1) * 2;
	}
	var1 = (((int32_t)dig_P9) * ((int32_t)(((p>>3) * (p>>3))>>13)))>>12;
    2cc4:	c3 01       	movw	r24, r6
    2cc6:	b2 01       	movw	r22, r4
    2cc8:	33 e0       	ldi	r19, 0x03	; 3
    2cca:	96 95       	lsr	r25
    2ccc:	87 95       	ror	r24
    2cce:	77 95       	ror	r23
    2cd0:	67 95       	ror	r22
    2cd2:	3a 95       	dec	r19
    2cd4:	d1 f7       	brne	.-12     	; 0x2cca <BME280_readout+0x3a2>
    2cd6:	9b 01       	movw	r18, r22
    2cd8:	ac 01       	movw	r20, r24
    2cda:	0e 94 24 2f 	call	0x5e48	; 0x5e48 <__mulsi3>
    2cde:	9b 01       	movw	r18, r22
    2ce0:	ac 01       	movw	r20, r24
    2ce2:	6d e0       	ldi	r22, 0x0D	; 13
    2ce4:	56 95       	lsr	r21
    2ce6:	47 95       	ror	r20
    2ce8:	37 95       	ror	r19
    2cea:	27 95       	ror	r18
    2cec:	6a 95       	dec	r22
    2cee:	d1 f7       	brne	.-12     	; 0x2ce4 <BME280_readout+0x3bc>
    2cf0:	a0 91 e6 01 	lds	r26, 0x01E6	; 0x8001e6 <dig_P9>
    2cf4:	b0 91 e7 01 	lds	r27, 0x01E7	; 0x8001e7 <dig_P9+0x1>
    2cf8:	0e 94 9e 2f 	call	0x5f3c	; 0x5f3c <__mulshisi3>
    2cfc:	4b 01       	movw	r8, r22
    2cfe:	5c 01       	movw	r10, r24
    2d00:	7c e0       	ldi	r23, 0x0C	; 12
    2d02:	b5 94       	asr	r11
    2d04:	a7 94       	ror	r10
    2d06:	97 94       	ror	r9
    2d08:	87 94       	ror	r8
    2d0a:	7a 95       	dec	r23
    2d0c:	d1 f7       	brne	.-12     	; 0x2d02 <BME280_readout+0x3da>
	var2 = (((int32_t)(p>>2)) * ((int32_t)dig_P8))>>13;
    2d0e:	a3 01       	movw	r20, r6
    2d10:	92 01       	movw	r18, r4
    2d12:	e2 e0       	ldi	r30, 0x02	; 2
    2d14:	56 95       	lsr	r21
    2d16:	47 95       	ror	r20
    2d18:	37 95       	ror	r19
    2d1a:	27 95       	ror	r18
    2d1c:	ea 95       	dec	r30
    2d1e:	d1 f7       	brne	.-12     	; 0x2d14 <BME280_readout+0x3ec>
    2d20:	a0 91 e8 01 	lds	r26, 0x01E8	; 0x8001e8 <dig_P8>
    2d24:	b0 91 e9 01 	lds	r27, 0x01E9	; 0x8001e9 <dig_P8+0x1>
    2d28:	0e 94 9e 2f 	call	0x5f3c	; 0x5f3c <__mulshisi3>
    2d2c:	fd e0       	ldi	r31, 0x0D	; 13
    2d2e:	95 95       	asr	r25
    2d30:	87 95       	ror	r24
    2d32:	77 95       	ror	r23
    2d34:	67 95       	ror	r22
    2d36:	fa 95       	dec	r31
    2d38:	d1 f7       	brne	.-12     	; 0x2d2e <BME280_readout+0x406>
	p = (uint32_t)((int32_t)p + ((var1 + var2 + dig_P7) >> 4));
    2d3a:	86 0e       	add	r8, r22
    2d3c:	97 1e       	adc	r9, r23
    2d3e:	a8 1e       	adc	r10, r24
    2d40:	b9 1e       	adc	r11, r25
    2d42:	80 91 ea 01 	lds	r24, 0x01EA	; 0x8001ea <dig_P7>
    2d46:	90 91 eb 01 	lds	r25, 0x01EB	; 0x8001eb <dig_P7+0x1>
    2d4a:	09 2e       	mov	r0, r25
    2d4c:	00 0c       	add	r0, r0
    2d4e:	aa 0b       	sbc	r26, r26
    2d50:	bb 0b       	sbc	r27, r27
    2d52:	88 0d       	add	r24, r8
    2d54:	99 1d       	adc	r25, r9
    2d56:	aa 1d       	adc	r26, r10
    2d58:	bb 1d       	adc	r27, r11
    2d5a:	4c 01       	movw	r8, r24
    2d5c:	5d 01       	movw	r10, r26
    2d5e:	a4 e0       	ldi	r26, 0x04	; 4
    2d60:	b5 94       	asr	r11
    2d62:	a7 94       	ror	r10
    2d64:	97 94       	ror	r9
    2d66:	87 94       	ror	r8
    2d68:	aa 95       	dec	r26
    2d6a:	d1 f7       	brne	.-12     	; 0x2d60 <BME280_readout+0x438>
    2d6c:	48 0c       	add	r4, r8
    2d6e:	59 1c       	adc	r5, r9
    2d70:	6a 1c       	adc	r6, r10
    2d72:	7b 1c       	adc	r7, r11
	*press_p = BME280_compensate_P_int32(press);
    2d74:	d1 01       	movw	r26, r2
    2d76:	4d 92       	st	X+, r4
    2d78:	5d 92       	st	X+, r5
    2d7a:	6d 92       	st	X+, r6
    2d7c:	7c 92       	st	X, r7
    2d7e:	13 97       	sbiw	r26, 0x03	; 3

// Returns humidity in %RH as unsigned 32 bit integer in Q22.10 format (22 integer and 10 fractional bits).
// Output value of 47445 represents 47445/1024 = 46.333 %RH
static uint32_t bme280_compensate_H_int32(int32_t adc_H){
	int32_t v_x1_u32r;
	v_x1_u32r = (t_fine - ((int32_t)76800));
    2d80:	bc e2       	ldi	r27, 0x2C	; 44
    2d82:	db 1a       	sub	r13, r27
    2d84:	b1 e0       	ldi	r27, 0x01	; 1
    2d86:	eb 0a       	sbc	r14, r27
    2d88:	f1 08       	sbc	r15, r1
	v_x1_u32r = (((((adc_H << 14) - (((int32_t)dig_H4) << 20) - (((int32_t)dig_H5) * v_x1_u32r)) +
    2d8a:	8e 84       	ldd	r8, Y+14	; 0x0e
    2d8c:	9f 84       	ldd	r9, Y+15	; 0x0f
    2d8e:	a8 88       	ldd	r10, Y+16	; 0x10
    2d90:	b9 88       	ldd	r11, Y+17	; 0x11
    2d92:	3e e0       	ldi	r19, 0x0E	; 14
    2d94:	88 0c       	add	r8, r8
    2d96:	99 1c       	adc	r9, r9
    2d98:	aa 1c       	adc	r10, r10
    2d9a:	bb 1c       	adc	r11, r11
    2d9c:	3a 95       	dec	r19
    2d9e:	d1 f7       	brne	.-12     	; 0x2d94 <BME280_readout+0x46c>
    2da0:	80 91 e0 01 	lds	r24, 0x01E0	; 0x8001e0 <dig_H4>
    2da4:	90 91 e1 01 	lds	r25, 0x01E1	; 0x8001e1 <dig_H4+0x1>
    2da8:	09 2e       	mov	r0, r25
    2daa:	00 0c       	add	r0, r0
    2dac:	aa 0b       	sbc	r26, r26
    2dae:	bb 0b       	sbc	r27, r27
    2db0:	44 e1       	ldi	r20, 0x14	; 20
    2db2:	88 0f       	add	r24, r24
    2db4:	99 1f       	adc	r25, r25
    2db6:	aa 1f       	adc	r26, r26
    2db8:	bb 1f       	adc	r27, r27
    2dba:	4a 95       	dec	r20
    2dbc:	d1 f7       	brne	.-12     	; 0x2db2 <BME280_readout+0x48a>
    2dbe:	88 1a       	sub	r8, r24
    2dc0:	99 0a       	sbc	r9, r25
    2dc2:	aa 0a       	sbc	r10, r26
    2dc4:	bb 0a       	sbc	r11, r27
    2dc6:	a0 91 de 01 	lds	r26, 0x01DE	; 0x8001de <dig_H5>
    2dca:	b0 91 df 01 	lds	r27, 0x01DF	; 0x8001df <dig_H5+0x1>
    2dce:	a7 01       	movw	r20, r14
    2dd0:	96 01       	movw	r18, r12
    2dd2:	0e 94 9e 2f 	call	0x5f3c	; 0x5f3c <__mulshisi3>
    2dd6:	86 1a       	sub	r8, r22
    2dd8:	97 0a       	sbc	r9, r23
    2dda:	a8 0a       	sbc	r10, r24
    2ddc:	b9 0a       	sbc	r11, r25
    2dde:	e0 e4       	ldi	r30, 0x40	; 64
    2de0:	9e 0e       	add	r9, r30
    2de2:	a1 1c       	adc	r10, r1
    2de4:	b1 1c       	adc	r11, r1
		((int32_t)16384)) >> 15) * (((((((v_x1_u32r * ((int32_t)dig_H6)) >> 10) * (((v_x1_u32r *	
    2de6:	6f e0       	ldi	r22, 0x0F	; 15
    2de8:	b5 94       	asr	r11
    2dea:	a7 94       	ror	r10
    2dec:	97 94       	ror	r9
    2dee:	87 94       	ror	r8
    2df0:	6a 95       	dec	r22
    2df2:	d1 f7       	brne	.-12     	; 0x2de8 <BME280_readout+0x4c0>
		((int32_t)dig_H3)) >> 11) + ((int32_t)32768))) >> 10) + ((int32_t)2097152)) *
    2df4:	a0 91 e2 01 	lds	r26, 0x01E2	; 0x8001e2 <dig_H3>
		((int32_t)16384)) >> 15) * (((((((v_x1_u32r * ((int32_t)dig_H6)) >> 10) * (((v_x1_u32r *	
    2df8:	b0 e0       	ldi	r27, 0x00	; 0
    2dfa:	0e 94 93 2f 	call	0x5f26	; 0x5f26 <__muluhisi3>
		((int32_t)dig_H3)) >> 11) + ((int32_t)32768))) >> 10) + ((int32_t)2097152)) *
    2dfe:	2b 01       	movw	r4, r22
    2e00:	3c 01       	movw	r6, r24
    2e02:	7b e0       	ldi	r23, 0x0B	; 11
    2e04:	75 94       	asr	r7
    2e06:	67 94       	ror	r6
    2e08:	57 94       	ror	r5
    2e0a:	47 94       	ror	r4
    2e0c:	7a 95       	dec	r23
    2e0e:	d1 f7       	brne	.-12     	; 0x2e04 <BME280_readout+0x4dc>
    2e10:	f0 e8       	ldi	r31, 0x80	; 128
    2e12:	5f 0e       	add	r5, r31
    2e14:	61 1c       	adc	r6, r1
    2e16:	71 1c       	adc	r7, r1
		((int32_t)16384)) >> 15) * (((((((v_x1_u32r * ((int32_t)dig_H6)) >> 10) * (((v_x1_u32r *	
    2e18:	a0 91 dd 01 	lds	r26, 0x01DD	; 0x8001dd <dig_H6>
    2e1c:	0a 2e       	mov	r0, r26
    2e1e:	00 0c       	add	r0, r0
    2e20:	bb 0b       	sbc	r27, r27
    2e22:	0e 94 9e 2f 	call	0x5f3c	; 0x5f3c <__mulshisi3>
    2e26:	ea e0       	ldi	r30, 0x0A	; 10
    2e28:	95 95       	asr	r25
    2e2a:	87 95       	ror	r24
    2e2c:	77 95       	ror	r23
    2e2e:	67 95       	ror	r22
    2e30:	ea 95       	dec	r30
    2e32:	d1 f7       	brne	.-12     	; 0x2e28 <BME280_readout+0x500>
    2e34:	a3 01       	movw	r20, r6
    2e36:	92 01       	movw	r18, r4
    2e38:	0e 94 24 2f 	call	0x5e48	; 0x5e48 <__mulsi3>
		((int32_t)dig_H3)) >> 11) + ((int32_t)32768))) >> 10) + ((int32_t)2097152)) *
    2e3c:	9b 01       	movw	r18, r22
    2e3e:	ac 01       	movw	r20, r24
    2e40:	fa e0       	ldi	r31, 0x0A	; 10
    2e42:	55 95       	asr	r21
    2e44:	47 95       	ror	r20
    2e46:	37 95       	ror	r19
    2e48:	27 95       	ror	r18
    2e4a:	fa 95       	dec	r31
    2e4c:	d1 f7       	brne	.-12     	; 0x2e42 <BME280_readout+0x51a>
    2e4e:	40 5e       	subi	r20, 0xE0	; 224
    2e50:	5f 4f       	sbci	r21, 0xFF	; 255
		((int32_t)dig_H2) + 8192) >> 14));
    2e52:	a0 91 e3 01 	lds	r26, 0x01E3	; 0x8001e3 <dig_H2>
    2e56:	b0 91 e4 01 	lds	r27, 0x01E4	; 0x8001e4 <dig_H2+0x1>
		((int32_t)dig_H3)) >> 11) + ((int32_t)32768))) >> 10) + ((int32_t)2097152)) *
    2e5a:	0e 94 9e 2f 	call	0x5f3c	; 0x5f3c <__mulshisi3>
		((int32_t)dig_H2) + 8192) >> 14));
    2e5e:	70 5e       	subi	r23, 0xE0	; 224
    2e60:	8f 4f       	sbci	r24, 0xFF	; 255
    2e62:	9f 4f       	sbci	r25, 0xFF	; 255
    2e64:	ae e0       	ldi	r26, 0x0E	; 14
    2e66:	95 95       	asr	r25
    2e68:	87 95       	ror	r24
    2e6a:	77 95       	ror	r23
    2e6c:	67 95       	ror	r22
    2e6e:	aa 95       	dec	r26
    2e70:	d1 f7       	brne	.-12     	; 0x2e66 <BME280_readout+0x53e>
	v_x1_u32r = (((((adc_H << 14) - (((int32_t)dig_H4) << 20) - (((int32_t)dig_H5) * v_x1_u32r)) +
    2e72:	a5 01       	movw	r20, r10
    2e74:	94 01       	movw	r18, r8
    2e76:	0e 94 24 2f 	call	0x5e48	; 0x5e48 <__mulsi3>
    2e7a:	6b 01       	movw	r12, r22
    2e7c:	7c 01       	movw	r14, r24
	v_x1_u32r = (v_x1_u32r - (((((v_x1_u32r >> 15) * (v_x1_u32r >> 15)) >> 7) * ((int32_t)dig_H1)) >> 4));
    2e7e:	bf e0       	ldi	r27, 0x0F	; 15
    2e80:	95 95       	asr	r25
    2e82:	87 95       	ror	r24
    2e84:	77 95       	ror	r23
    2e86:	67 95       	ror	r22
    2e88:	ba 95       	dec	r27
    2e8a:	d1 f7       	brne	.-12     	; 0x2e80 <BME280_readout+0x558>
    2e8c:	9b 01       	movw	r18, r22
    2e8e:	ac 01       	movw	r20, r24
    2e90:	0e 94 24 2f 	call	0x5e48	; 0x5e48 <__mulsi3>
    2e94:	9b 01       	movw	r18, r22
    2e96:	ac 01       	movw	r20, r24
    2e98:	07 e0       	ldi	r16, 0x07	; 7
    2e9a:	55 95       	asr	r21
    2e9c:	47 95       	ror	r20
    2e9e:	37 95       	ror	r19
    2ea0:	27 95       	ror	r18
    2ea2:	0a 95       	dec	r16
    2ea4:	d1 f7       	brne	.-12     	; 0x2e9a <BME280_readout+0x572>
    2ea6:	a0 91 e5 01 	lds	r26, 0x01E5	; 0x8001e5 <dig_H1>
    2eaa:	b0 e0       	ldi	r27, 0x00	; 0
    2eac:	0e 94 93 2f 	call	0x5f26	; 0x5f26 <__muluhisi3>
    2eb0:	24 e0       	ldi	r18, 0x04	; 4
    2eb2:	95 95       	asr	r25
    2eb4:	87 95       	ror	r24
    2eb6:	77 95       	ror	r23
    2eb8:	67 95       	ror	r22
    2eba:	2a 95       	dec	r18
    2ebc:	d1 f7       	brne	.-12     	; 0x2eb2 <BME280_readout+0x58a>
	v_x1_u32r = (v_x1_u32r < 0 ? 0 : v_x1_u32r);
    2ebe:	a7 01       	movw	r20, r14
    2ec0:	96 01       	movw	r18, r12
    2ec2:	26 1b       	sub	r18, r22
    2ec4:	37 0b       	sbc	r19, r23
    2ec6:	48 0b       	sbc	r20, r24
    2ec8:	59 0b       	sbc	r21, r25
    2eca:	da 01       	movw	r26, r20
    2ecc:	c9 01       	movw	r24, r18
    2ece:	b7 ff       	sbrs	r27, 7
    2ed0:	03 c0       	rjmp	.+6      	; 0x2ed8 <BME280_readout+0x5b0>
    2ed2:	80 e0       	ldi	r24, 0x00	; 0
    2ed4:	90 e0       	ldi	r25, 0x00	; 0
    2ed6:	dc 01       	movw	r26, r24
	v_x1_u32r = (v_x1_u32r > 419430400L ? 419430400L : v_x1_u32r);
    2ed8:	81 30       	cpi	r24, 0x01	; 1
    2eda:	91 05       	cpc	r25, r1
    2edc:	a1 05       	cpc	r26, r1
    2ede:	39 e1       	ldi	r19, 0x19	; 25
    2ee0:	b3 07       	cpc	r27, r19
    2ee2:	24 f0       	brlt	.+8      	; 0x2eec <BME280_readout+0x5c4>
    2ee4:	80 e0       	ldi	r24, 0x00	; 0
    2ee6:	90 e0       	ldi	r25, 0x00	; 0
    2ee8:	a0 e0       	ldi	r26, 0x00	; 0
    2eea:	b9 e1       	ldi	r27, 0x19	; 25
	return (uint32_t)(v_x1_u32r>>12);
    2eec:	2c e0       	ldi	r18, 0x0C	; 12
    2eee:	b5 95       	asr	r27
    2ef0:	a7 95       	ror	r26
    2ef2:	97 95       	ror	r25
    2ef4:	87 95       	ror	r24
    2ef6:	2a 95       	dec	r18
    2ef8:	d1 f7       	brne	.-12     	; 0x2eee <BME280_readout+0x5c6>
	*hum_p   = bme280_compensate_H_int32(hum);
    2efa:	ea 89       	ldd	r30, Y+18	; 0x12
    2efc:	fb 89       	ldd	r31, Y+19	; 0x13
    2efe:	80 83       	st	Z, r24
    2f00:	91 83       	std	Z+1, r25	; 0x01
    2f02:	a2 83       	std	Z+2, r26	; 0x02
    2f04:	b3 83       	std	Z+3, r27	; 0x03
	return 0;
    2f06:	37 cd       	rjmp	.-1426   	; 0x2976 <BME280_readout+0x4e>
		ctrl_meas |= BME280_MODE_FORCE;
    2f08:	81 60       	ori	r24, 0x01	; 1
    2f0a:	89 87       	std	Y+9, r24	; 0x09
		failed |= BME280_write(&ctrl_meas, 1, 0xF4);
    2f0c:	64 ef       	ldi	r22, 0xF4	; 244
    2f0e:	ce 01       	movw	r24, r28
    2f10:	09 96       	adiw	r24, 0x09	; 9
    2f12:	0e 94 15 13 	call	0x262a	; 0x262a <BME280_write.constprop.2>
		if (failed){
    2f16:	81 11       	cpse	r24, r1
    2f18:	2d cd       	rjmp	.-1446   	; 0x2974 <BME280_readout+0x4c>
		failed |= BME280_waitfor_status(BME_280_STAT_MEASURING);
    2f1a:	88 e0       	ldi	r24, 0x08	; 8
    2f1c:	0e 94 f6 12 	call	0x25ec	; 0x25ec <BME280_waitfor_status>
		if (failed){
    2f20:	88 23       	and	r24, r24
    2f22:	09 f4       	brne	.+2      	; 0x2f26 <BME280_readout+0x5fe>
    2f24:	47 cd       	rjmp	.-1394   	; 0x29b4 <BME280_readout+0x8c>
    2f26:	26 cd       	rjmp	.-1460   	; 0x2974 <BME280_readout+0x4c>
		p = (p / (uint32_t)var1) * 2;
    2f28:	a5 01       	movw	r20, r10
    2f2a:	94 01       	movw	r18, r8
    2f2c:	0e 94 5c 2f 	call	0x5eb8	; 0x5eb8 <__udivmodsi4>
    2f30:	29 01       	movw	r4, r18
    2f32:	3a 01       	movw	r6, r20
    2f34:	44 0c       	add	r4, r4
    2f36:	55 1c       	adc	r5, r5
    2f38:	66 1c       	adc	r6, r6
    2f3a:	77 1c       	adc	r7, r7
    2f3c:	c3 ce       	rjmp	.-634    	; 0x2cc4 <BME280_readout+0x39c>
		return 0; // avoid exception caused by division by zero
    2f3e:	41 2c       	mov	r4, r1
    2f40:	51 2c       	mov	r5, r1
    2f42:	32 01       	movw	r6, r4
    2f44:	17 cf       	rjmp	.-466    	; 0x2d74 <BME280_readout+0x44c>

00002f46 <i2c_init>:
*************************************************************************/
void i2c_init(void)
{
  /* initialize TWI clock: 100 kHz clock, TWPS = 0 => prescaler = 1 */
                           /* no prescaler */
  TWBR = 32;  /* must be > 10 for stable operation */
    2f46:	80 e2       	ldi	r24, 0x20	; 32
    2f48:	80 93 b8 00 	sts	0x00B8, r24	; 0x8000b8 <__TEXT_REGION_LENGTH__+0x7e00b8>

}/* i2c_init */
    2f4c:	08 95       	ret

00002f4e <i2c_start>:
unsigned char i2c_start(unsigned char address)
{
    uint8_t   twst;

	// send START condition
	TWCR = (1<<TWINT) | (1<<TWSTA) | (1<<TWEN);
    2f4e:	94 ea       	ldi	r25, 0xA4	; 164
    2f50:	90 93 bc 00 	sts	0x00BC, r25	; 0x8000bc <__TEXT_REGION_LENGTH__+0x7e00bc>

	// wait until transmission completed
	while(!(TWCR & (1<<TWINT)));
    2f54:	90 91 bc 00 	lds	r25, 0x00BC	; 0x8000bc <__TEXT_REGION_LENGTH__+0x7e00bc>
    2f58:	97 ff       	sbrs	r25, 7
    2f5a:	fc cf       	rjmp	.-8      	; 0x2f54 <i2c_start+0x6>

	// check value of TWI Status Register. Mask prescaler bits.
	twst = TW_STATUS & 0xF8;
    2f5c:	90 91 b9 00 	lds	r25, 0x00B9	; 0x8000b9 <__TEXT_REGION_LENGTH__+0x7e00b9>
    2f60:	98 7f       	andi	r25, 0xF8	; 248
	if ( (twst != TW_START) && (twst != TW_REP_START)) return 1;
    2f62:	98 30       	cpi	r25, 0x08	; 8
    2f64:	11 f0       	breq	.+4      	; 0x2f6a <i2c_start+0x1c>
    2f66:	90 31       	cpi	r25, 0x10	; 16
    2f68:	99 f4       	brne	.+38     	; 0x2f90 <i2c_start+0x42>

	// send device address
	TWDR = address;
    2f6a:	80 93 bb 00 	sts	0x00BB, r24	; 0x8000bb <__TEXT_REGION_LENGTH__+0x7e00bb>
	TWCR = (1<<TWINT) | (1<<TWEN);
    2f6e:	84 e8       	ldi	r24, 0x84	; 132
    2f70:	80 93 bc 00 	sts	0x00BC, r24	; 0x8000bc <__TEXT_REGION_LENGTH__+0x7e00bc>

	// wail until transmission completed and ACK/NACK has been received
	while(!(TWCR & (1<<TWINT)));
    2f74:	80 91 bc 00 	lds	r24, 0x00BC	; 0x8000bc <__TEXT_REGION_LENGTH__+0x7e00bc>
    2f78:	87 ff       	sbrs	r24, 7
    2f7a:	fc cf       	rjmp	.-8      	; 0x2f74 <i2c_start+0x26>

	// check value of TWI Status Register. Mask prescaler bits.
	twst = TW_STATUS & 0xF8;
    2f7c:	90 91 b9 00 	lds	r25, 0x00B9	; 0x8000b9 <__TEXT_REGION_LENGTH__+0x7e00b9>
    2f80:	98 7f       	andi	r25, 0xF8	; 248
	if ( (twst != TW_MT_SLA_ACK) && (twst != TW_MR_SLA_ACK) ) return 1;
    2f82:	98 31       	cpi	r25, 0x18	; 24
    2f84:	19 f0       	breq	.+6      	; 0x2f8c <i2c_start+0x3e>
    2f86:	81 e0       	ldi	r24, 0x01	; 1
    2f88:	90 34       	cpi	r25, 0x40	; 64
    2f8a:	09 f4       	brne	.+2      	; 0x2f8e <i2c_start+0x40>

	return 0;
    2f8c:	80 e0       	ldi	r24, 0x00	; 0

}/* i2c_start */
    2f8e:	08 95       	ret
	if ( (twst != TW_START) && (twst != TW_REP_START)) return 1;
    2f90:	81 e0       	ldi	r24, 0x01	; 1
    2f92:	08 95       	ret

00002f94 <i2c_start_wait>:


    while ( 1 )
    {
	    // send START condition
	    TWCR = (1<<TWINT) | (1<<TWSTA) | (1<<TWEN);
    2f94:	24 ea       	ldi	r18, 0xA4	; 164
    	twst = TW_STATUS & 0xF8;
    	if ( (twst != TW_START) && (twst != TW_REP_START)) continue;
    
    	// send device address
    	TWDR = address;
    	TWCR = (1<<TWINT) | (1<<TWEN);
    2f96:	34 e8       	ldi	r19, 0x84	; 132
    	// check value of TWI Status Register. Mask prescaler bits.
    	twst = TW_STATUS & 0xF8;
    	if ( (twst == TW_MT_SLA_NACK )||(twst ==TW_MR_DATA_NACK) ) 
    	{    	    
    	    /* device busy, send stop condition to terminate write operation */
	        TWCR = (1<<TWINT) | (1<<TWEN) | (1<<TWSTO);
    2f98:	44 e9       	ldi	r20, 0x94	; 148
	    TWCR = (1<<TWINT) | (1<<TWSTA) | (1<<TWEN);
    2f9a:	20 93 bc 00 	sts	0x00BC, r18	; 0x8000bc <__TEXT_REGION_LENGTH__+0x7e00bc>
    	while(!(TWCR & (1<<TWINT)));
    2f9e:	90 91 bc 00 	lds	r25, 0x00BC	; 0x8000bc <__TEXT_REGION_LENGTH__+0x7e00bc>
    2fa2:	97 ff       	sbrs	r25, 7
    2fa4:	fc cf       	rjmp	.-8      	; 0x2f9e <i2c_start_wait+0xa>
    	twst = TW_STATUS & 0xF8;
    2fa6:	90 91 b9 00 	lds	r25, 0x00B9	; 0x8000b9 <__TEXT_REGION_LENGTH__+0x7e00b9>
    2faa:	98 7f       	andi	r25, 0xF8	; 248
    	if ( (twst != TW_START) && (twst != TW_REP_START)) continue;
    2fac:	98 30       	cpi	r25, 0x08	; 8
    2fae:	11 f0       	breq	.+4      	; 0x2fb4 <i2c_start_wait+0x20>
    2fb0:	90 31       	cpi	r25, 0x10	; 16
    2fb2:	99 f7       	brne	.-26     	; 0x2f9a <i2c_start_wait+0x6>
    	TWDR = address;
    2fb4:	80 93 bb 00 	sts	0x00BB, r24	; 0x8000bb <__TEXT_REGION_LENGTH__+0x7e00bb>
    	TWCR = (1<<TWINT) | (1<<TWEN);
    2fb8:	30 93 bc 00 	sts	0x00BC, r19	; 0x8000bc <__TEXT_REGION_LENGTH__+0x7e00bc>
    	while(!(TWCR & (1<<TWINT)));
    2fbc:	90 91 bc 00 	lds	r25, 0x00BC	; 0x8000bc <__TEXT_REGION_LENGTH__+0x7e00bc>
    2fc0:	97 ff       	sbrs	r25, 7
    2fc2:	fc cf       	rjmp	.-8      	; 0x2fbc <i2c_start_wait+0x28>
    	twst = TW_STATUS & 0xF8;
    2fc4:	90 91 b9 00 	lds	r25, 0x00B9	; 0x8000b9 <__TEXT_REGION_LENGTH__+0x7e00b9>
    2fc8:	98 7f       	andi	r25, 0xF8	; 248
    	if ( (twst == TW_MT_SLA_NACK )||(twst ==TW_MR_DATA_NACK) ) 
    2fca:	90 32       	cpi	r25, 0x20	; 32
    2fcc:	11 f0       	breq	.+4      	; 0x2fd2 <i2c_start_wait+0x3e>
    2fce:	98 35       	cpi	r25, 0x58	; 88
    2fd0:	39 f4       	brne	.+14     	; 0x2fe0 <i2c_start_wait+0x4c>
	        TWCR = (1<<TWINT) | (1<<TWEN) | (1<<TWSTO);
    2fd2:	40 93 bc 00 	sts	0x00BC, r20	; 0x8000bc <__TEXT_REGION_LENGTH__+0x7e00bc>
	        
	        // wait until stop condition is executed and bus released
	        while(TWCR & (1<<TWSTO));
    2fd6:	90 91 bc 00 	lds	r25, 0x00BC	; 0x8000bc <__TEXT_REGION_LENGTH__+0x7e00bc>
    2fda:	94 fd       	sbrc	r25, 4
    2fdc:	fc cf       	rjmp	.-8      	; 0x2fd6 <i2c_start_wait+0x42>
    2fde:	dd cf       	rjmp	.-70     	; 0x2f9a <i2c_start_wait+0x6>
    	}
    	//if( twst != TW_MT_SLA_ACK) return 1;
    	break;
     }

}/* i2c_start_wait */
    2fe0:	08 95       	ret

00002fe2 <i2c_rep_start>:
 Return:  0 device accessible
          1 failed to access device
*************************************************************************/
unsigned char i2c_rep_start(unsigned char address)
{
    return i2c_start( address );
    2fe2:	0c 94 a7 17 	jmp	0x2f4e	; 0x2f4e <i2c_start>

00002fe6 <i2c_stop>:
 Terminates the data transfer and releases the I2C bus
*************************************************************************/
void i2c_stop(void)
{
    /* send stop condition */
	TWCR = (1<<TWINT) | (1<<TWEN) | (1<<TWSTO);
    2fe6:	84 e9       	ldi	r24, 0x94	; 148
    2fe8:	80 93 bc 00 	sts	0x00BC, r24	; 0x8000bc <__TEXT_REGION_LENGTH__+0x7e00bc>
	
	// wait until stop condition is executed and bus released
	while(TWCR & (1<<TWSTO));
    2fec:	80 91 bc 00 	lds	r24, 0x00BC	; 0x8000bc <__TEXT_REGION_LENGTH__+0x7e00bc>
    2ff0:	84 fd       	sbrc	r24, 4
    2ff2:	fc cf       	rjmp	.-8      	; 0x2fec <i2c_stop+0x6>

}/* i2c_stop */
    2ff4:	08 95       	ret

00002ff6 <i2c_write>:
unsigned char i2c_write( unsigned char data )
{	
    uint8_t   twst;
    
	// send data to the previously addressed device
	TWDR = data;
    2ff6:	80 93 bb 00 	sts	0x00BB, r24	; 0x8000bb <__TEXT_REGION_LENGTH__+0x7e00bb>
	TWCR = (1<<TWINT) | (1<<TWEN);
    2ffa:	84 e8       	ldi	r24, 0x84	; 132
    2ffc:	80 93 bc 00 	sts	0x00BC, r24	; 0x8000bc <__TEXT_REGION_LENGTH__+0x7e00bc>

	// wait until transmission completed
	while(!(TWCR & (1<<TWINT)));
    3000:	80 91 bc 00 	lds	r24, 0x00BC	; 0x8000bc <__TEXT_REGION_LENGTH__+0x7e00bc>
    3004:	87 ff       	sbrs	r24, 7
    3006:	fc cf       	rjmp	.-8      	; 0x3000 <i2c_write+0xa>

	// check value of TWI Status Register. Mask prescaler bits
	twst = TW_STATUS & 0xF8;
    3008:	90 91 b9 00 	lds	r25, 0x00B9	; 0x8000b9 <__TEXT_REGION_LENGTH__+0x7e00b9>
    300c:	98 7f       	andi	r25, 0xF8	; 248
	if( twst != TW_MT_DATA_ACK) return 1;
    300e:	81 e0       	ldi	r24, 0x01	; 1
    3010:	98 32       	cpi	r25, 0x28	; 40
    3012:	09 f4       	brne	.+2      	; 0x3016 <i2c_write+0x20>
    3014:	80 e0       	ldi	r24, 0x00	; 0
	return 0;

}/* i2c_write */
    3016:	08 95       	ret

00003018 <i2c_readAck>:
 
 Return:  byte read from I2C device
*************************************************************************/
unsigned char i2c_readAck(void)
{
	TWCR = (1<<TWINT) | (1<<TWEN) | (1<<TWEA);
    3018:	84 ec       	ldi	r24, 0xC4	; 196
    301a:	80 93 bc 00 	sts	0x00BC, r24	; 0x8000bc <__TEXT_REGION_LENGTH__+0x7e00bc>
	while(!(TWCR & (1<<TWINT)));    
    301e:	80 91 bc 00 	lds	r24, 0x00BC	; 0x8000bc <__TEXT_REGION_LENGTH__+0x7e00bc>
    3022:	87 ff       	sbrs	r24, 7
    3024:	fc cf       	rjmp	.-8      	; 0x301e <i2c_readAck+0x6>

    return TWDR;
    3026:	80 91 bb 00 	lds	r24, 0x00BB	; 0x8000bb <__TEXT_REGION_LENGTH__+0x7e00bb>

}/* i2c_readAck */
    302a:	08 95       	ret

0000302c <i2c_readNak>:
 
 Return:  byte read from I2C device
*************************************************************************/
unsigned char i2c_readNak(void)
{
	TWCR = (1<<TWINT) | (1<<TWEN);
    302c:	84 e8       	ldi	r24, 0x84	; 132
    302e:	80 93 bc 00 	sts	0x00BC, r24	; 0x8000bc <__TEXT_REGION_LENGTH__+0x7e00bc>
	while(!(TWCR & (1<<TWINT)));
    3032:	80 91 bc 00 	lds	r24, 0x00BC	; 0x8000bc <__TEXT_REGION_LENGTH__+0x7e00bc>
    3036:	87 ff       	sbrs	r24, 7
    3038:	fc cf       	rjmp	.-8      	; 0x3032 <i2c_readNak+0x6>
	
    return TWDR;
    303a:	80 91 bb 00 	lds	r24, 0x00BB	; 0x8000bb <__TEXT_REGION_LENGTH__+0x7e00bb>

}/* i2c_readNak */
    303e:	08 95       	ret

00003040 <uart_init>:
#define USE_SLEEP 1

void uart_init()
{
    /* set baud rate */
    UBRRH = UBRRVAL >> 8;
    3040:	10 92 c5 00 	sts	0x00C5, r1	; 0x8000c5 <__TEXT_REGION_LENGTH__+0x7e00c5>
    UBRRL = UBRRVAL & 0xff;
    3044:	87 e6       	ldi	r24, 0x67	; 103
    3046:	80 93 c4 00 	sts	0x00C4, r24	; 0x8000c4 <__TEXT_REGION_LENGTH__+0x7e00c4>
    /* set frame format: 8 bit, no parity, 1 bit */
    UCSRC = UCSRC_SELECT | (1 << UCSZ1) | (1 << UCSZ0);
    304a:	86 e0       	ldi	r24, 0x06	; 6
    304c:	80 93 c2 00 	sts	0x00C2, r24	; 0x8000c2 <__TEXT_REGION_LENGTH__+0x7e00c2>
    /* enable serial receiver and transmitter */
#if !USE_SLEEP
    UCSRB = (1 << RXEN) | (1 << TXEN);
#else
    UCSRB = (1 << RXEN) | (1 << TXEN) | (1 << RXCIE);
    3050:	88 e9       	ldi	r24, 0x98	; 152
    3052:	80 93 c1 00 	sts	0x00C1, r24	; 0x8000c1 <__TEXT_REGION_LENGTH__+0x7e00c1>
#endif
}
    3056:	08 95       	ret

00003058 <uart_putc>:

void uart_putc(uint8_t c)
{
    3058:	cf 93       	push	r28
    305a:	c8 2f       	mov	r28, r24
    if(c == '\n')
    305c:	8a 30       	cpi	r24, 0x0A	; 10
    305e:	19 f4       	brne	.+6      	; 0x3066 <uart_putc+0xe>
        uart_putc('\r');
    3060:	8d e0       	ldi	r24, 0x0D	; 13
    3062:	0e 94 2c 18 	call	0x3058	; 0x3058 <uart_putc>

    /* wait until transmit buffer is empty */
    while(!(UCSRA & (1 << UDRE)));
    3066:	80 91 c0 00 	lds	r24, 0x00C0	; 0x8000c0 <__TEXT_REGION_LENGTH__+0x7e00c0>
    306a:	85 ff       	sbrs	r24, 5
    306c:	fc cf       	rjmp	.-8      	; 0x3066 <uart_putc+0xe>

    /* send next byte */
    UDR = c;
    306e:	c0 93 c6 00 	sts	0x00C6, r28	; 0x8000c6 <__TEXT_REGION_LENGTH__+0x7e00c6>
}
    3072:	cf 91       	pop	r28
    3074:	08 95       	ret

00003076 <uart_putc_hex>:

void uart_putc_hex(uint8_t b)
{
    3076:	cf 93       	push	r28
    3078:	c8 2f       	mov	r28, r24
    /* upper nibble */
    if((b >> 4) < 0x0a)
    307a:	82 95       	swap	r24
    307c:	8f 70       	andi	r24, 0x0F	; 15
    307e:	8a 30       	cpi	r24, 0x0A	; 10
    3080:	58 f4       	brcc	.+22     	; 0x3098 <uart_putc_hex+0x22>
        uart_putc((b >> 4) + '0');
    3082:	80 5d       	subi	r24, 0xD0	; 208
    else
        uart_putc((b >> 4) - 0x0a + 'a');
    3084:	0e 94 2c 18 	call	0x3058	; 0x3058 <uart_putc>

    /* lower nibble */
    if((b & 0x0f) < 0x0a)
    3088:	8c 2f       	mov	r24, r28
    308a:	8f 70       	andi	r24, 0x0F	; 15
    308c:	8a 30       	cpi	r24, 0x0A	; 10
    308e:	30 f4       	brcc	.+12     	; 0x309c <uart_putc_hex+0x26>
        uart_putc((b & 0x0f) + '0');
    3090:	80 5d       	subi	r24, 0xD0	; 208
    else
        uart_putc((b & 0x0f) - 0x0a + 'a');
}
    3092:	cf 91       	pop	r28
        uart_putc((b & 0x0f) - 0x0a + 'a');
    3094:	0c 94 2c 18 	jmp	0x3058	; 0x3058 <uart_putc>
        uart_putc((b >> 4) - 0x0a + 'a');
    3098:	89 5a       	subi	r24, 0xA9	; 169
    309a:	f4 cf       	rjmp	.-24     	; 0x3084 <uart_putc_hex+0xe>
        uart_putc((b & 0x0f) - 0x0a + 'a');
    309c:	89 5a       	subi	r24, 0xA9	; 169
    309e:	f9 cf       	rjmp	.-14     	; 0x3092 <uart_putc_hex+0x1c>

000030a0 <uart_putw_hex>:

void uart_putw_hex(uint16_t w)
{
    30a0:	cf 93       	push	r28
    30a2:	c8 2f       	mov	r28, r24
    uart_putc_hex((uint8_t) (w >> 8));
    30a4:	89 2f       	mov	r24, r25
    30a6:	0e 94 3b 18 	call	0x3076	; 0x3076 <uart_putc_hex>
    uart_putc_hex((uint8_t) (w & 0xff));
    30aa:	8c 2f       	mov	r24, r28
}
    30ac:	cf 91       	pop	r28
    uart_putc_hex((uint8_t) (w & 0xff));
    30ae:	0c 94 3b 18 	jmp	0x3076	; 0x3076 <uart_putc_hex>

000030b2 <uart_putdw_hex>:

void uart_putdw_hex(uint32_t dw)
{
    30b2:	cf 92       	push	r12
    30b4:	df 92       	push	r13
    30b6:	ef 92       	push	r14
    30b8:	ff 92       	push	r15
    30ba:	6b 01       	movw	r12, r22
    uart_putw_hex((uint16_t) (dw >> 16));
    30bc:	0e 94 50 18 	call	0x30a0	; 0x30a0 <uart_putw_hex>
    uart_putw_hex((uint16_t) (dw & 0xffff));
    30c0:	c6 01       	movw	r24, r12
}
    30c2:	ff 90       	pop	r15
    30c4:	ef 90       	pop	r14
    30c6:	df 90       	pop	r13
    30c8:	cf 90       	pop	r12
    uart_putw_hex((uint16_t) (dw & 0xffff));
    30ca:	0c 94 50 18 	jmp	0x30a0	; 0x30a0 <uart_putw_hex>

000030ce <uart_putw_dec>:

void uart_putw_dec(uint16_t w)
{
    30ce:	af 92       	push	r10
    30d0:	bf 92       	push	r11
    30d2:	df 92       	push	r13
    30d4:	ef 92       	push	r14
    30d6:	ff 92       	push	r15
    30d8:	0f 93       	push	r16
    30da:	1f 93       	push	r17
    30dc:	cf 93       	push	r28
    30de:	df 93       	push	r29
    30e0:	7c 01       	movw	r14, r24
    30e2:	05 e0       	ldi	r16, 0x05	; 5
    30e4:	10 e0       	ldi	r17, 0x00	; 0
    uint16_t num = 10000;
    uint8_t started = 0;
    30e6:	20 e0       	ldi	r18, 0x00	; 0
    uint16_t num = 10000;
    30e8:	c0 e1       	ldi	r28, 0x10	; 16
    30ea:	d7 e2       	ldi	r29, 0x27	; 39
            uart_putc('0' + b);
            started = 1;
        }
        w -= b * num;

        num /= 10;
    30ec:	8a e0       	ldi	r24, 0x0A	; 10
    30ee:	a8 2e       	mov	r10, r24
    30f0:	b1 2c       	mov	r11, r1
        uint8_t b = w / num;
    30f2:	c7 01       	movw	r24, r14
    30f4:	be 01       	movw	r22, r28
    30f6:	0e 94 34 2f 	call	0x5e68	; 0x5e68 <__udivmodhi4>
    30fa:	d6 2e       	mov	r13, r22
        if(b > 0 || started || num == 1)
    30fc:	26 2b       	or	r18, r22
    30fe:	19 f4       	brne	.+6      	; 0x3106 <uart_putw_dec+0x38>
    3100:	c1 30       	cpi	r28, 0x01	; 1
    3102:	d1 05       	cpc	r29, r1
    3104:	29 f4       	brne	.+10     	; 0x3110 <uart_putw_dec+0x42>
            uart_putc('0' + b);
    3106:	80 e3       	ldi	r24, 0x30	; 48
    3108:	8d 0d       	add	r24, r13
    310a:	0e 94 2c 18 	call	0x3058	; 0x3058 <uart_putc>
            started = 1;
    310e:	21 e0       	ldi	r18, 0x01	; 1
        w -= b * num;
    3110:	dc 9e       	mul	r13, r28
    3112:	c0 01       	movw	r24, r0
    3114:	dd 9e       	mul	r13, r29
    3116:	90 0d       	add	r25, r0
    3118:	11 24       	eor	r1, r1
    311a:	e8 1a       	sub	r14, r24
    311c:	f9 0a       	sbc	r15, r25
        num /= 10;
    311e:	ce 01       	movw	r24, r28
    3120:	b5 01       	movw	r22, r10
    3122:	0e 94 34 2f 	call	0x5e68	; 0x5e68 <__udivmodhi4>
    3126:	eb 01       	movw	r28, r22
    3128:	01 50       	subi	r16, 0x01	; 1
    312a:	11 09       	sbc	r17, r1
    while(num > 0)
    312c:	11 f7       	brne	.-60     	; 0x30f2 <uart_putw_dec+0x24>
    }
}
    312e:	df 91       	pop	r29
    3130:	cf 91       	pop	r28
    3132:	1f 91       	pop	r17
    3134:	0f 91       	pop	r16
    3136:	ff 90       	pop	r15
    3138:	ef 90       	pop	r14
    313a:	df 90       	pop	r13
    313c:	bf 90       	pop	r11
    313e:	af 90       	pop	r10
    3140:	08 95       	ret

00003142 <uart_putdw_dec>:

void uart_putdw_dec(uint32_t dw)
{
    3142:	4f 92       	push	r4
    3144:	5f 92       	push	r5
    3146:	6f 92       	push	r6
    3148:	7f 92       	push	r7
    314a:	8f 92       	push	r8
    314c:	9f 92       	push	r9
    314e:	af 92       	push	r10
    3150:	bf 92       	push	r11
    3152:	cf 92       	push	r12
    3154:	df 92       	push	r13
    3156:	ef 92       	push	r14
    3158:	ff 92       	push	r15
    315a:	0f 93       	push	r16
    315c:	1f 93       	push	r17
    315e:	cf 93       	push	r28
    3160:	df 93       	push	r29
    3162:	4b 01       	movw	r8, r22
    3164:	5c 01       	movw	r10, r24
    3166:	0a e0       	ldi	r16, 0x0A	; 10
    3168:	10 e0       	ldi	r17, 0x00	; 0
    uint32_t num = 1000000000;
    uint8_t started = 0;
    316a:	c0 e0       	ldi	r28, 0x00	; 0
    uint32_t num = 1000000000;
    316c:	c1 2c       	mov	r12, r1
    316e:	8a ec       	ldi	r24, 0xCA	; 202
    3170:	d8 2e       	mov	r13, r24
    3172:	8a e9       	ldi	r24, 0x9A	; 154
    3174:	e8 2e       	mov	r14, r24
    3176:	8b e3       	ldi	r24, 0x3B	; 59
    3178:	f8 2e       	mov	r15, r24
            uart_putc('0' + b);
            started = 1;
        }
        dw -= b * num;

        num /= 10;
    317a:	9a e0       	ldi	r25, 0x0A	; 10
    317c:	49 2e       	mov	r4, r25
    317e:	51 2c       	mov	r5, r1
    3180:	61 2c       	mov	r6, r1
    3182:	71 2c       	mov	r7, r1
        uint8_t b = dw / num;
    3184:	c5 01       	movw	r24, r10
    3186:	b4 01       	movw	r22, r8
    3188:	a7 01       	movw	r20, r14
    318a:	96 01       	movw	r18, r12
    318c:	0e 94 5c 2f 	call	0x5eb8	; 0x5eb8 <__udivmodsi4>
    3190:	d2 2f       	mov	r29, r18
        if(b > 0 || started || num == 1)
    3192:	c2 2b       	or	r28, r18
    3194:	31 f4       	brne	.+12     	; 0x31a2 <uart_putdw_dec+0x60>
    3196:	81 e0       	ldi	r24, 0x01	; 1
    3198:	c8 16       	cp	r12, r24
    319a:	d1 04       	cpc	r13, r1
    319c:	e1 04       	cpc	r14, r1
    319e:	f1 04       	cpc	r15, r1
    31a0:	29 f4       	brne	.+10     	; 0x31ac <uart_putdw_dec+0x6a>
            uart_putc('0' + b);
    31a2:	80 e3       	ldi	r24, 0x30	; 48
    31a4:	8d 0f       	add	r24, r29
    31a6:	0e 94 2c 18 	call	0x3058	; 0x3058 <uart_putc>
            started = 1;
    31aa:	c1 e0       	ldi	r28, 0x01	; 1
        dw -= b * num;
    31ac:	ad 2f       	mov	r26, r29
    31ae:	b0 e0       	ldi	r27, 0x00	; 0
    31b0:	a7 01       	movw	r20, r14
    31b2:	96 01       	movw	r18, r12
    31b4:	0e 94 93 2f 	call	0x5f26	; 0x5f26 <__muluhisi3>
    31b8:	86 1a       	sub	r8, r22
    31ba:	97 0a       	sbc	r9, r23
    31bc:	a8 0a       	sbc	r10, r24
    31be:	b9 0a       	sbc	r11, r25
        num /= 10;
    31c0:	c7 01       	movw	r24, r14
    31c2:	b6 01       	movw	r22, r12
    31c4:	a3 01       	movw	r20, r6
    31c6:	92 01       	movw	r18, r4
    31c8:	0e 94 5c 2f 	call	0x5eb8	; 0x5eb8 <__udivmodsi4>
    31cc:	69 01       	movw	r12, r18
    31ce:	7a 01       	movw	r14, r20
    31d0:	01 50       	subi	r16, 0x01	; 1
    31d2:	11 09       	sbc	r17, r1
    while(num > 0)
    31d4:	b9 f6       	brne	.-82     	; 0x3184 <uart_putdw_dec+0x42>
    }
}
    31d6:	df 91       	pop	r29
    31d8:	cf 91       	pop	r28
    31da:	1f 91       	pop	r17
    31dc:	0f 91       	pop	r16
    31de:	ff 90       	pop	r15
    31e0:	ef 90       	pop	r14
    31e2:	df 90       	pop	r13
    31e4:	cf 90       	pop	r12
    31e6:	bf 90       	pop	r11
    31e8:	af 90       	pop	r10
    31ea:	9f 90       	pop	r9
    31ec:	8f 90       	pop	r8
    31ee:	7f 90       	pop	r7
    31f0:	6f 90       	pop	r6
    31f2:	5f 90       	pop	r5
    31f4:	4f 90       	pop	r4
    31f6:	08 95       	ret

000031f8 <uart_puts>:

void uart_puts(const char* str)
{
    31f8:	cf 93       	push	r28
    31fa:	df 93       	push	r29
    31fc:	ec 01       	movw	r28, r24
    while(*str)
    31fe:	89 91       	ld	r24, Y+
    3200:	81 11       	cpse	r24, r1
    3202:	03 c0       	rjmp	.+6      	; 0x320a <uart_puts+0x12>
        uart_putc(*str++);
}
    3204:	df 91       	pop	r29
    3206:	cf 91       	pop	r28
    3208:	08 95       	ret
        uart_putc(*str++);
    320a:	0e 94 2c 18 	call	0x3058	; 0x3058 <uart_putc>
    320e:	f7 cf       	rjmp	.-18     	; 0x31fe <uart_puts+0x6>

00003210 <uart_puts_p>:

void uart_puts_p(PGM_P str)
{
    3210:	cf 93       	push	r28
    3212:	df 93       	push	r29
    3214:	ec 01       	movw	r28, r24
    while(1)
    {
        uint8_t b = pgm_read_byte_near(str++);
    3216:	fe 01       	movw	r30, r28
    3218:	84 91       	lpm	r24, Z
        if(!b)
    321a:	21 96       	adiw	r28, 0x01	; 1
    321c:	88 23       	and	r24, r24
    321e:	19 f0       	breq	.+6      	; 0x3226 <uart_puts_p+0x16>
            break;

        uart_putc(b);
    3220:	0e 94 2c 18 	call	0x3058	; 0x3058 <uart_putc>
    {
    3224:	f8 cf       	rjmp	.-16     	; 0x3216 <uart_puts_p+0x6>
    }
}
    3226:	df 91       	pop	r29
    3228:	cf 91       	pop	r28
    322a:	08 95       	ret

0000322c <uart_getc>:

uint8_t uart_getc()
{
    /* wait until receive buffer is full */
#if USE_SLEEP
    uint8_t sreg = SREG;
    322c:	9f b7       	in	r25, 0x3f	; 63
    sei();
    322e:	78 94       	sei

    while(!(UCSRA & (1 << RXC)))
    3230:	80 91 c0 00 	lds	r24, 0x00C0	; 0x8000c0 <__TEXT_REGION_LENGTH__+0x7e00c0>
    3234:	87 ff       	sbrs	r24, 7
    3236:	07 c0       	rjmp	.+14     	; 0x3246 <uart_getc+0x1a>
        sleep_mode();

    SREG = sreg;
    3238:	9f bf       	out	0x3f, r25	; 63
#else
    while(!(UCSRA & (1 << RXC)));
#endif

    uint8_t b = UDR;
    323a:	80 91 c6 00 	lds	r24, 0x00C6	; 0x8000c6 <__TEXT_REGION_LENGTH__+0x7e00c6>
    if(b == '\r')
    323e:	8d 30       	cpi	r24, 0x0D	; 13
    3240:	09 f4       	brne	.+2      	; 0x3244 <uart_getc+0x18>
        b = '\n';
    3242:	8a e0       	ldi	r24, 0x0A	; 10

    return b;
}
    3244:	08 95       	ret
        sleep_mode();
    3246:	83 b7       	in	r24, 0x33	; 51
    3248:	81 60       	ori	r24, 0x01	; 1
    324a:	83 bf       	out	0x33, r24	; 51
    324c:	88 95       	sleep
    324e:	83 b7       	in	r24, 0x33	; 51
    3250:	8e 7f       	andi	r24, 0xFE	; 254
    3252:	83 bf       	out	0x33, r24	; 51
    3254:	ed cf       	rjmp	.-38     	; 0x3230 <uart_getc+0x4>

00003256 <__vector_18>:

EMPTY_INTERRUPT(USART_RXC_vect)
    3256:	18 95       	reti

00003258 <sd_raw_send_byte>:
 * \param[in] b The byte to sent.
 * \see sd_raw_rec_byte
 */
void sd_raw_send_byte(uint8_t b)
{
    SPDR = b;
    3258:	8e bd       	out	0x2e, r24	; 46
    /* wait for byte to be shifted out */
    while(!(SPSR & (1 << SPIF)));
    325a:	0d b4       	in	r0, 0x2d	; 45
    325c:	07 fe       	sbrs	r0, 7
    325e:	fd cf       	rjmp	.-6      	; 0x325a <sd_raw_send_byte+0x2>
    SPSR &= ~(1 << SPIF);
    3260:	8d b5       	in	r24, 0x2d	; 45
    3262:	8f 77       	andi	r24, 0x7F	; 127
    3264:	8d bd       	out	0x2d, r24	; 45
}
    3266:	08 95       	ret

00003268 <sd_raw_rec_byte>:
 * \see sd_raw_send_byte
 */
uint8_t sd_raw_rec_byte(void)
{
    /* send dummy data for receiving some */
    SPDR = 0xff;
    3268:	8f ef       	ldi	r24, 0xFF	; 255
    326a:	8e bd       	out	0x2e, r24	; 46
    while(!(SPSR & (1 << SPIF)));
    326c:	0d b4       	in	r0, 0x2d	; 45
    326e:	07 fe       	sbrs	r0, 7
    3270:	fd cf       	rjmp	.-6      	; 0x326c <sd_raw_rec_byte+0x4>
    SPSR &= ~(1 << SPIF);
    3272:	8d b5       	in	r24, 0x2d	; 45
    3274:	8f 77       	andi	r24, 0x7F	; 127
    3276:	8d bd       	out	0x2d, r24	; 45

    return SPDR;
    3278:	8e b5       	in	r24, 0x2e	; 46
}
    327a:	08 95       	ret

0000327c <sd_raw_send_command>:
 * \param[in] command The command to send.
 * \param[in] arg The argument for command.
 * \returns The command answer.
 */
uint8_t sd_raw_send_command(uint8_t command, uint32_t arg)
{
    327c:	ff 92       	push	r15
    327e:	0f 93       	push	r16
    3280:	1f 93       	push	r17
    3282:	cf 93       	push	r28
    3284:	df 93       	push	r29
    3286:	c8 2f       	mov	r28, r24
    3288:	d4 2f       	mov	r29, r20
    328a:	15 2f       	mov	r17, r21
    328c:	06 2f       	mov	r16, r22
    328e:	f7 2e       	mov	r15, r23
    uint8_t response;

    /* wait some clock cycles */
    sd_raw_rec_byte();
    3290:	0e 94 34 19 	call	0x3268	; 0x3268 <sd_raw_rec_byte>

    /* send command via SPI */
    sd_raw_send_byte(0x40 | command);
    3294:	8c 2f       	mov	r24, r28
    3296:	80 64       	ori	r24, 0x40	; 64
    3298:	0e 94 2c 19 	call	0x3258	; 0x3258 <sd_raw_send_byte>
    sd_raw_send_byte((arg >> 24) & 0xff);
    329c:	8f 2d       	mov	r24, r15
    329e:	0e 94 2c 19 	call	0x3258	; 0x3258 <sd_raw_send_byte>
    sd_raw_send_byte((arg >> 16) & 0xff);
    32a2:	80 2f       	mov	r24, r16
    32a4:	0e 94 2c 19 	call	0x3258	; 0x3258 <sd_raw_send_byte>
    sd_raw_send_byte((arg >> 8) & 0xff);
    32a8:	81 2f       	mov	r24, r17
    32aa:	0e 94 2c 19 	call	0x3258	; 0x3258 <sd_raw_send_byte>
    sd_raw_send_byte((arg >> 0) & 0xff);
    32ae:	8d 2f       	mov	r24, r29
    32b0:	0e 94 2c 19 	call	0x3258	; 0x3258 <sd_raw_send_byte>
    switch(command)
    {
        case CMD_GO_IDLE_STATE:
           sd_raw_send_byte(0x95);
    32b4:	85 e9       	ldi	r24, 0x95	; 149
    switch(command)
    32b6:	cc 23       	and	r28, r28
    32b8:	21 f0       	breq	.+8      	; 0x32c2 <sd_raw_send_command+0x46>
           break;
        case CMD_SEND_IF_COND:
           sd_raw_send_byte(0x87);
    32ba:	87 e8       	ldi	r24, 0x87	; 135
    switch(command)
    32bc:	c8 30       	cpi	r28, 0x08	; 8
    32be:	09 f0       	breq	.+2      	; 0x32c2 <sd_raw_send_command+0x46>
           break;
        default:
           sd_raw_send_byte(0xff);
    32c0:	8f ef       	ldi	r24, 0xFF	; 255
    32c2:	0e 94 2c 19 	call	0x3258	; 0x3258 <sd_raw_send_byte>
{
    32c6:	ca e0       	ldi	r28, 0x0A	; 10
    }
    
    /* receive response */
    for(uint8_t i = 0; i < 10; ++i)
    {
        response = sd_raw_rec_byte();
    32c8:	0e 94 34 19 	call	0x3268	; 0x3268 <sd_raw_rec_byte>
        if(response != 0xff)
    32cc:	8f 3f       	cpi	r24, 0xFF	; 255
    32ce:	11 f4       	brne	.+4      	; 0x32d4 <sd_raw_send_command+0x58>
    32d0:	c1 50       	subi	r28, 0x01	; 1
    for(uint8_t i = 0; i < 10; ++i)
    32d2:	d1 f7       	brne	.-12     	; 0x32c8 <sd_raw_send_command+0x4c>
            break;
    }

    return response;
}
    32d4:	df 91       	pop	r29
    32d6:	cf 91       	pop	r28
    32d8:	1f 91       	pop	r17
    32da:	0f 91       	pop	r16
    32dc:	ff 90       	pop	r15
    32de:	08 95       	ret

000032e0 <sd_raw_available>:
    return get_pin_available() == 0x00;
    32e0:	83 b1       	in	r24, 0x03	; 3
    32e2:	80 95       	com	r24
}
    32e4:	88 1f       	adc	r24, r24
    32e6:	88 27       	eor	r24, r24
    32e8:	88 1f       	adc	r24, r24
    32ea:	08 95       	ret

000032ec <sd_raw_locked>:
    return get_pin_locked() == 0x00;
    32ec:	86 b1       	in	r24, 0x06	; 6
    32ee:	85 fb       	bst	r24, 5
    32f0:	88 27       	eor	r24, r24
    32f2:	80 f9       	bld	r24, 0
}
    32f4:	91 e0       	ldi	r25, 0x01	; 1
    32f6:	89 27       	eor	r24, r25
    32f8:	08 95       	ret

000032fa <sd_raw_sync>:
 * \see sd_raw_write
 */
uint8_t sd_raw_sync()
{
#if SD_RAW_WRITE_BUFFERING
    if(raw_block_written)
    32fa:	80 91 ff 01 	lds	r24, 0x01FF	; 0x8001ff <raw_block_written>
    32fe:	81 11       	cpse	r24, r1
    3300:	14 c0       	rjmp	.+40     	; 0x332a <sd_raw_sync+0x30>
        return 1;
    if(!sd_raw_write(raw_block_address, raw_block, sizeof(raw_block)))
    3302:	60 91 00 02 	lds	r22, 0x0200	; 0x800200 <raw_block_address>
    3306:	70 91 01 02 	lds	r23, 0x0201	; 0x800201 <raw_block_address+0x1>
    330a:	80 91 02 02 	lds	r24, 0x0202	; 0x800202 <raw_block_address+0x2>
    330e:	90 91 03 02 	lds	r25, 0x0203	; 0x800203 <raw_block_address+0x3>
    3312:	20 e0       	ldi	r18, 0x00	; 0
    3314:	32 e0       	ldi	r19, 0x02	; 2
    3316:	44 e0       	ldi	r20, 0x04	; 4
    3318:	52 e0       	ldi	r21, 0x02	; 2
    331a:	0e 94 04 1b 	call	0x3608	; 0x3608 <sd_raw_write>
    331e:	88 23       	and	r24, r24
    3320:	29 f0       	breq	.+10     	; 0x332c <sd_raw_sync+0x32>
        return 0;
    raw_block_written = 1;
    3322:	81 e0       	ldi	r24, 0x01	; 1
    3324:	80 93 ff 01 	sts	0x01FF, r24	; 0x8001ff <raw_block_written>
#endif
    return 1;
    3328:	08 95       	ret
        return 1;
    332a:	81 e0       	ldi	r24, 0x01	; 1
}
    332c:	08 95       	ret

0000332e <sd_raw_read>:
{
    332e:	2f 92       	push	r2
    3330:	3f 92       	push	r3
    3332:	4f 92       	push	r4
    3334:	5f 92       	push	r5
    3336:	6f 92       	push	r6
    3338:	7f 92       	push	r7
    333a:	8f 92       	push	r8
    333c:	9f 92       	push	r9
    333e:	af 92       	push	r10
    3340:	bf 92       	push	r11
    3342:	cf 92       	push	r12
    3344:	df 92       	push	r13
    3346:	ef 92       	push	r14
    3348:	ff 92       	push	r15
    334a:	0f 93       	push	r16
    334c:	1f 93       	push	r17
    334e:	cf 93       	push	r28
    3350:	df 93       	push	r29
    3352:	4b 01       	movw	r8, r22
    3354:	5c 01       	movw	r10, r24
    3356:	7a 01       	movw	r14, r20
    3358:	69 01       	movw	r12, r18
    while(length > 0)
    335a:	c1 14       	cp	r12, r1
    335c:	d1 04       	cpc	r13, r1
    335e:	11 f4       	brne	.+4      	; 0x3364 <sd_raw_read+0x36>
    return 1;
    3360:	81 e0       	ldi	r24, 0x01	; 1
    3362:	2e c0       	rjmp	.+92     	; 0x33c0 <sd_raw_read+0x92>
        block_offset = offset & 0x01ff;
    3364:	14 01       	movw	r2, r8
    3366:	81 e0       	ldi	r24, 0x01	; 1
    3368:	38 22       	and	r3, r24
        block_address = offset - block_offset;
    336a:	24 01       	movw	r4, r8
    336c:	35 01       	movw	r6, r10
    336e:	42 18       	sub	r4, r2
    3370:	53 08       	sbc	r5, r3
    3372:	61 08       	sbc	r6, r1
    3374:	71 08       	sbc	r7, r1
        read_length = 512 - block_offset; /* read up to block border */
    3376:	80 e0       	ldi	r24, 0x00	; 0
    3378:	92 e0       	ldi	r25, 0x02	; 2
    337a:	82 19       	sub	r24, r2
    337c:	93 09       	sbc	r25, r3
        if(read_length > length)
    337e:	e6 01       	movw	r28, r12
    3380:	8c 15       	cp	r24, r12
    3382:	9d 05       	cpc	r25, r13
    3384:	08 f4       	brcc	.+2      	; 0x3388 <sd_raw_read+0x5a>
    3386:	ec 01       	movw	r28, r24
        if(block_address != raw_block_address)
    3388:	80 91 00 02 	lds	r24, 0x0200	; 0x800200 <raw_block_address>
    338c:	90 91 01 02 	lds	r25, 0x0201	; 0x800201 <raw_block_address+0x1>
    3390:	a0 91 02 02 	lds	r26, 0x0202	; 0x800202 <raw_block_address+0x2>
    3394:	b0 91 03 02 	lds	r27, 0x0203	; 0x800203 <raw_block_address+0x3>
    3398:	84 15       	cp	r24, r4
    339a:	95 05       	cpc	r25, r5
    339c:	a6 05       	cpc	r26, r6
    339e:	b7 05       	cpc	r27, r7
    33a0:	09 f4       	brne	.+2      	; 0x33a4 <sd_raw_read+0x76>
    33a2:	4f c0       	rjmp	.+158    	; 0x3442 <sd_raw_read+0x114>
            if(!sd_raw_sync())
    33a4:	0e 94 7d 19 	call	0x32fa	; 0x32fa <sd_raw_sync>
    33a8:	88 23       	and	r24, r24
    33aa:	51 f0       	breq	.+20     	; 0x33c0 <sd_raw_read+0x92>
            select_card();
    33ac:	2e 98       	cbi	0x05, 6	; 5
            if(sd_raw_send_command(CMD_READ_SINGLE_BLOCK, block_address))
    33ae:	b3 01       	movw	r22, r6
    33b0:	a2 01       	movw	r20, r4
    33b2:	81 e1       	ldi	r24, 0x11	; 17
    33b4:	0e 94 3e 19 	call	0x327c	; 0x327c <sd_raw_send_command>
    33b8:	88 23       	and	r24, r24
    33ba:	a9 f0       	breq	.+42     	; 0x33e6 <sd_raw_read+0xb8>
                unselect_card();
    33bc:	2e 9a       	sbi	0x05, 6	; 5
                return 0;
    33be:	80 e0       	ldi	r24, 0x00	; 0
}
    33c0:	df 91       	pop	r29
    33c2:	cf 91       	pop	r28
    33c4:	1f 91       	pop	r17
    33c6:	0f 91       	pop	r16
    33c8:	ff 90       	pop	r15
    33ca:	ef 90       	pop	r14
    33cc:	df 90       	pop	r13
    33ce:	cf 90       	pop	r12
    33d0:	bf 90       	pop	r11
    33d2:	af 90       	pop	r10
    33d4:	9f 90       	pop	r9
    33d6:	8f 90       	pop	r8
    33d8:	7f 90       	pop	r7
    33da:	6f 90       	pop	r6
    33dc:	5f 90       	pop	r5
    33de:	4f 90       	pop	r4
    33e0:	3f 90       	pop	r3
    33e2:	2f 90       	pop	r2
    33e4:	08 95       	ret
            while(sd_raw_rec_byte() != 0xfe);
    33e6:	0e 94 34 19 	call	0x3268	; 0x3268 <sd_raw_rec_byte>
    33ea:	8e 3f       	cpi	r24, 0xFE	; 254
    33ec:	e1 f7       	brne	.-8      	; 0x33e6 <sd_raw_read+0xb8>
            uint8_t* cache = raw_block;
    33ee:	04 e0       	ldi	r16, 0x04	; 4
    33f0:	12 e0       	ldi	r17, 0x02	; 2
                *cache++ = sd_raw_rec_byte();
    33f2:	0e 94 34 19 	call	0x3268	; 0x3268 <sd_raw_rec_byte>
    33f6:	f8 01       	movw	r30, r16
    33f8:	81 93       	st	Z+, r24
    33fa:	8f 01       	movw	r16, r30
            for(uint16_t i = 0; i < 512; ++i)
    33fc:	f4 e0       	ldi	r31, 0x04	; 4
    33fe:	04 30       	cpi	r16, 0x04	; 4
    3400:	1f 07       	cpc	r17, r31
    3402:	b9 f7       	brne	.-18     	; 0x33f2 <sd_raw_read+0xc4>
            raw_block_address = block_address;
    3404:	40 92 00 02 	sts	0x0200, r4	; 0x800200 <raw_block_address>
    3408:	50 92 01 02 	sts	0x0201, r5	; 0x800201 <raw_block_address+0x1>
    340c:	60 92 02 02 	sts	0x0202, r6	; 0x800202 <raw_block_address+0x2>
    3410:	70 92 03 02 	sts	0x0203, r7	; 0x800203 <raw_block_address+0x3>
            memcpy(buffer, raw_block + block_offset, read_length);
    3414:	b1 01       	movw	r22, r2
    3416:	6c 5f       	subi	r22, 0xFC	; 252
    3418:	7d 4f       	sbci	r23, 0xFD	; 253
    341a:	ae 01       	movw	r20, r28
    341c:	c7 01       	movw	r24, r14
    341e:	0e 94 0b 30 	call	0x6016	; 0x6016 <memcpy>
            buffer += read_length;
    3422:	ec 0e       	add	r14, r28
    3424:	fd 1e       	adc	r15, r29
            sd_raw_rec_byte();
    3426:	0e 94 34 19 	call	0x3268	; 0x3268 <sd_raw_rec_byte>
            sd_raw_rec_byte();
    342a:	0e 94 34 19 	call	0x3268	; 0x3268 <sd_raw_rec_byte>
            unselect_card();
    342e:	2e 9a       	sbi	0x05, 6	; 5
            sd_raw_rec_byte();
    3430:	0e 94 34 19 	call	0x3268	; 0x3268 <sd_raw_rec_byte>
        length -= read_length;
    3434:	cc 1a       	sub	r12, r28
    3436:	dd 0a       	sbc	r13, r29
        offset += read_length;
    3438:	8c 0e       	add	r8, r28
    343a:	9d 1e       	adc	r9, r29
    343c:	a1 1c       	adc	r10, r1
    343e:	b1 1c       	adc	r11, r1
    3440:	8c cf       	rjmp	.-232    	; 0x335a <sd_raw_read+0x2c>
            memcpy(buffer, raw_block + block_offset, read_length);
    3442:	b1 01       	movw	r22, r2
    3444:	6c 5f       	subi	r22, 0xFC	; 252
    3446:	7d 4f       	sbci	r23, 0xFD	; 253
    3448:	ae 01       	movw	r20, r28
    344a:	c7 01       	movw	r24, r14
    344c:	0e 94 0b 30 	call	0x6016	; 0x6016 <memcpy>
            buffer += read_length;
    3450:	ec 0e       	add	r14, r28
    3452:	fd 1e       	adc	r15, r29
    3454:	ef cf       	rjmp	.-34     	; 0x3434 <sd_raw_read+0x106>

00003456 <sd_raw_init>:
{
    3456:	0f 93       	push	r16
    3458:	1f 93       	push	r17
    345a:	cf 93       	push	r28
    configure_pin_available();
    345c:	27 98       	cbi	0x04, 7	; 4
    configure_pin_locked();
    345e:	3d 98       	cbi	0x07, 5	; 7
    configure_pin_mosi();
    3460:	23 9a       	sbi	0x04, 3	; 4
    configure_pin_sck();
    3462:	25 9a       	sbi	0x04, 5	; 4
    configure_pin_ss();
    3464:	26 9a       	sbi	0x04, 6	; 4
    configure_pin_miso();
    3466:	24 98       	cbi	0x04, 4	; 4
    unselect_card();
    3468:	2e 9a       	sbi	0x05, 6	; 5
    SPCR = (0 << SPIE) | /* SPI Interrupt Enable */
    346a:	83 e5       	ldi	r24, 0x53	; 83
    346c:	8c bd       	out	0x2c, r24	; 44
    SPSR &= ~(1 << SPI2X); /* No doubled clock frequency */
    346e:	8d b5       	in	r24, 0x2d	; 45
    3470:	8e 7f       	andi	r24, 0xFE	; 254
    3472:	8d bd       	out	0x2d, r24	; 45
    sd_raw_card_type = 0;
    3474:	10 92 fe 01 	sts	0x01FE, r1	; 0x8001fe <sd_raw_card_type>
    if(!sd_raw_available())
    3478:	1f 99       	sbic	0x03, 7	; 3
    347a:	50 c0       	rjmp	.+160    	; 0x351c <sd_raw_init+0xc6>
    347c:	ca e0       	ldi	r28, 0x0A	; 10
        sd_raw_rec_byte();
    347e:	0e 94 34 19 	call	0x3268	; 0x3268 <sd_raw_rec_byte>
    3482:	c1 50       	subi	r28, 0x01	; 1
    for(uint8_t i = 0; i < 10; ++i)
    3484:	e1 f7       	brne	.-8      	; 0x347e <sd_raw_init+0x28>
    select_card();
    3486:	2e 98       	cbi	0x05, 6	; 5
    3488:	00 e0       	ldi	r16, 0x00	; 0
    348a:	12 e0       	ldi	r17, 0x02	; 2
        response = sd_raw_send_command(CMD_GO_IDLE_STATE, 0);
    348c:	40 e0       	ldi	r20, 0x00	; 0
    348e:	50 e0       	ldi	r21, 0x00	; 0
    3490:	ba 01       	movw	r22, r20
    3492:	80 e0       	ldi	r24, 0x00	; 0
    3494:	0e 94 3e 19 	call	0x327c	; 0x327c <sd_raw_send_command>
        if(response == (1 << R1_IDLE_STATE))
    3498:	81 30       	cpi	r24, 0x01	; 1
    349a:	49 f0       	breq	.+18     	; 0x34ae <sd_raw_init+0x58>
        if(i == 0x1ff)
    349c:	01 50       	subi	r16, 0x01	; 1
    349e:	11 09       	sbc	r17, r1
    34a0:	a9 f7       	brne	.-22     	; 0x348c <sd_raw_init+0x36>
            unselect_card();
    34a2:	2e 9a       	sbi	0x05, 6	; 5
}
    34a4:	8c 2f       	mov	r24, r28
    34a6:	cf 91       	pop	r28
    34a8:	1f 91       	pop	r17
    34aa:	0f 91       	pop	r16
    34ac:	08 95       	ret
        sd_raw_send_command(CMD_APP, 0);
    34ae:	40 e0       	ldi	r20, 0x00	; 0
    34b0:	50 e0       	ldi	r21, 0x00	; 0
    34b2:	ba 01       	movw	r22, r20
    34b4:	87 e3       	ldi	r24, 0x37	; 55
    34b6:	0e 94 3e 19 	call	0x327c	; 0x327c <sd_raw_send_command>
        response = sd_raw_send_command(CMD_SD_SEND_OP_COND, 0);
    34ba:	40 e0       	ldi	r20, 0x00	; 0
    34bc:	50 e0       	ldi	r21, 0x00	; 0
    34be:	ba 01       	movw	r22, r20
    34c0:	89 e2       	ldi	r24, 0x29	; 41
    34c2:	0e 94 3e 19 	call	0x327c	; 0x327c <sd_raw_send_command>
        if((response & (1 << R1_ILL_COMMAND)) == 0)
    34c6:	82 fd       	sbrc	r24, 2
    34c8:	05 c0       	rjmp	.+10     	; 0x34d4 <sd_raw_init+0x7e>
            sd_raw_card_type |= (1 << SD_RAW_SPEC_1);
    34ca:	80 91 fe 01 	lds	r24, 0x01FE	; 0x8001fe <sd_raw_card_type>
    34ce:	81 60       	ori	r24, 0x01	; 1
    34d0:	80 93 fe 01 	sts	0x01FE, r24	; 0x8001fe <sd_raw_card_type>
    select_card();
    34d4:	00 e0       	ldi	r16, 0x00	; 0
    34d6:	10 e8       	ldi	r17, 0x80	; 128
        if(sd_raw_card_type & ((1 << SD_RAW_SPEC_1) | (1 << SD_RAW_SPEC_2)))
    34d8:	80 91 fe 01 	lds	r24, 0x01FE	; 0x8001fe <sd_raw_card_type>
    34dc:	83 70       	andi	r24, 0x03	; 3
            sd_raw_send_command(CMD_APP, 0);
    34de:	40 e0       	ldi	r20, 0x00	; 0
    34e0:	50 e0       	ldi	r21, 0x00	; 0
    34e2:	ba 01       	movw	r22, r20
        if(sd_raw_card_type & ((1 << SD_RAW_SPEC_1) | (1 << SD_RAW_SPEC_2)))
    34e4:	79 f0       	breq	.+30     	; 0x3504 <sd_raw_init+0xae>
            sd_raw_send_command(CMD_APP, 0);
    34e6:	87 e3       	ldi	r24, 0x37	; 55
    34e8:	0e 94 3e 19 	call	0x327c	; 0x327c <sd_raw_send_command>
            response = sd_raw_send_command(CMD_SD_SEND_OP_COND, arg);
    34ec:	40 e0       	ldi	r20, 0x00	; 0
    34ee:	50 e0       	ldi	r21, 0x00	; 0
    34f0:	ba 01       	movw	r22, r20
    34f2:	89 e2       	ldi	r24, 0x29	; 41
            response = sd_raw_send_command(CMD_SEND_OP_COND, 0);
    34f4:	0e 94 3e 19 	call	0x327c	; 0x327c <sd_raw_send_command>
        if((response & (1 << R1_IDLE_STATE)) == 0)
    34f8:	80 ff       	sbrs	r24, 0
    34fa:	06 c0       	rjmp	.+12     	; 0x3508 <sd_raw_init+0xb2>
        if(i == 0x7fff)
    34fc:	01 50       	subi	r16, 0x01	; 1
    34fe:	11 09       	sbc	r17, r1
    3500:	59 f7       	brne	.-42     	; 0x34d8 <sd_raw_init+0x82>
    3502:	cf cf       	rjmp	.-98     	; 0x34a2 <sd_raw_init+0x4c>
            response = sd_raw_send_command(CMD_SEND_OP_COND, 0);
    3504:	81 e0       	ldi	r24, 0x01	; 1
    3506:	f6 cf       	rjmp	.-20     	; 0x34f4 <sd_raw_init+0x9e>
    if(sd_raw_send_command(CMD_SET_BLOCKLEN, 512))
    3508:	40 e0       	ldi	r20, 0x00	; 0
    350a:	52 e0       	ldi	r21, 0x02	; 2
    350c:	60 e0       	ldi	r22, 0x00	; 0
    350e:	70 e0       	ldi	r23, 0x00	; 0
    3510:	80 e1       	ldi	r24, 0x10	; 16
    3512:	0e 94 3e 19 	call	0x327c	; 0x327c <sd_raw_send_command>
        unselect_card();
    3516:	2e 9a       	sbi	0x05, 6	; 5
    if(sd_raw_send_command(CMD_SET_BLOCKLEN, 512))
    3518:	88 23       	and	r24, r24
    351a:	11 f0       	breq	.+4      	; 0x3520 <sd_raw_init+0xca>
        return 0;
    351c:	c0 e0       	ldi	r28, 0x00	; 0
    351e:	c2 cf       	rjmp	.-124    	; 0x34a4 <sd_raw_init+0x4e>
    SPCR &= ~((1 << SPR1) | (1 << SPR0)); /* Clock Frequency: f_OSC / 4 */
    3520:	8c b5       	in	r24, 0x2c	; 44
    3522:	8c 7f       	andi	r24, 0xFC	; 252
    3524:	8c bd       	out	0x2c, r24	; 44
    SPSR |= (1 << SPI2X); /* Doubled Clock Frequency: f_OSC / 2 */
    3526:	8d b5       	in	r24, 0x2d	; 45
    3528:	81 60       	ori	r24, 0x01	; 1
    352a:	8d bd       	out	0x2d, r24	; 45
    raw_block_address = (offset_t) -1;
    352c:	8f ef       	ldi	r24, 0xFF	; 255
    352e:	9f ef       	ldi	r25, 0xFF	; 255
    3530:	dc 01       	movw	r26, r24
    3532:	80 93 00 02 	sts	0x0200, r24	; 0x800200 <raw_block_address>
    3536:	90 93 01 02 	sts	0x0201, r25	; 0x800201 <raw_block_address+0x1>
    353a:	a0 93 02 02 	sts	0x0202, r26	; 0x800202 <raw_block_address+0x2>
    353e:	b0 93 03 02 	sts	0x0203, r27	; 0x800203 <raw_block_address+0x3>
    raw_block_written = 1;
    3542:	81 e0       	ldi	r24, 0x01	; 1
    3544:	80 93 ff 01 	sts	0x01FF, r24	; 0x8001ff <raw_block_written>
    if(!sd_raw_read(0, raw_block, sizeof(raw_block)))
    3548:	20 e0       	ldi	r18, 0x00	; 0
    354a:	32 e0       	ldi	r19, 0x02	; 2
    354c:	44 e0       	ldi	r20, 0x04	; 4
    354e:	52 e0       	ldi	r21, 0x02	; 2
    3550:	60 e0       	ldi	r22, 0x00	; 0
    3552:	70 e0       	ldi	r23, 0x00	; 0
    3554:	cb 01       	movw	r24, r22
    3556:	0e 94 97 19 	call	0x332e	; 0x332e <sd_raw_read>
    355a:	c1 e0       	ldi	r28, 0x01	; 1
    355c:	81 11       	cpse	r24, r1
    355e:	a2 cf       	rjmp	.-188    	; 0x34a4 <sd_raw_init+0x4e>
    3560:	dd cf       	rjmp	.-70     	; 0x351c <sd_raw_init+0xc6>

00003562 <sd_raw_read_interval>:
{
    3562:	2f 92       	push	r2
    3564:	3f 92       	push	r3
    3566:	4f 92       	push	r4
    3568:	5f 92       	push	r5
    356a:	6f 92       	push	r6
    356c:	7f 92       	push	r7
    356e:	8f 92       	push	r8
    3570:	9f 92       	push	r9
    3572:	af 92       	push	r10
    3574:	bf 92       	push	r11
    3576:	cf 92       	push	r12
    3578:	df 92       	push	r13
    357a:	ef 92       	push	r14
    357c:	ff 92       	push	r15
    357e:	0f 93       	push	r16
    3580:	1f 93       	push	r17
    3582:	cf 93       	push	r28
    3584:	df 93       	push	r29
    3586:	2b 01       	movw	r4, r22
    3588:	3c 01       	movw	r6, r24
    358a:	5a 01       	movw	r10, r20
    358c:	e9 01       	movw	r28, r18
    358e:	47 01       	movw	r8, r14
    3590:	16 01       	movw	r2, r12
    if(!buffer || interval == 0 || length < interval || !callback)
    3592:	45 2b       	or	r20, r21
    3594:	29 f1       	breq	.+74     	; 0x35e0 <sd_raw_read_interval+0x7e>
    3596:	20 97       	sbiw	r28, 0x00	; 0
    3598:	19 f1       	breq	.+70     	; 0x35e0 <sd_raw_read_interval+0x7e>
    359a:	02 17       	cp	r16, r18
    359c:	13 07       	cpc	r17, r19
    359e:	00 f1       	brcs	.+64     	; 0x35e0 <sd_raw_read_interval+0x7e>
    35a0:	ef 28       	or	r14, r15
    35a2:	f1 f0       	breq	.+60     	; 0x35e0 <sd_raw_read_interval+0x7e>
        offset += interval;
    35a4:	69 01       	movw	r12, r18
    35a6:	f1 2c       	mov	r15, r1
    35a8:	e1 2c       	mov	r14, r1
        if(!sd_raw_read(offset, buffer, interval))
    35aa:	9e 01       	movw	r18, r28
    35ac:	a5 01       	movw	r20, r10
    35ae:	c3 01       	movw	r24, r6
    35b0:	b2 01       	movw	r22, r4
    35b2:	0e 94 97 19 	call	0x332e	; 0x332e <sd_raw_read>
    35b6:	88 23       	and	r24, r24
    35b8:	99 f0       	breq	.+38     	; 0x35e0 <sd_raw_read_interval+0x7e>
        if(!callback(buffer, offset, p))
    35ba:	91 01       	movw	r18, r2
    35bc:	b3 01       	movw	r22, r6
    35be:	a2 01       	movw	r20, r4
    35c0:	c5 01       	movw	r24, r10
    35c2:	f4 01       	movw	r30, r8
    35c4:	09 95       	icall
    35c6:	88 23       	and	r24, r24
    35c8:	49 f0       	breq	.+18     	; 0x35dc <sd_raw_read_interval+0x7a>
        offset += interval;
    35ca:	4c 0c       	add	r4, r12
    35cc:	5d 1c       	adc	r5, r13
    35ce:	6e 1c       	adc	r6, r14
    35d0:	7f 1c       	adc	r7, r15
        length -= interval;
    35d2:	0c 1b       	sub	r16, r28
    35d4:	1d 0b       	sbc	r17, r29
    while(length >= interval)
    35d6:	0c 17       	cp	r16, r28
    35d8:	1d 07       	cpc	r17, r29
    35da:	38 f7       	brcc	.-50     	; 0x35aa <sd_raw_read_interval+0x48>
    return 1;
    35dc:	81 e0       	ldi	r24, 0x01	; 1
    35de:	01 c0       	rjmp	.+2      	; 0x35e2 <sd_raw_read_interval+0x80>
        return 0;
    35e0:	80 e0       	ldi	r24, 0x00	; 0
}
    35e2:	df 91       	pop	r29
    35e4:	cf 91       	pop	r28
    35e6:	1f 91       	pop	r17
    35e8:	0f 91       	pop	r16
    35ea:	ff 90       	pop	r15
    35ec:	ef 90       	pop	r14
    35ee:	df 90       	pop	r13
    35f0:	cf 90       	pop	r12
    35f2:	bf 90       	pop	r11
    35f4:	af 90       	pop	r10
    35f6:	9f 90       	pop	r9
    35f8:	8f 90       	pop	r8
    35fa:	7f 90       	pop	r7
    35fc:	6f 90       	pop	r6
    35fe:	5f 90       	pop	r5
    3600:	4f 90       	pop	r4
    3602:	3f 90       	pop	r3
    3604:	2f 90       	pop	r2
    3606:	08 95       	ret

00003608 <sd_raw_write>:
{
    3608:	2f 92       	push	r2
    360a:	3f 92       	push	r3
    360c:	4f 92       	push	r4
    360e:	5f 92       	push	r5
    3610:	6f 92       	push	r6
    3612:	7f 92       	push	r7
    3614:	8f 92       	push	r8
    3616:	9f 92       	push	r9
    3618:	af 92       	push	r10
    361a:	bf 92       	push	r11
    361c:	cf 92       	push	r12
    361e:	df 92       	push	r13
    3620:	ef 92       	push	r14
    3622:	ff 92       	push	r15
    3624:	0f 93       	push	r16
    3626:	1f 93       	push	r17
    3628:	cf 93       	push	r28
    362a:	df 93       	push	r29
    362c:	00 d0       	rcall	.+0      	; 0x362e <sd_raw_write+0x26>
    362e:	0f 92       	push	r0
    3630:	cd b7       	in	r28, 0x3d	; 61
    3632:	de b7       	in	r29, 0x3e	; 62
    3634:	6b 01       	movw	r12, r22
    3636:	7c 01       	movw	r14, r24
    3638:	1a 01       	movw	r2, r20
    363a:	3b 83       	std	Y+3, r19	; 0x03
    363c:	2a 83       	std	Y+2, r18	; 0x02
    if(sd_raw_locked())
    363e:	0e 94 76 19 	call	0x32ec	; 0x32ec <sd_raw_locked>
    3642:	89 83       	std	Y+1, r24	; 0x01
    3644:	88 23       	and	r24, r24
    3646:	09 f4       	brne	.+2      	; 0x364a <sd_raw_write+0x42>
    3648:	5f c0       	rjmp	.+190    	; 0x3708 <sd_raw_write+0x100>
        return 0;
    364a:	19 82       	std	Y+1, r1	; 0x01
}
    364c:	89 81       	ldd	r24, Y+1	; 0x01
    364e:	0f 90       	pop	r0
    3650:	0f 90       	pop	r0
    3652:	0f 90       	pop	r0
    3654:	df 91       	pop	r29
    3656:	cf 91       	pop	r28
    3658:	1f 91       	pop	r17
    365a:	0f 91       	pop	r16
    365c:	ff 90       	pop	r15
    365e:	ef 90       	pop	r14
    3660:	df 90       	pop	r13
    3662:	cf 90       	pop	r12
    3664:	bf 90       	pop	r11
    3666:	af 90       	pop	r10
    3668:	9f 90       	pop	r9
    366a:	8f 90       	pop	r8
    366c:	7f 90       	pop	r7
    366e:	6f 90       	pop	r6
    3670:	5f 90       	pop	r5
    3672:	4f 90       	pop	r4
    3674:	3f 90       	pop	r3
    3676:	2f 90       	pop	r2
    3678:	08 95       	ret
                if(!sd_raw_read(block_address, raw_block, sizeof(raw_block)))
    367a:	20 e0       	ldi	r18, 0x00	; 0
    367c:	32 e0       	ldi	r19, 0x02	; 2
    367e:	44 e0       	ldi	r20, 0x04	; 4
    3680:	52 e0       	ldi	r21, 0x02	; 2
    3682:	c3 01       	movw	r24, r6
    3684:	b2 01       	movw	r22, r4
    3686:	0e 94 97 19 	call	0x332e	; 0x332e <sd_raw_read>
    368a:	81 11       	cpse	r24, r1
    368c:	70 c0       	rjmp	.+224    	; 0x376e <sd_raw_write+0x166>
    368e:	dd cf       	rjmp	.-70     	; 0x364a <sd_raw_write+0x42>
            memcpy(raw_block + block_offset, buffer, write_length);
    3690:	a4 01       	movw	r20, r8
    3692:	b1 01       	movw	r22, r2
    3694:	c8 01       	movw	r24, r16
    3696:	8c 5f       	subi	r24, 0xFC	; 252
    3698:	9d 4f       	sbci	r25, 0xFD	; 253
    369a:	0e 94 0b 30 	call	0x6016	; 0x6016 <memcpy>
            raw_block_written = 0;
    369e:	10 92 ff 01 	sts	0x01FF, r1	; 0x8001ff <raw_block_written>
            if(length == write_length)
    36a2:	8a 81       	ldd	r24, Y+2	; 0x02
    36a4:	9b 81       	ldd	r25, Y+3	; 0x03
    36a6:	a8 16       	cp	r10, r24
    36a8:	b9 06       	cpc	r11, r25
    36aa:	08 f4       	brcc	.+2      	; 0x36ae <sd_raw_write+0xa6>
    36ac:	6e c0       	rjmp	.+220    	; 0x378a <sd_raw_write+0x182>
                return 1;
    36ae:	91 e0       	ldi	r25, 0x01	; 1
    36b0:	99 83       	std	Y+1, r25	; 0x01
    36b2:	cc cf       	rjmp	.-104    	; 0x364c <sd_raw_write+0x44>
        sd_raw_send_byte(0xfe);
    36b4:	8e ef       	ldi	r24, 0xFE	; 254
    36b6:	0e 94 2c 19 	call	0x3258	; 0x3258 <sd_raw_send_byte>
        uint8_t* cache = raw_block;
    36ba:	04 e0       	ldi	r16, 0x04	; 4
    36bc:	12 e0       	ldi	r17, 0x02	; 2
            sd_raw_send_byte(*cache++);
    36be:	f8 01       	movw	r30, r16
    36c0:	81 91       	ld	r24, Z+
    36c2:	8f 01       	movw	r16, r30
    36c4:	0e 94 2c 19 	call	0x3258	; 0x3258 <sd_raw_send_byte>
        for(uint16_t i = 0; i < 512; ++i)
    36c8:	f4 e0       	ldi	r31, 0x04	; 4
    36ca:	04 30       	cpi	r16, 0x04	; 4
    36cc:	1f 07       	cpc	r17, r31
    36ce:	b9 f7       	brne	.-18     	; 0x36be <sd_raw_write+0xb6>
        sd_raw_send_byte(0xff);
    36d0:	8f ef       	ldi	r24, 0xFF	; 255
    36d2:	0e 94 2c 19 	call	0x3258	; 0x3258 <sd_raw_send_byte>
        sd_raw_send_byte(0xff);
    36d6:	8f ef       	ldi	r24, 0xFF	; 255
    36d8:	0e 94 2c 19 	call	0x3258	; 0x3258 <sd_raw_send_byte>
        while(sd_raw_rec_byte() != 0xff);
    36dc:	0e 94 34 19 	call	0x3268	; 0x3268 <sd_raw_rec_byte>
    36e0:	8f 3f       	cpi	r24, 0xFF	; 255
    36e2:	e1 f7       	brne	.-8      	; 0x36dc <sd_raw_write+0xd4>
        sd_raw_rec_byte();
    36e4:	0e 94 34 19 	call	0x3268	; 0x3268 <sd_raw_rec_byte>
        unselect_card();
    36e8:	2e 9a       	sbi	0x05, 6	; 5
        buffer += write_length;
    36ea:	28 0c       	add	r2, r8
    36ec:	39 1c       	adc	r3, r9
        offset += write_length;
    36ee:	c8 0c       	add	r12, r8
    36f0:	d9 1c       	adc	r13, r9
    36f2:	e1 1c       	adc	r14, r1
    36f4:	f1 1c       	adc	r15, r1
        length -= write_length;
    36f6:	8a 81       	ldd	r24, Y+2	; 0x02
    36f8:	9b 81       	ldd	r25, Y+3	; 0x03
    36fa:	88 19       	sub	r24, r8
    36fc:	99 09       	sbc	r25, r9
    36fe:	9b 83       	std	Y+3, r25	; 0x03
    3700:	8a 83       	std	Y+2, r24	; 0x02
        raw_block_written = 1;
    3702:	91 e0       	ldi	r25, 0x01	; 1
    3704:	90 93 ff 01 	sts	0x01FF, r25	; 0x8001ff <raw_block_written>
    while(length > 0)
    3708:	ea 81       	ldd	r30, Y+2	; 0x02
    370a:	fb 81       	ldd	r31, Y+3	; 0x03
    370c:	ef 2b       	or	r30, r31
    370e:	79 f2       	breq	.-98     	; 0x36ae <sd_raw_write+0xa6>
        block_offset = offset & 0x01ff;
    3710:	86 01       	movw	r16, r12
    3712:	11 70       	andi	r17, 0x01	; 1
        block_address = offset - block_offset;
    3714:	26 01       	movw	r4, r12
    3716:	37 01       	movw	r6, r14
    3718:	40 1a       	sub	r4, r16
    371a:	51 0a       	sbc	r5, r17
    371c:	61 08       	sbc	r6, r1
    371e:	71 08       	sbc	r7, r1
        write_length = 512 - block_offset; /* write up to block border */
    3720:	a1 2c       	mov	r10, r1
    3722:	82 e0       	ldi	r24, 0x02	; 2
    3724:	b8 2e       	mov	r11, r24
    3726:	a0 1a       	sub	r10, r16
    3728:	b1 0a       	sbc	r11, r17
        if(write_length > length)
    372a:	45 01       	movw	r8, r10
    372c:	8a 81       	ldd	r24, Y+2	; 0x02
    372e:	9b 81       	ldd	r25, Y+3	; 0x03
    3730:	8a 15       	cp	r24, r10
    3732:	9b 05       	cpc	r25, r11
    3734:	08 f4       	brcc	.+2      	; 0x3738 <sd_raw_write+0x130>
    3736:	4c 01       	movw	r8, r24
        if(block_address != raw_block_address)
    3738:	80 91 00 02 	lds	r24, 0x0200	; 0x800200 <raw_block_address>
    373c:	90 91 01 02 	lds	r25, 0x0201	; 0x800201 <raw_block_address+0x1>
    3740:	a0 91 02 02 	lds	r26, 0x0202	; 0x800202 <raw_block_address+0x2>
    3744:	b0 91 03 02 	lds	r27, 0x0203	; 0x800203 <raw_block_address+0x3>
    3748:	48 16       	cp	r4, r24
    374a:	59 06       	cpc	r5, r25
    374c:	6a 06       	cpc	r6, r26
    374e:	7b 06       	cpc	r7, r27
    3750:	b1 f0       	breq	.+44     	; 0x377e <sd_raw_write+0x176>
            if(!sd_raw_sync())
    3752:	0e 94 7d 19 	call	0x32fa	; 0x32fa <sd_raw_sync>
    3756:	88 23       	and	r24, r24
    3758:	09 f4       	brne	.+2      	; 0x375c <sd_raw_write+0x154>
    375a:	77 cf       	rjmp	.-274    	; 0x364a <sd_raw_write+0x42>
            if(block_offset || write_length < 512)
    375c:	01 15       	cp	r16, r1
    375e:	11 05       	cpc	r17, r1
    3760:	09 f0       	breq	.+2      	; 0x3764 <sd_raw_write+0x15c>
    3762:	8b cf       	rjmp	.-234    	; 0x367a <sd_raw_write+0x72>
    3764:	81 14       	cp	r8, r1
    3766:	92 e0       	ldi	r25, 0x02	; 2
    3768:	99 06       	cpc	r9, r25
    376a:	09 f0       	breq	.+2      	; 0x376e <sd_raw_write+0x166>
    376c:	86 cf       	rjmp	.-244    	; 0x367a <sd_raw_write+0x72>
            raw_block_address = block_address;
    376e:	40 92 00 02 	sts	0x0200, r4	; 0x800200 <raw_block_address>
    3772:	50 92 01 02 	sts	0x0201, r5	; 0x800201 <raw_block_address+0x1>
    3776:	60 92 02 02 	sts	0x0202, r6	; 0x800202 <raw_block_address+0x2>
    377a:	70 92 03 02 	sts	0x0203, r7	; 0x800203 <raw_block_address+0x3>
        if(buffer != raw_block)
    377e:	e4 e0       	ldi	r30, 0x04	; 4
    3780:	2e 16       	cp	r2, r30
    3782:	e2 e0       	ldi	r30, 0x02	; 2
    3784:	3e 06       	cpc	r3, r30
    3786:	09 f0       	breq	.+2      	; 0x378a <sd_raw_write+0x182>
    3788:	83 cf       	rjmp	.-250    	; 0x3690 <sd_raw_write+0x88>
        select_card();
    378a:	2e 98       	cbi	0x05, 6	; 5
        if(sd_raw_send_command(CMD_WRITE_SINGLE_BLOCK, block_address))
    378c:	b3 01       	movw	r22, r6
    378e:	a2 01       	movw	r20, r4
    3790:	88 e1       	ldi	r24, 0x18	; 24
    3792:	0e 94 3e 19 	call	0x327c	; 0x327c <sd_raw_send_command>
    3796:	88 23       	and	r24, r24
    3798:	09 f4       	brne	.+2      	; 0x379c <sd_raw_write+0x194>
    379a:	8c cf       	rjmp	.-232    	; 0x36b4 <sd_raw_write+0xac>
            unselect_card();
    379c:	2e 9a       	sbi	0x05, 6	; 5
            return 0;
    379e:	56 cf       	rjmp	.-340    	; 0x364c <sd_raw_write+0x44>

000037a0 <sd_raw_write_interval>:
{
    37a0:	4f 92       	push	r4
    37a2:	5f 92       	push	r5
    37a4:	6f 92       	push	r6
    37a6:	7f 92       	push	r7
    37a8:	8f 92       	push	r8
    37aa:	9f 92       	push	r9
    37ac:	af 92       	push	r10
    37ae:	bf 92       	push	r11
    37b0:	cf 92       	push	r12
    37b2:	df 92       	push	r13
    37b4:	ef 92       	push	r14
    37b6:	ff 92       	push	r15
    37b8:	0f 93       	push	r16
    37ba:	1f 93       	push	r17
    37bc:	cf 93       	push	r28
    37be:	df 93       	push	r29
    37c0:	2b 01       	movw	r4, r22
    37c2:	3c 01       	movw	r6, r24
    37c4:	6a 01       	movw	r12, r20
    37c6:	59 01       	movw	r10, r18
    37c8:	48 01       	movw	r8, r16
    if(!buffer || !callback)
    37ca:	45 2b       	or	r20, r21
    37cc:	91 f4       	brne	.+36     	; 0x37f2 <sd_raw_write_interval+0x52>
        return 0;
    37ce:	80 e0       	ldi	r24, 0x00	; 0
}
    37d0:	df 91       	pop	r29
    37d2:	cf 91       	pop	r28
    37d4:	1f 91       	pop	r17
    37d6:	0f 91       	pop	r16
    37d8:	ff 90       	pop	r15
    37da:	ef 90       	pop	r14
    37dc:	df 90       	pop	r13
    37de:	cf 90       	pop	r12
    37e0:	bf 90       	pop	r11
    37e2:	af 90       	pop	r10
    37e4:	9f 90       	pop	r9
    37e6:	8f 90       	pop	r8
    37e8:	7f 90       	pop	r7
    37ea:	6f 90       	pop	r6
    37ec:	5f 90       	pop	r5
    37ee:	4f 90       	pop	r4
    37f0:	08 95       	ret
    37f2:	89 01       	movw	r16, r18
    if(!buffer || !callback)
    37f4:	81 14       	cp	r8, r1
    37f6:	91 04       	cpc	r9, r1
    37f8:	51 f3       	breq	.-44     	; 0x37ce <sd_raw_write_interval+0x2e>
    while(endless || length > 0)
    37fa:	a1 14       	cp	r10, r1
    37fc:	b1 04       	cpc	r11, r1
    37fe:	19 f0       	breq	.+6      	; 0x3806 <sd_raw_write_interval+0x66>
    3800:	01 15       	cp	r16, r1
    3802:	11 05       	cpc	r17, r1
    3804:	49 f0       	breq	.+18     	; 0x3818 <sd_raw_write_interval+0x78>
        uint16_t bytes_to_write = callback(buffer, offset, p);
    3806:	97 01       	movw	r18, r14
    3808:	b3 01       	movw	r22, r6
    380a:	a2 01       	movw	r20, r4
    380c:	c6 01       	movw	r24, r12
    380e:	f4 01       	movw	r30, r8
    3810:	09 95       	icall
    3812:	ec 01       	movw	r28, r24
        if(!bytes_to_write)
    3814:	00 97       	sbiw	r24, 0x00	; 0
    3816:	11 f4       	brne	.+4      	; 0x381c <sd_raw_write_interval+0x7c>
    return 1;
    3818:	81 e0       	ldi	r24, 0x01	; 1
    381a:	da cf       	rjmp	.-76     	; 0x37d0 <sd_raw_write_interval+0x30>
        if(!endless && bytes_to_write > length)
    381c:	a1 14       	cp	r10, r1
    381e:	b1 04       	cpc	r11, r1
    3820:	19 f0       	breq	.+6      	; 0x3828 <sd_raw_write_interval+0x88>
    3822:	08 17       	cp	r16, r24
    3824:	19 07       	cpc	r17, r25
    3826:	98 f2       	brcs	.-90     	; 0x37ce <sd_raw_write_interval+0x2e>
        if(!sd_raw_write(offset, buffer, bytes_to_write))
    3828:	9e 01       	movw	r18, r28
    382a:	a6 01       	movw	r20, r12
    382c:	c3 01       	movw	r24, r6
    382e:	b2 01       	movw	r22, r4
    3830:	0e 94 04 1b 	call	0x3608	; 0x3608 <sd_raw_write>
    3834:	88 23       	and	r24, r24
    3836:	59 f2       	breq	.-106    	; 0x37ce <sd_raw_write_interval+0x2e>
        offset += bytes_to_write;
    3838:	4c 0e       	add	r4, r28
    383a:	5d 1e       	adc	r5, r29
    383c:	61 1c       	adc	r6, r1
    383e:	71 1c       	adc	r7, r1
        length -= bytes_to_write;
    3840:	0c 1b       	sub	r16, r28
    3842:	1d 0b       	sbc	r17, r29
    3844:	da cf       	rjmp	.-76     	; 0x37fa <sd_raw_write_interval+0x5a>

00003846 <sd_raw_get_info>:
 *
 * \param[in] info A pointer to the structure into which to save the information.
 * \returns 0 on failure, 1 on success.
 */
uint8_t sd_raw_get_info(struct sd_raw_info* info)
{
    3846:	af 92       	push	r10
    3848:	bf 92       	push	r11
    384a:	cf 92       	push	r12
    384c:	df 92       	push	r13
    384e:	ef 92       	push	r14
    3850:	ff 92       	push	r15
    3852:	0f 93       	push	r16
    3854:	1f 93       	push	r17
    3856:	cf 93       	push	r28
    3858:	df 93       	push	r29
    385a:	ec 01       	movw	r28, r24
    if(!info || !sd_raw_available())
    385c:	89 2b       	or	r24, r25
    385e:	91 f0       	breq	.+36     	; 0x3884 <sd_raw_get_info+0x3e>
    3860:	1f 99       	sbic	0x03, 7	; 3
    3862:	10 c0       	rjmp	.+32     	; 0x3884 <sd_raw_get_info+0x3e>
        return 0;

    memset(info, 0, sizeof(*info));
    3864:	89 e1       	ldi	r24, 0x19	; 25
    3866:	fe 01       	movw	r30, r28
    3868:	11 92       	st	Z+, r1
    386a:	8a 95       	dec	r24
    386c:	e9 f7       	brne	.-6      	; 0x3868 <sd_raw_get_info+0x22>

    select_card();
    386e:	2e 98       	cbi	0x05, 6	; 5

    /* read cid register */
    if(sd_raw_send_command(CMD_SEND_CID, 0))
    3870:	40 e0       	ldi	r20, 0x00	; 0
    3872:	50 e0       	ldi	r21, 0x00	; 0
    3874:	ba 01       	movw	r22, r20
    3876:	8a e0       	ldi	r24, 0x0A	; 10
    3878:	0e 94 3e 19 	call	0x327c	; 0x327c <sd_raw_send_command>
    387c:	f8 2e       	mov	r15, r24
    387e:	88 23       	and	r24, r24
    3880:	19 f0       	breq	.+6      	; 0x3888 <sd_raw_get_info+0x42>
    {
        unselect_card();
    3882:	2e 9a       	sbi	0x05, 6	; 5
        return 0;
    3884:	f1 2c       	mov	r15, r1
    3886:	23 c0       	rjmp	.+70     	; 0x38ce <sd_raw_get_info+0x88>
        return 0;
    }
    while(sd_raw_rec_byte() != 0xfe);
    3888:	0e 94 34 19 	call	0x3268	; 0x3268 <sd_raw_rec_byte>
    388c:	8e 3f       	cpi	r24, 0xFE	; 254
    388e:	e1 f7       	brne	.-8      	; 0x3888 <sd_raw_get_info+0x42>
    3890:	10 e0       	ldi	r17, 0x00	; 0
    3892:	00 e0       	ldi	r16, 0x00	; 0
                break;
            case 9:
            case 10:
            case 11:
            case 12:
                info->serial |= (uint32_t) b << ((12 - i) * 8);
    3894:	58 ef       	ldi	r21, 0xF8	; 248
    3896:	e5 2e       	mov	r14, r21
        uint8_t b = sd_raw_rec_byte();
    3898:	0e 94 34 19 	call	0x3268	; 0x3268 <sd_raw_rec_byte>
        switch(i)
    389c:	e0 2f       	mov	r30, r16
    389e:	0f 30       	cpi	r16, 0x0F	; 15
    38a0:	30 f4       	brcc	.+12     	; 0x38ae <sd_raw_get_info+0x68>
    38a2:	f0 e0       	ldi	r31, 0x00	; 0
    38a4:	ef 5b       	subi	r30, 0xBF	; 191
    38a6:	fc 4c       	sbci	r31, 0xCC	; 204
    38a8:	0c 94 7e 2f 	jmp	0x5efc	; 0x5efc <__tablejump2__>
                info->manufacturer = b;
    38ac:	88 83       	st	Y, r24
                break;
    38ae:	0f 5f       	subi	r16, 0xFF	; 255
    38b0:	1f 4f       	sbci	r17, 0xFF	; 255
    for(uint8_t i = 0; i < 18; ++i)
    38b2:	02 31       	cpi	r16, 0x12	; 18
    38b4:	11 05       	cpc	r17, r1
    38b6:	81 f7       	brne	.-32     	; 0x3898 <sd_raw_get_info+0x52>
    uint16_t csd_c_size = 0;
#else
    uint32_t csd_c_size = 0;
#endif
    uint8_t csd_structure = 0;
    if(sd_raw_send_command(CMD_SEND_CSD, 0))
    38b8:	40 e0       	ldi	r20, 0x00	; 0
    38ba:	50 e0       	ldi	r21, 0x00	; 0
    38bc:	ba 01       	movw	r22, r20
    38be:	89 e0       	ldi	r24, 0x09	; 9
    38c0:	0e 94 3e 19 	call	0x327c	; 0x327c <sd_raw_send_command>
    38c4:	a8 2e       	mov	r10, r24
    38c6:	88 23       	and	r24, r24
    38c8:	09 f4       	brne	.+2      	; 0x38cc <sd_raw_get_info+0x86>
    38ca:	45 c0       	rjmp	.+138    	; 0x3956 <sd_raw_get_info+0x110>
    {
        unselect_card();
    38cc:	2e 9a       	sbi	0x05, 6	; 5
    }

    unselect_card();

    return 1;
}
    38ce:	8f 2d       	mov	r24, r15
    38d0:	df 91       	pop	r29
    38d2:	cf 91       	pop	r28
    38d4:	1f 91       	pop	r17
    38d6:	0f 91       	pop	r16
    38d8:	ff 90       	pop	r15
    38da:	ef 90       	pop	r14
    38dc:	df 90       	pop	r13
    38de:	cf 90       	pop	r12
    38e0:	bf 90       	pop	r11
    38e2:	af 90       	pop	r10
    38e4:	08 95       	ret
                info->oem[i - 1] = b;
    38e6:	fe 01       	movw	r30, r28
    38e8:	e0 0f       	add	r30, r16
    38ea:	f1 1f       	adc	r31, r17
    38ec:	80 83       	st	Z, r24
                break;
    38ee:	df cf       	rjmp	.-66     	; 0x38ae <sd_raw_get_info+0x68>
                info->product[i - 3] = b;
    38f0:	fe 01       	movw	r30, r28
    38f2:	e0 0f       	add	r30, r16
    38f4:	f1 1f       	adc	r31, r17
    38f6:	81 83       	std	Z+1, r24	; 0x01
                break;
    38f8:	da cf       	rjmp	.-76     	; 0x38ae <sd_raw_get_info+0x68>
                info->revision = b;
    38fa:	8a 87       	std	Y+10, r24	; 0x0a
                break;
    38fc:	d8 cf       	rjmp	.-80     	; 0x38ae <sd_raw_get_info+0x68>
                info->serial |= (uint32_t) b << ((12 - i) * 8);
    38fe:	90 e0       	ldi	r25, 0x00	; 0
    3900:	b0 e0       	ldi	r27, 0x00	; 0
    3902:	a0 e0       	ldi	r26, 0x00	; 0
    3904:	4e 2d       	mov	r20, r14
    3906:	40 03       	mulsu	r20, r16
    3908:	90 01       	movw	r18, r0
    390a:	41 9f       	mul	r20, r17
    390c:	30 0d       	add	r19, r0
    390e:	11 24       	eor	r1, r1
    3910:	20 5a       	subi	r18, 0xA0	; 160
    3912:	3f 4f       	sbci	r19, 0xFF	; 255
    3914:	04 c0       	rjmp	.+8      	; 0x391e <sd_raw_get_info+0xd8>
    3916:	88 0f       	add	r24, r24
    3918:	99 1f       	adc	r25, r25
    391a:	aa 1f       	adc	r26, r26
    391c:	bb 1f       	adc	r27, r27
    391e:	2a 95       	dec	r18
    3920:	d2 f7       	brpl	.-12     	; 0x3916 <sd_raw_get_info+0xd0>
    3922:	4b 85       	ldd	r20, Y+11	; 0x0b
    3924:	5c 85       	ldd	r21, Y+12	; 0x0c
    3926:	6d 85       	ldd	r22, Y+13	; 0x0d
    3928:	7e 85       	ldd	r23, Y+14	; 0x0e
    392a:	84 2b       	or	r24, r20
    392c:	95 2b       	or	r25, r21
    392e:	a6 2b       	or	r26, r22
    3930:	b7 2b       	or	r27, r23
    3932:	8b 87       	std	Y+11, r24	; 0x0b
    3934:	9c 87       	std	Y+12, r25	; 0x0c
    3936:	ad 87       	std	Y+13, r26	; 0x0d
    3938:	be 87       	std	Y+14, r27	; 0x0e
                break;
    393a:	b9 cf       	rjmp	.-142    	; 0x38ae <sd_raw_get_info+0x68>
                info->manufacturing_year = b << 4;
    393c:	82 95       	swap	r24
    393e:	80 7f       	andi	r24, 0xF0	; 240
    3940:	8f 87       	std	Y+15, r24	; 0x0f
                break;
    3942:	b5 cf       	rjmp	.-150    	; 0x38ae <sd_raw_get_info+0x68>
                info->manufacturing_year |= b >> 4;
    3944:	28 2f       	mov	r18, r24
    3946:	22 95       	swap	r18
    3948:	2f 70       	andi	r18, 0x0F	; 15
    394a:	9f 85       	ldd	r25, Y+15	; 0x0f
    394c:	92 2b       	or	r25, r18
    394e:	9f 87       	std	Y+15, r25	; 0x0f
                info->manufacturing_month = b & 0x0f;
    3950:	8f 70       	andi	r24, 0x0F	; 15
    3952:	88 8b       	std	Y+16, r24	; 0x10
                break;
    3954:	ac cf       	rjmp	.-168    	; 0x38ae <sd_raw_get_info+0x68>
    while(sd_raw_rec_byte() != 0xfe);
    3956:	0e 94 34 19 	call	0x3268	; 0x3268 <sd_raw_rec_byte>
    395a:	8e 3f       	cpi	r24, 0xFE	; 254
    395c:	e1 f7       	brne	.-8      	; 0x3956 <sd_raw_get_info+0x110>
    for(uint8_t i = 0; i < 18; ++i)
    395e:	10 e0       	ldi	r17, 0x00	; 0
    uint8_t csd_read_bl_len = 0;
    3960:	b1 2c       	mov	r11, r1
    uint32_t csd_c_size = 0;
    3962:	c1 2c       	mov	r12, r1
    3964:	d1 2c       	mov	r13, r1
    3966:	76 01       	movw	r14, r12
                info->flag_write_protect_temp = 1;
    3968:	01 e0       	ldi	r16, 0x01	; 1
        uint8_t b = sd_raw_rec_byte();
    396a:	0e 94 34 19 	call	0x3268	; 0x3268 <sd_raw_rec_byte>
    396e:	98 2f       	mov	r25, r24
        if(i == 0)
    3970:	11 23       	and	r17, r17
    3972:	81 f0       	breq	.+32     	; 0x3994 <sd_raw_get_info+0x14e>
        else if(i == 14)
    3974:	1e 30       	cpi	r17, 0x0E	; 14
    3976:	a9 f4       	brne	.+42     	; 0x39a2 <sd_raw_get_info+0x15c>
            if(b & 0x40)
    3978:	28 2f       	mov	r18, r24
    397a:	30 e0       	ldi	r19, 0x00	; 0
    397c:	86 fd       	sbrc	r24, 6
                info->flag_copy = 1;
    397e:	0d 8b       	std	Y+21, r16	; 0x15
            if(b & 0x20)
    3980:	95 fd       	sbrc	r25, 5
                info->flag_write_protect = 1;
    3982:	0e 8b       	std	Y+22, r16	; 0x16
            if(b & 0x10)
    3984:	94 fd       	sbrc	r25, 4
                info->flag_write_protect_temp = 1;
    3986:	0f 8b       	std	Y+23, r16	; 0x17
            info->format = (b & 0x0c) >> 2;
    3988:	35 95       	asr	r19
    398a:	27 95       	ror	r18
    398c:	35 95       	asr	r19
    398e:	27 95       	ror	r18
    3990:	23 70       	andi	r18, 0x03	; 3
    3992:	28 8f       	std	Y+24, r18	; 0x18
    for(uint8_t i = 0; i < 18; ++i)
    3994:	1f 5f       	subi	r17, 0xFF	; 255
    3996:	12 31       	cpi	r17, 0x12	; 18
    3998:	41 f7       	brne	.-48     	; 0x396a <sd_raw_get_info+0x124>
    unselect_card();
    399a:	2e 9a       	sbi	0x05, 6	; 5
    return 1;
    399c:	ff 24       	eor	r15, r15
    399e:	f3 94       	inc	r15
    39a0:	96 cf       	rjmp	.-212    	; 0x38ce <sd_raw_get_info+0x88>
                switch(i)
    39a2:	17 30       	cpi	r17, 0x07	; 7
    39a4:	89 f1       	breq	.+98     	; 0x3a08 <sd_raw_get_info+0x1c2>
    39a6:	70 f4       	brcc	.+28     	; 0x39c4 <sd_raw_get_info+0x17e>
    39a8:	15 30       	cpi	r17, 0x05	; 5
    39aa:	59 f1       	breq	.+86     	; 0x3a02 <sd_raw_get_info+0x1bc>
    39ac:	16 30       	cpi	r17, 0x06	; 6
    39ae:	91 f7       	brne	.-28     	; 0x3994 <sd_raw_get_info+0x14e>
                        csd_c_size = b & 0x03;
    39b0:	93 70       	andi	r25, 0x03	; 3
    39b2:	c9 2e       	mov	r12, r25
    39b4:	d1 2c       	mov	r13, r1
    39b6:	f1 2c       	mov	r15, r1
    39b8:	e1 2c       	mov	r14, r1
                        csd_c_size <<= 8;
    39ba:	fe 2c       	mov	r15, r14
    39bc:	ed 2c       	mov	r14, r13
    39be:	dc 2c       	mov	r13, r12
    39c0:	cc 24       	eor	r12, r12
                        break;
    39c2:	e8 cf       	rjmp	.-48     	; 0x3994 <sd_raw_get_info+0x14e>
                switch(i)
    39c4:	19 30       	cpi	r17, 0x09	; 9
    39c6:	a1 f1       	breq	.+104    	; 0x3a30 <sd_raw_get_info+0x1ea>
    39c8:	40 f1       	brcs	.+80     	; 0x3a1a <sd_raw_get_info+0x1d4>
    39ca:	1a 30       	cpi	r17, 0x0A	; 10
    39cc:	19 f7       	brne	.-58     	; 0x3994 <sd_raw_get_info+0x14e>
                        csd_c_size_mult |= b >> 7;
    39ce:	99 1f       	adc	r25, r25
    39d0:	99 27       	eor	r25, r25
    39d2:	99 1f       	adc	r25, r25
    39d4:	a9 2a       	or	r10, r25
                        info->capacity = (uint32_t) csd_c_size << (csd_c_size_mult + csd_read_bl_len + 2);
    39d6:	ea 2d       	mov	r30, r10
    39d8:	eb 0d       	add	r30, r11
    39da:	ff 27       	eor	r31, r31
    39dc:	ff 1f       	adc	r31, r31
    39de:	cf 01       	movw	r24, r30
    39e0:	02 96       	adiw	r24, 0x02	; 2
    39e2:	a7 01       	movw	r20, r14
    39e4:	96 01       	movw	r18, r12
    39e6:	04 c0       	rjmp	.+8      	; 0x39f0 <sd_raw_get_info+0x1aa>
    39e8:	22 0f       	add	r18, r18
    39ea:	33 1f       	adc	r19, r19
    39ec:	44 1f       	adc	r20, r20
    39ee:	55 1f       	adc	r21, r21
    39f0:	8a 95       	dec	r24
    39f2:	d2 f7       	brpl	.-12     	; 0x39e8 <sd_raw_get_info+0x1a2>
    39f4:	da 01       	movw	r26, r20
    39f6:	c9 01       	movw	r24, r18
    39f8:	89 8b       	std	Y+17, r24	; 0x11
    39fa:	9a 8b       	std	Y+18, r25	; 0x12
    39fc:	ab 8b       	std	Y+19, r26	; 0x13
    39fe:	bc 8b       	std	Y+20, r27	; 0x14
                        break;
    3a00:	c9 cf       	rjmp	.-110    	; 0x3994 <sd_raw_get_info+0x14e>
                        csd_read_bl_len = b & 0x0f;
    3a02:	9f 70       	andi	r25, 0x0F	; 15
    3a04:	b9 2e       	mov	r11, r25
                        break;
    3a06:	c6 cf       	rjmp	.-116    	; 0x3994 <sd_raw_get_info+0x14e>
                        csd_c_size |= b;
    3a08:	c8 2a       	or	r12, r24
                        csd_c_size <<= 2;
    3a0a:	82 e0       	ldi	r24, 0x02	; 2
    3a0c:	cc 0c       	add	r12, r12
    3a0e:	dd 1c       	adc	r13, r13
    3a10:	ee 1c       	adc	r14, r14
    3a12:	ff 1c       	adc	r15, r15
    3a14:	8a 95       	dec	r24
    3a16:	d1 f7       	brne	.-12     	; 0x3a0c <sd_raw_get_info+0x1c6>
                        break;
    3a18:	bd cf       	rjmp	.-134    	; 0x3994 <sd_raw_get_info+0x14e>
                        csd_c_size |= b >> 6;
    3a1a:	92 95       	swap	r25
    3a1c:	96 95       	lsr	r25
    3a1e:	96 95       	lsr	r25
    3a20:	93 70       	andi	r25, 0x03	; 3
    3a22:	c9 2a       	or	r12, r25
                        ++csd_c_size;
    3a24:	5f ef       	ldi	r21, 0xFF	; 255
    3a26:	c5 1a       	sub	r12, r21
    3a28:	d5 0a       	sbc	r13, r21
    3a2a:	e5 0a       	sbc	r14, r21
    3a2c:	f5 0a       	sbc	r15, r21
                        break;
    3a2e:	b2 cf       	rjmp	.-156    	; 0x3994 <sd_raw_get_info+0x14e>
                        csd_c_size_mult <<= 1;
    3a30:	99 0f       	add	r25, r25
    3a32:	96 70       	andi	r25, 0x06	; 6
    3a34:	a9 2e       	mov	r10, r25
                        break;
    3a36:	ae cf       	rjmp	.-164    	; 0x3994 <sd_raw_get_info+0x14e>

00003a38 <partition_open>:
 *                  as a single partition (e.g. for "super floppy" use).
 * \returns 0 on failure, a partition descriptor on success.
 * \see partition_close
 */
struct partition_struct* partition_open(device_read_t device_read, device_read_interval_t device_read_interval, device_write_t device_write, device_write_interval_t device_write_interval, int8_t index)
{
    3a38:	8f 92       	push	r8
    3a3a:	9f 92       	push	r9
    3a3c:	af 92       	push	r10
    3a3e:	bf 92       	push	r11
    3a40:	cf 92       	push	r12
    3a42:	df 92       	push	r13
    3a44:	ef 92       	push	r14
    3a46:	ff 92       	push	r15
    3a48:	0f 93       	push	r16
    3a4a:	cf 93       	push	r28
    3a4c:	df 93       	push	r29
    3a4e:	cd b7       	in	r28, 0x3d	; 61
    3a50:	de b7       	in	r29, 0x3e	; 62
    3a52:	60 97       	sbiw	r28, 0x10	; 16
    3a54:	0f b6       	in	r0, 0x3f	; 63
    3a56:	f8 94       	cli
    3a58:	de bf       	out	0x3e, r29	; 62
    3a5a:	0f be       	out	0x3f, r0	; 63
    3a5c:	cd bf       	out	0x3d, r28	; 61
    3a5e:	7c 01       	movw	r14, r24
    3a60:	6b 01       	movw	r12, r22
    3a62:	5a 01       	movw	r10, r20
    3a64:	49 01       	movw	r8, r18
    struct partition_struct* new_partition = 0;
    uint8_t buffer[0x10];

    if(!device_read || !device_read_interval || index >= 4)
    3a66:	89 2b       	or	r24, r25
    3a68:	a1 f4       	brne	.+40     	; 0x3a92 <partition_open+0x5a>
        return 0;
    3a6a:	90 e0       	ldi	r25, 0x00	; 0
    3a6c:	80 e0       	ldi	r24, 0x00	; 0
    {
        new_partition->type = 0xff;
    }

    return new_partition;
}
    3a6e:	60 96       	adiw	r28, 0x10	; 16
    3a70:	0f b6       	in	r0, 0x3f	; 63
    3a72:	f8 94       	cli
    3a74:	de bf       	out	0x3e, r29	; 62
    3a76:	0f be       	out	0x3f, r0	; 63
    3a78:	cd bf       	out	0x3d, r28	; 61
    3a7a:	df 91       	pop	r29
    3a7c:	cf 91       	pop	r28
    3a7e:	0f 91       	pop	r16
    3a80:	ff 90       	pop	r15
    3a82:	ef 90       	pop	r14
    3a84:	df 90       	pop	r13
    3a86:	cf 90       	pop	r12
    3a88:	bf 90       	pop	r11
    3a8a:	af 90       	pop	r10
    3a8c:	9f 90       	pop	r9
    3a8e:	8f 90       	pop	r8
    3a90:	08 95       	ret
    if(!device_read || !device_read_interval || index >= 4)
    3a92:	67 2b       	or	r22, r23
    3a94:	51 f3       	breq	.-44     	; 0x3a6a <partition_open+0x32>
    3a96:	04 30       	cpi	r16, 0x04	; 4
    3a98:	44 f7       	brge	.-48     	; 0x3a6a <partition_open+0x32>
    if(index >= 0)
    3a9a:	07 fd       	sbrc	r16, 7
    3a9c:	16 c0       	rjmp	.+44     	; 0x3aca <partition_open+0x92>
        if(!device_read(0x01be + index * 0x10, buffer, sizeof(buffer)))
    3a9e:	80 e1       	ldi	r24, 0x10	; 16
    3aa0:	08 02       	muls	r16, r24
    3aa2:	b0 01       	movw	r22, r0
    3aa4:	11 24       	eor	r1, r1
    3aa6:	62 54       	subi	r22, 0x42	; 66
    3aa8:	7e 4f       	sbci	r23, 0xFE	; 254
    3aaa:	07 2e       	mov	r0, r23
    3aac:	00 0c       	add	r0, r0
    3aae:	88 0b       	sbc	r24, r24
    3ab0:	99 0b       	sbc	r25, r25
    3ab2:	20 e1       	ldi	r18, 0x10	; 16
    3ab4:	30 e0       	ldi	r19, 0x00	; 0
    3ab6:	ae 01       	movw	r20, r28
    3ab8:	4f 5f       	subi	r20, 0xFF	; 255
    3aba:	5f 4f       	sbci	r21, 0xFF	; 255
    3abc:	f7 01       	movw	r30, r14
    3abe:	09 95       	icall
    3ac0:	88 23       	and	r24, r24
    3ac2:	99 f2       	breq	.-90     	; 0x3a6a <partition_open+0x32>
        if(buffer[4] == 0x00)
    3ac4:	8d 81       	ldd	r24, Y+5	; 0x05
    3ac6:	88 23       	and	r24, r24
    3ac8:	81 f2       	breq	.-96     	; 0x3a6a <partition_open+0x32>
        if(new_partition->type == PARTITION_TYPE_FREE)
    3aca:	80 91 0c 04 	lds	r24, 0x040C	; 0x80040c <partition_handles+0x8>
    3ace:	81 11       	cpse	r24, r1
    3ad0:	cc cf       	rjmp	.-104    	; 0x3a6a <partition_open+0x32>
    memset(new_partition, 0, sizeof(*new_partition));
    3ad2:	ec e0       	ldi	r30, 0x0C	; 12
    3ad4:	f4 e0       	ldi	r31, 0x04	; 4
    3ad6:	89 e0       	ldi	r24, 0x09	; 9
    3ad8:	df 01       	movw	r26, r30
    3ada:	1d 92       	st	X+, r1
    3adc:	8a 95       	dec	r24
    3ade:	e9 f7       	brne	.-6      	; 0x3ada <partition_open+0xa2>
    new_partition->device_read = device_read;
    3ae0:	f0 92 05 04 	sts	0x0405, r15	; 0x800405 <partition_handles+0x1>
    3ae4:	e0 92 04 04 	sts	0x0404, r14	; 0x800404 <partition_handles>
    new_partition->device_read_interval = device_read_interval;
    3ae8:	d0 92 07 04 	sts	0x0407, r13	; 0x800407 <partition_handles+0x3>
    3aec:	c0 92 06 04 	sts	0x0406, r12	; 0x800406 <partition_handles+0x2>
    new_partition->device_write = device_write;
    3af0:	b0 92 09 04 	sts	0x0409, r11	; 0x800409 <partition_handles+0x5>
    3af4:	a0 92 08 04 	sts	0x0408, r10	; 0x800408 <partition_handles+0x4>
    new_partition->device_write_interval = device_write_interval;
    3af8:	90 92 0b 04 	sts	0x040B, r9	; 0x80040b <partition_handles+0x7>
    3afc:	80 92 0a 04 	sts	0x040A, r8	; 0x80040a <partition_handles+0x6>
    if(index >= 0)
    3b00:	07 fd       	sbrc	r16, 7
    3b02:	1e c0       	rjmp	.+60     	; 0x3b40 <partition_open+0x108>
        new_partition->type = buffer[4];
    3b04:	8d 81       	ldd	r24, Y+5	; 0x05
    3b06:	80 93 0c 04 	sts	0x040C, r24	; 0x80040c <partition_handles+0x8>
        new_partition->offset = read32(&buffer[8]);
    3b0a:	ce 01       	movw	r24, r28
    3b0c:	09 96       	adiw	r24, 0x09	; 9
    3b0e:	0e 94 a7 2c 	call	0x594e	; 0x594e <read32>
    3b12:	60 93 0d 04 	sts	0x040D, r22	; 0x80040d <partition_handles+0x9>
    3b16:	70 93 0e 04 	sts	0x040E, r23	; 0x80040e <partition_handles+0xa>
    3b1a:	80 93 0f 04 	sts	0x040F, r24	; 0x80040f <partition_handles+0xb>
    3b1e:	90 93 10 04 	sts	0x0410, r25	; 0x800410 <partition_handles+0xc>
        new_partition->length = read32(&buffer[12]);
    3b22:	ce 01       	movw	r24, r28
    3b24:	0d 96       	adiw	r24, 0x0d	; 13
    3b26:	0e 94 a7 2c 	call	0x594e	; 0x594e <read32>
    3b2a:	60 93 11 04 	sts	0x0411, r22	; 0x800411 <partition_handles+0xd>
    3b2e:	70 93 12 04 	sts	0x0412, r23	; 0x800412 <partition_handles+0xe>
    3b32:	80 93 13 04 	sts	0x0413, r24	; 0x800413 <partition_handles+0xf>
    3b36:	90 93 14 04 	sts	0x0414, r25	; 0x800414 <partition_handles+0x10>
    new_partition = partition_handles;
    3b3a:	84 e0       	ldi	r24, 0x04	; 4
    3b3c:	94 e0       	ldi	r25, 0x04	; 4
    3b3e:	97 cf       	rjmp	.-210    	; 0x3a6e <partition_open+0x36>
        new_partition->type = 0xff;
    3b40:	8f ef       	ldi	r24, 0xFF	; 255
    3b42:	80 93 0c 04 	sts	0x040C, r24	; 0x80040c <partition_handles+0x8>
    3b46:	f9 cf       	rjmp	.-14     	; 0x3b3a <partition_open+0x102>

00003b48 <partition_close>:
 * \returns 0 on failure, 1 on success.
 * \see partition_open
 */
uint8_t partition_close(struct partition_struct* partition)
{
    if(!partition)
    3b48:	00 97       	sbiw	r24, 0x00	; 0
    3b4a:	21 f0       	breq	.+8      	; 0x3b54 <partition_close+0xc>

    /* destroy partition descriptor */
#if USE_DYNAMIC_MEMORY
    free(partition);
#else
    partition->type = PARTITION_TYPE_FREE;
    3b4c:	fc 01       	movw	r30, r24
    3b4e:	10 86       	std	Z+8, r1	; 0x08
#endif

    return 1;
    3b50:	81 e0       	ldi	r24, 0x01	; 1
    3b52:	08 95       	ret
        return 0;
    3b54:	80 e0       	ldi	r24, 0x00	; 0
}
    3b56:	08 95       	ret

00003b58 <fat_clear_cluster_callback>:
 * Callback function for clearing a cluster.
 */
uintptr_t fat_clear_cluster_callback(uint8_t* buffer, offset_t offset, void* p)
{
    return 16;
}
    3b58:	80 e1       	ldi	r24, 0x10	; 16
    3b5a:	90 e0       	ldi	r25, 0x00	; 0
    3b5c:	08 95       	ret

00003b5e <fat_calc_83_checksum>:
 *
 * \param[in] file_name_83 The 11-byte file name buffer.
 * \returns The checksum of the given file name.
 */
uint8_t fat_calc_83_checksum(const uint8_t* file_name_83)
{
    3b5e:	9c 01       	movw	r18, r24
    uint8_t checksum = file_name_83[0];
    3b60:	fc 01       	movw	r30, r24
    3b62:	81 91       	ld	r24, Z+
    for(uint8_t i = 1; i < 11; ++i)
    3b64:	25 5f       	subi	r18, 0xF5	; 245
    3b66:	3f 4f       	sbci	r19, 0xFF	; 255
        checksum = ((checksum >> 1) | (checksum << 7)) + file_name_83[i];
    3b68:	98 2f       	mov	r25, r24
    3b6a:	90 fb       	bst	r25, 0
    3b6c:	97 95       	ror	r25
    3b6e:	97 f9       	bld	r25, 7
    3b70:	81 91       	ld	r24, Z+
    3b72:	89 0f       	add	r24, r25
    for(uint8_t i = 1; i < 11; ++i)
    3b74:	2e 17       	cp	r18, r30
    3b76:	3f 07       	cpc	r19, r31
    3b78:	b9 f7       	brne	.-18     	; 0x3b68 <fat_calc_83_checksum+0xa>

    return checksum;
}
    3b7a:	08 95       	ret

00003b7c <fat_get_fs_free_16_callback>:
/**
 * \ingroup fat_fs
 * Callback function used for counting free clusters in a FAT.
 */
uint8_t fat_get_fs_free_16_callback(uint8_t* buffer, offset_t offset, void* p)
{
    3b7c:	cf 92       	push	r12
    3b7e:	df 92       	push	r13
    3b80:	ef 92       	push	r14
    3b82:	ff 92       	push	r15
    3b84:	0f 93       	push	r16
    3b86:	1f 93       	push	r17
    3b88:	cf 93       	push	r28
    3b8a:	df 93       	push	r29
    3b8c:	6c 01       	movw	r12, r24
    3b8e:	89 01       	movw	r16, r18
    struct fat_usage_count_callback_arg* count_arg = (struct fat_usage_count_callback_arg*) p;
    uintptr_t buffer_size = count_arg->buffer_size;
    3b90:	f9 01       	movw	r30, r18
    3b92:	e2 80       	ldd	r14, Z+2	; 0x02
    3b94:	f3 80       	ldd	r15, Z+3	; 0x03

    for(uintptr_t i = 0; i < buffer_size; i += 2, buffer += 2)
    3b96:	d0 e0       	ldi	r29, 0x00	; 0
    3b98:	c0 e0       	ldi	r28, 0x00	; 0
    3b9a:	c6 01       	movw	r24, r12
    3b9c:	8c 0f       	add	r24, r28
    3b9e:	9d 1f       	adc	r25, r29
    3ba0:	ce 15       	cp	r28, r14
    3ba2:	df 05       	cpc	r29, r15
    3ba4:	50 f0       	brcs	.+20     	; 0x3bba <fat_get_fs_free_16_callback+0x3e>
        if(cluster == HTOL16(FAT16_CLUSTER_FREE))
            ++(count_arg->cluster_count);
    }

    return 1;
}
    3ba6:	81 e0       	ldi	r24, 0x01	; 1
    3ba8:	df 91       	pop	r29
    3baa:	cf 91       	pop	r28
    3bac:	1f 91       	pop	r17
    3bae:	0f 91       	pop	r16
    3bb0:	ff 90       	pop	r15
    3bb2:	ef 90       	pop	r14
    3bb4:	df 90       	pop	r13
    3bb6:	cf 90       	pop	r12
    3bb8:	08 95       	ret
        uint16_t cluster = read16(buffer);
    3bba:	0e 94 a3 2c 	call	0x5946	; 0x5946 <read16>
        if(cluster == HTOL16(FAT16_CLUSTER_FREE))
    3bbe:	89 2b       	or	r24, r25
    3bc0:	31 f4       	brne	.+12     	; 0x3bce <fat_get_fs_free_16_callback+0x52>
            ++(count_arg->cluster_count);
    3bc2:	f8 01       	movw	r30, r16
    3bc4:	80 81       	ld	r24, Z
    3bc6:	91 81       	ldd	r25, Z+1	; 0x01
    3bc8:	01 96       	adiw	r24, 0x01	; 1
    3bca:	91 83       	std	Z+1, r25	; 0x01
    3bcc:	80 83       	st	Z, r24
    for(uintptr_t i = 0; i < buffer_size; i += 2, buffer += 2)
    3bce:	22 96       	adiw	r28, 0x02	; 2
    3bd0:	e4 cf       	rjmp	.-56     	; 0x3b9a <fat_get_fs_free_16_callback+0x1e>

00003bd2 <fat_dir_entry_read_callback>:
{
    3bd2:	8f 92       	push	r8
    3bd4:	9f 92       	push	r9
    3bd6:	af 92       	push	r10
    3bd8:	bf 92       	push	r11
    3bda:	cf 92       	push	r12
    3bdc:	df 92       	push	r13
    3bde:	ef 92       	push	r14
    3be0:	ff 92       	push	r15
    3be2:	0f 93       	push	r16
    3be4:	1f 93       	push	r17
    3be6:	cf 93       	push	r28
    3be8:	df 93       	push	r29
    3bea:	cd b7       	in	r28, 0x3d	; 61
    3bec:	de b7       	in	r29, 0x3e	; 62
    3bee:	2d 97       	sbiw	r28, 0x0d	; 13
    3bf0:	0f b6       	in	r0, 0x3f	; 63
    3bf2:	f8 94       	cli
    3bf4:	de bf       	out	0x3e, r29	; 62
    3bf6:	0f be       	out	0x3f, r0	; 63
    3bf8:	cd bf       	out	0x3d, r28	; 61
    3bfa:	7c 01       	movw	r14, r24
    3bfc:	4a 01       	movw	r8, r20
    3bfe:	5b 01       	movw	r10, r22
    3c00:	69 01       	movw	r12, r18
    struct fat_dir_entry_struct* dir_entry = arg->dir_entry;
    3c02:	d9 01       	movw	r26, r18
    3c04:	0d 91       	ld	r16, X+
    3c06:	1c 91       	ld	r17, X
    3c08:	11 97       	sbiw	r26, 0x01	; 1
    arg->bytes_read += 32;
    3c0a:	12 96       	adiw	r26, 0x02	; 2
    3c0c:	8d 91       	ld	r24, X+
    3c0e:	9c 91       	ld	r25, X
    3c10:	13 97       	sbiw	r26, 0x03	; 3
    3c12:	80 96       	adiw	r24, 0x20	; 32
    3c14:	13 96       	adiw	r26, 0x03	; 3
    3c16:	9c 93       	st	X, r25
    3c18:	8e 93       	st	-X, r24
    3c1a:	12 97       	sbiw	r26, 0x02	; 2
    if(buffer[0] == FAT_DIRENTRY_DELETED || !buffer[0])
    3c1c:	f7 01       	movw	r30, r14
    3c1e:	80 81       	ld	r24, Z
    3c20:	85 3e       	cpi	r24, 0xE5	; 229
    3c22:	11 f0       	breq	.+4      	; 0x3c28 <fat_dir_entry_read_callback+0x56>
    3c24:	81 11       	cpse	r24, r1
    3c26:	17 c0       	rjmp	.+46     	; 0x3c56 <fat_dir_entry_read_callback+0x84>
        arg->checksum = 0;
    3c28:	d6 01       	movw	r26, r12
    3c2a:	14 96       	adiw	r26, 0x04	; 4
    3c2c:	1c 92       	st	X, r1
        return 1;
    3c2e:	81 e0       	ldi	r24, 0x01	; 1
}
    3c30:	2d 96       	adiw	r28, 0x0d	; 13
    3c32:	0f b6       	in	r0, 0x3f	; 63
    3c34:	f8 94       	cli
    3c36:	de bf       	out	0x3e, r29	; 62
    3c38:	0f be       	out	0x3f, r0	; 63
    3c3a:	cd bf       	out	0x3d, r28	; 61
    3c3c:	df 91       	pop	r29
    3c3e:	cf 91       	pop	r28
    3c40:	1f 91       	pop	r17
    3c42:	0f 91       	pop	r16
    3c44:	ff 90       	pop	r15
    3c46:	ef 90       	pop	r14
    3c48:	df 90       	pop	r13
    3c4a:	cf 90       	pop	r12
    3c4c:	bf 90       	pop	r11
    3c4e:	af 90       	pop	r10
    3c50:	9f 90       	pop	r9
    3c52:	8f 90       	pop	r8
    3c54:	08 95       	ret
    if(buffer[11] == 0x0f)
    3c56:	83 85       	ldd	r24, Z+11	; 0x0b
    3c58:	8f 30       	cpi	r24, 0x0F	; 15
    3c5a:	09 f0       	breq	.+2      	; 0x3c5e <fat_dir_entry_read_callback+0x8c>
    3c5c:	40 c0       	rjmp	.+128    	; 0x3cde <fat_dir_entry_read_callback+0x10c>
        if(arg->checksum == 0 || arg->checksum != buffer[13])
    3c5e:	14 96       	adiw	r26, 0x04	; 4
    3c60:	8c 91       	ld	r24, X
    3c62:	88 23       	and	r24, r24
    3c64:	19 f0       	breq	.+6      	; 0x3c6c <fat_dir_entry_read_callback+0x9a>
    3c66:	95 85       	ldd	r25, Z+13	; 0x0d
    3c68:	89 17       	cp	r24, r25
    3c6a:	89 f0       	breq	.+34     	; 0x3c8e <fat_dir_entry_read_callback+0xbc>
            memset(dir_entry, 0, sizeof(*dir_entry));
    3c6c:	8b e2       	ldi	r24, 0x2B	; 43
    3c6e:	f8 01       	movw	r30, r16
    3c70:	11 92       	st	Z+, r1
    3c72:	8a 95       	dec	r24
    3c74:	e9 f7       	brne	.-6      	; 0x3c70 <fat_dir_entry_read_callback+0x9e>
            arg->checksum = buffer[13];
    3c76:	d7 01       	movw	r26, r14
    3c78:	1d 96       	adiw	r26, 0x0d	; 13
    3c7a:	8c 91       	ld	r24, X
    3c7c:	f6 01       	movw	r30, r12
    3c7e:	84 83       	std	Z+4, r24	; 0x04
            dir_entry->entry_offset = offset;
    3c80:	d8 01       	movw	r26, r16
    3c82:	97 96       	adiw	r26, 0x27	; 39
    3c84:	8d 92       	st	X+, r8
    3c86:	9d 92       	st	X+, r9
    3c88:	ad 92       	st	X+, r10
    3c8a:	bc 92       	st	X, r11
    3c8c:	9a 97       	sbiw	r26, 0x2a	; 42
        uint16_t char_offset = ((buffer[0] & 0x3f) - 1) * 13;
    3c8e:	f7 01       	movw	r30, r14
    3c90:	20 81       	ld	r18, Z
    3c92:	2f 73       	andi	r18, 0x3F	; 63
    3c94:	21 50       	subi	r18, 0x01	; 1
    3c96:	33 0b       	sbc	r19, r19
    3c98:	4d e0       	ldi	r20, 0x0D	; 13
    3c9a:	42 9f       	mul	r20, r18
    3c9c:	c0 01       	movw	r24, r0
    3c9e:	43 9f       	mul	r20, r19
    3ca0:	90 0d       	add	r25, r0
    3ca2:	11 24       	eor	r1, r1
        const uint8_t char_mapping[] = { 1, 3, 5, 7, 9, 14, 16, 18, 20, 22, 24, 28, 30 };
    3ca4:	e4 e0       	ldi	r30, 0x04	; 4
    3ca6:	f1 e0       	ldi	r31, 0x01	; 1
    3ca8:	de 01       	movw	r26, r28
    3caa:	11 96       	adiw	r26, 0x01	; 1
    3cac:	01 90       	ld	r0, Z+
    3cae:	0d 92       	st	X+, r0
    3cb0:	4a 95       	dec	r20
    3cb2:	e1 f7       	brne	.-8      	; 0x3cac <fat_dir_entry_read_callback+0xda>
        for(uint8_t i = 0; i <= 12 && char_offset + i < sizeof(dir_entry->long_name) - 1; ++i)
    3cb4:	fe 01       	movw	r30, r28
    3cb6:	31 96       	adiw	r30, 0x01	; 1
    3cb8:	2d e0       	ldi	r18, 0x0D	; 13
    3cba:	28 0f       	add	r18, r24
    3cbc:	8f 31       	cpi	r24, 0x1F	; 31
    3cbe:	91 05       	cpc	r25, r1
    3cc0:	08 f0       	brcs	.+2      	; 0x3cc4 <fat_dir_entry_read_callback+0xf2>
    3cc2:	b5 cf       	rjmp	.-150    	; 0x3c2e <fat_dir_entry_read_callback+0x5c>
            long_name[char_offset + i] = buffer[char_mapping[i]];
    3cc4:	a1 91       	ld	r26, Z+
    3cc6:	ae 0d       	add	r26, r14
    3cc8:	bf 2d       	mov	r27, r15
    3cca:	b1 1d       	adc	r27, r1
    3ccc:	3c 91       	ld	r19, X
    3cce:	d8 01       	movw	r26, r16
    3cd0:	a8 0f       	add	r26, r24
    3cd2:	b9 1f       	adc	r27, r25
    3cd4:	3c 93       	st	X, r19
    3cd6:	01 96       	adiw	r24, 0x01	; 1
        for(uint8_t i = 0; i <= 12 && char_offset + i < sizeof(dir_entry->long_name) - 1; ++i)
    3cd8:	28 13       	cpse	r18, r24
    3cda:	f0 cf       	rjmp	.-32     	; 0x3cbc <fat_dir_entry_read_callback+0xea>
    3cdc:	a8 cf       	rjmp	.-176    	; 0x3c2e <fat_dir_entry_read_callback+0x5c>
        if(long_name[0] == '\0' || arg->checksum != fat_calc_83_checksum(buffer))
    3cde:	d8 01       	movw	r26, r16
    3ce0:	8c 91       	ld	r24, X
    3ce2:	88 23       	and	r24, r24
    3ce4:	41 f0       	breq	.+16     	; 0x3cf6 <fat_dir_entry_read_callback+0x124>
    3ce6:	c7 01       	movw	r24, r14
    3ce8:	0e 94 af 1d 	call	0x3b5e	; 0x3b5e <fat_calc_83_checksum>
    3cec:	f6 01       	movw	r30, r12
    3cee:	94 81       	ldd	r25, Z+4	; 0x04
    3cf0:	98 17       	cp	r25, r24
    3cf2:	09 f4       	brne	.+2      	; 0x3cf6 <fat_dir_entry_read_callback+0x124>
    3cf4:	58 c0       	rjmp	.+176    	; 0x3da6 <fat_dir_entry_read_callback+0x1d4>
            memset(dir_entry, 0, sizeof(*dir_entry));
    3cf6:	87 e2       	ldi	r24, 0x27	; 39
    3cf8:	d8 01       	movw	r26, r16
    3cfa:	1d 92       	st	X+, r1
    3cfc:	8a 95       	dec	r24
    3cfe:	e9 f7       	brne	.-6      	; 0x3cfa <fat_dir_entry_read_callback+0x128>
            dir_entry->entry_offset = offset;
    3d00:	f8 01       	movw	r30, r16
    3d02:	87 a2       	std	Z+39, r8	; 0x27
    3d04:	90 a6       	std	Z+40, r9	; 0x28
    3d06:	a1 a6       	std	Z+41, r10	; 0x29
    3d08:	b2 a6       	std	Z+42, r11	; 0x2a
            for(i = 0; i < 8; ++i)
    3d0a:	97 01       	movw	r18, r14
    3d0c:	a8 01       	movw	r20, r16
    3d0e:	e0 e0       	ldi	r30, 0x00	; 0
                if(buffer[i] == ' ')
    3d10:	d9 01       	movw	r26, r18
    3d12:	8d 91       	ld	r24, X+
    3d14:	9d 01       	movw	r18, r26
    3d16:	80 32       	cpi	r24, 0x20	; 32
    3d18:	99 f0       	breq	.+38     	; 0x3d40 <fat_dir_entry_read_callback+0x16e>
                long_name[i] = buffer[i];
    3d1a:	da 01       	movw	r26, r20
    3d1c:	8c 93       	st	X, r24
                if((buffer[12] & 0x08) && buffer[i] >= 'A' && buffer[i] <= 'Z')
    3d1e:	d7 01       	movw	r26, r14
    3d20:	1c 96       	adiw	r26, 0x0c	; 12
    3d22:	9c 91       	ld	r25, X
    3d24:	93 ff       	sbrs	r25, 3
    3d26:	07 c0       	rjmp	.+14     	; 0x3d36 <fat_dir_entry_read_callback+0x164>
    3d28:	9f eb       	ldi	r25, 0xBF	; 191
    3d2a:	98 0f       	add	r25, r24
    3d2c:	9a 31       	cpi	r25, 0x1A	; 26
    3d2e:	18 f4       	brcc	.+6      	; 0x3d36 <fat_dir_entry_read_callback+0x164>
                    long_name[i] += 'a' - 'A';
    3d30:	80 5e       	subi	r24, 0xE0	; 224
    3d32:	da 01       	movw	r26, r20
    3d34:	8c 93       	st	X, r24
            for(i = 0; i < 8; ++i)
    3d36:	ef 5f       	subi	r30, 0xFF	; 255
    3d38:	4f 5f       	subi	r20, 0xFF	; 255
    3d3a:	5f 4f       	sbci	r21, 0xFF	; 255
    3d3c:	e8 30       	cpi	r30, 0x08	; 8
    3d3e:	41 f7       	brne	.-48     	; 0x3d10 <fat_dir_entry_read_callback+0x13e>
            if(long_name[0] == 0x05)
    3d40:	d8 01       	movw	r26, r16
    3d42:	8c 91       	ld	r24, X
    3d44:	85 30       	cpi	r24, 0x05	; 5
    3d46:	11 f4       	brne	.+4      	; 0x3d4c <fat_dir_entry_read_callback+0x17a>
                long_name[0] = (char) FAT_DIRENTRY_DELETED;
    3d48:	85 ee       	ldi	r24, 0xE5	; 229
    3d4a:	8c 93       	st	X, r24
            if(buffer[8] != ' ')
    3d4c:	d7 01       	movw	r26, r14
    3d4e:	18 96       	adiw	r26, 0x08	; 8
    3d50:	8c 91       	ld	r24, X
    3d52:	80 32       	cpi	r24, 0x20	; 32
    3d54:	21 f1       	breq	.+72     	; 0x3d9e <fat_dir_entry_read_callback+0x1cc>
                long_name[i++] = '.';
    3d56:	d8 01       	movw	r26, r16
    3d58:	ae 0f       	add	r26, r30
    3d5a:	b1 1d       	adc	r27, r1
    3d5c:	8e e2       	ldi	r24, 0x2E	; 46
    3d5e:	8c 93       	st	X, r24
                for(; j < 11; ++j)
    3d60:	b7 01       	movw	r22, r14
    3d62:	68 5f       	subi	r22, 0xF8	; 248
    3d64:	7f 4f       	sbci	r23, 0xFF	; 255
    3d66:	94 e0       	ldi	r25, 0x04	; 4
    3d68:	9e 0f       	add	r25, r30
                long_name[i++] = '.';
    3d6a:	ef 5f       	subi	r30, 0xFF	; 255
                    if(buffer[j] == ' ')
    3d6c:	db 01       	movw	r26, r22
    3d6e:	8d 91       	ld	r24, X+
    3d70:	bd 01       	movw	r22, r26
    3d72:	98 01       	movw	r18, r16
    3d74:	2e 0f       	add	r18, r30
    3d76:	31 1d       	adc	r19, r1
    3d78:	80 32       	cpi	r24, 0x20	; 32
    3d7a:	89 f0       	breq	.+34     	; 0x3d9e <fat_dir_entry_read_callback+0x1cc>
                    long_name[i] = buffer[j];
    3d7c:	d9 01       	movw	r26, r18
    3d7e:	8c 93       	st	X, r24
                    if((buffer[12] & 0x10) && buffer[j] >= 'A' && buffer[j] <= 'Z')
    3d80:	d7 01       	movw	r26, r14
    3d82:	1c 96       	adiw	r26, 0x0c	; 12
    3d84:	4c 91       	ld	r20, X
    3d86:	44 ff       	sbrs	r20, 4
    3d88:	07 c0       	rjmp	.+14     	; 0x3d98 <fat_dir_entry_read_callback+0x1c6>
    3d8a:	4f eb       	ldi	r20, 0xBF	; 191
    3d8c:	48 0f       	add	r20, r24
    3d8e:	4a 31       	cpi	r20, 0x1A	; 26
    3d90:	18 f4       	brcc	.+6      	; 0x3d98 <fat_dir_entry_read_callback+0x1c6>
                        long_name[i] += 'a' - 'A';
    3d92:	80 5e       	subi	r24, 0xE0	; 224
    3d94:	d9 01       	movw	r26, r18
    3d96:	8c 93       	st	X, r24
                    ++i;
    3d98:	ef 5f       	subi	r30, 0xFF	; 255
                for(; j < 11; ++j)
    3d9a:	e9 13       	cpse	r30, r25
    3d9c:	e7 cf       	rjmp	.-50     	; 0x3d6c <fat_dir_entry_read_callback+0x19a>
            long_name[i] = '\0';
    3d9e:	e0 0f       	add	r30, r16
    3da0:	f1 2f       	mov	r31, r17
    3da2:	f1 1d       	adc	r31, r1
    3da4:	10 82       	st	Z, r1
        dir_entry->attributes = buffer[11];
    3da6:	f7 01       	movw	r30, r14
    3da8:	83 85       	ldd	r24, Z+11	; 0x0b
    3daa:	d8 01       	movw	r26, r16
    3dac:	90 96       	adiw	r26, 0x20	; 32
    3dae:	8c 93       	st	X, r24
        dir_entry->cluster = read16(&buffer[26]);
    3db0:	c7 01       	movw	r24, r14
    3db2:	4a 96       	adiw	r24, 0x1a	; 26
    3db4:	0e 94 a3 2c 	call	0x5946	; 0x5946 <read16>
    3db8:	f8 01       	movw	r30, r16
    3dba:	92 a3       	std	Z+34, r25	; 0x22
    3dbc:	81 a3       	std	Z+33, r24	; 0x21
        dir_entry->file_size = read32(&buffer[28]);
    3dbe:	c7 01       	movw	r24, r14
    3dc0:	4c 96       	adiw	r24, 0x1c	; 28
    3dc2:	0e 94 a7 2c 	call	0x594e	; 0x594e <read32>
    3dc6:	d8 01       	movw	r26, r16
    3dc8:	93 96       	adiw	r26, 0x23	; 35
    3dca:	6d 93       	st	X+, r22
    3dcc:	7d 93       	st	X+, r23
    3dce:	8d 93       	st	X+, r24
    3dd0:	9c 93       	st	X, r25
    3dd2:	96 97       	sbiw	r26, 0x26	; 38
        arg->finished = 1;
    3dd4:	81 e0       	ldi	r24, 0x01	; 1
    3dd6:	f6 01       	movw	r30, r12
    3dd8:	85 83       	std	Z+5, r24	; 0x05
        return 0;
    3dda:	80 e0       	ldi	r24, 0x00	; 0
    3ddc:	29 cf       	rjmp	.-430    	; 0x3c30 <fat_dir_entry_read_callback+0x5e>

00003dde <fat_get_next_cluster>:
{
    3dde:	0f 93       	push	r16
    3de0:	1f 93       	push	r17
    3de2:	cf 93       	push	r28
    3de4:	df 93       	push	r29
    3de6:	00 d0       	rcall	.+0      	; 0x3de8 <fat_get_next_cluster+0xa>
    3de8:	cd b7       	in	r28, 0x3d	; 61
    3dea:	de b7       	in	r29, 0x3e	; 62
    3dec:	fc 01       	movw	r30, r24
    if(!fs || cluster_num < 2)
    3dee:	89 2b       	or	r24, r25
    3df0:	39 f1       	breq	.+78     	; 0x3e40 <fat_get_next_cluster+0x62>
    3df2:	62 30       	cpi	r22, 0x02	; 2
    3df4:	71 05       	cpc	r23, r1
    3df6:	20 f1       	brcs	.+72     	; 0x3e40 <fat_get_next_cluster+0x62>
        if(!fs->partition->device_read(fs->header.fat_offset + (offset_t) cluster_num * sizeof(fat_entry), (uint8_t*) &fat_entry, sizeof(fat_entry)))
    3df8:	90 e0       	ldi	r25, 0x00	; 0
    3dfa:	80 e0       	ldi	r24, 0x00	; 0
    3dfc:	66 0f       	add	r22, r22
    3dfe:	77 1f       	adc	r23, r23
    3e00:	88 1f       	adc	r24, r24
    3e02:	99 1f       	adc	r25, r25
    3e04:	06 81       	ldd	r16, Z+6	; 0x06
    3e06:	17 81       	ldd	r17, Z+7	; 0x07
    3e08:	20 85       	ldd	r18, Z+8	; 0x08
    3e0a:	31 85       	ldd	r19, Z+9	; 0x09
    3e0c:	60 0f       	add	r22, r16
    3e0e:	71 1f       	adc	r23, r17
    3e10:	82 1f       	adc	r24, r18
    3e12:	93 1f       	adc	r25, r19
    3e14:	01 90       	ld	r0, Z+
    3e16:	f0 81       	ld	r31, Z
    3e18:	e0 2d       	mov	r30, r0
    3e1a:	01 90       	ld	r0, Z+
    3e1c:	f0 81       	ld	r31, Z
    3e1e:	e0 2d       	mov	r30, r0
    3e20:	22 e0       	ldi	r18, 0x02	; 2
    3e22:	30 e0       	ldi	r19, 0x00	; 0
    3e24:	ae 01       	movw	r20, r28
    3e26:	4f 5f       	subi	r20, 0xFF	; 255
    3e28:	5f 4f       	sbci	r21, 0xFF	; 255
    3e2a:	09 95       	icall
    3e2c:	88 23       	and	r24, r24
    3e2e:	41 f0       	breq	.+16     	; 0x3e40 <fat_get_next_cluster+0x62>
        cluster_num = ltoh16(fat_entry);
    3e30:	89 81       	ldd	r24, Y+1	; 0x01
    3e32:	9a 81       	ldd	r25, Y+2	; 0x02
        if(cluster_num == FAT16_CLUSTER_FREE ||
    3e34:	9c 01       	movw	r18, r24
    3e36:	21 50       	subi	r18, 0x01	; 1
    3e38:	31 09       	sbc	r19, r1
    3e3a:	2f 3e       	cpi	r18, 0xEF	; 239
    3e3c:	3f 4f       	sbci	r19, 0xFF	; 255
    3e3e:	10 f0       	brcs	.+4      	; 0x3e44 <fat_get_next_cluster+0x66>
        return 0;
    3e40:	90 e0       	ldi	r25, 0x00	; 0
    3e42:	80 e0       	ldi	r24, 0x00	; 0
}
    3e44:	0f 90       	pop	r0
    3e46:	0f 90       	pop	r0
    3e48:	df 91       	pop	r29
    3e4a:	cf 91       	pop	r28
    3e4c:	1f 91       	pop	r17
    3e4e:	0f 91       	pop	r16
    3e50:	08 95       	ret

00003e52 <fat_free_clusters>:
{
    3e52:	4f 92       	push	r4
    3e54:	5f 92       	push	r5
    3e56:	6f 92       	push	r6
    3e58:	7f 92       	push	r7
    3e5a:	af 92       	push	r10
    3e5c:	bf 92       	push	r11
    3e5e:	cf 92       	push	r12
    3e60:	df 92       	push	r13
    3e62:	ef 92       	push	r14
    3e64:	ff 92       	push	r15
    3e66:	0f 93       	push	r16
    3e68:	1f 93       	push	r17
    3e6a:	cf 93       	push	r28
    3e6c:	df 93       	push	r29
    3e6e:	00 d0       	rcall	.+0      	; 0x3e70 <fat_free_clusters+0x1e>
    3e70:	cd b7       	in	r28, 0x3d	; 61
    3e72:	de b7       	in	r29, 0x3e	; 62
    3e74:	5c 01       	movw	r10, r24
    3e76:	8b 01       	movw	r16, r22
    if(!fs || cluster_num < 2)
    3e78:	00 97       	sbiw	r24, 0x00	; 0
    3e7a:	09 f4       	brne	.+2      	; 0x3e7e <fat_free_clusters+0x2c>
    3e7c:	5a c0       	rjmp	.+180    	; 0x3f32 <fat_free_clusters+0xe0>
    3e7e:	62 30       	cpi	r22, 0x02	; 2
    3e80:	71 05       	cpc	r23, r1
    3e82:	08 f4       	brcc	.+2      	; 0x3e86 <fat_free_clusters+0x34>
    3e84:	56 c0       	rjmp	.+172    	; 0x3f32 <fat_free_clusters+0xe0>
    offset_t fat_offset = fs->header.fat_offset;
    3e86:	dc 01       	movw	r26, r24
    3e88:	16 96       	adiw	r26, 0x06	; 6
    3e8a:	4d 90       	ld	r4, X+
    3e8c:	5d 90       	ld	r5, X+
    3e8e:	6d 90       	ld	r6, X+
    3e90:	7c 90       	ld	r7, X
    3e92:	19 97       	sbiw	r26, 0x09	; 9
            if(!fs->partition->device_read(fat_offset + (offset_t) cluster_num * sizeof(fat_entry), (uint8_t*) &fat_entry, sizeof(fat_entry)))
    3e94:	68 01       	movw	r12, r16
    3e96:	f1 2c       	mov	r15, r1
    3e98:	e1 2c       	mov	r14, r1
    3e9a:	cc 0c       	add	r12, r12
    3e9c:	dd 1c       	adc	r13, r13
    3e9e:	ee 1c       	adc	r14, r14
    3ea0:	ff 1c       	adc	r15, r15
    3ea2:	c4 0c       	add	r12, r4
    3ea4:	d5 1c       	adc	r13, r5
    3ea6:	e6 1c       	adc	r14, r6
    3ea8:	f7 1c       	adc	r15, r7
    3eaa:	d5 01       	movw	r26, r10
    3eac:	ed 91       	ld	r30, X+
    3eae:	fc 91       	ld	r31, X
    3eb0:	01 90       	ld	r0, Z+
    3eb2:	f0 81       	ld	r31, Z
    3eb4:	e0 2d       	mov	r30, r0
    3eb6:	22 e0       	ldi	r18, 0x02	; 2
    3eb8:	30 e0       	ldi	r19, 0x00	; 0
    3eba:	ae 01       	movw	r20, r28
    3ebc:	4f 5f       	subi	r20, 0xFF	; 255
    3ebe:	5f 4f       	sbci	r21, 0xFF	; 255
    3ec0:	c7 01       	movw	r24, r14
    3ec2:	b6 01       	movw	r22, r12
    3ec4:	09 95       	icall
    3ec6:	88 23       	and	r24, r24
    3ec8:	19 f1       	breq	.+70     	; 0x3f10 <fat_free_clusters+0xbe>
            uint16_t cluster_num_next = ltoh16(fat_entry);
    3eca:	09 81       	ldd	r16, Y+1	; 0x01
    3ecc:	1a 81       	ldd	r17, Y+2	; 0x02
            if(cluster_num_next == FAT16_CLUSTER_FREE)
    3ece:	01 15       	cp	r16, r1
    3ed0:	11 05       	cpc	r17, r1
    3ed2:	e9 f0       	breq	.+58     	; 0x3f0e <fat_free_clusters+0xbc>
            if(cluster_num_next == FAT16_CLUSTER_BAD ||
    3ed4:	c8 01       	movw	r24, r16
    3ed6:	40 96       	adiw	r24, 0x10	; 16
    3ed8:	08 97       	sbiw	r24, 0x08	; 8
    3eda:	58 f1       	brcs	.+86     	; 0x3f32 <fat_free_clusters+0xe0>
            if(cluster_num_next >= FAT16_CLUSTER_LAST_MIN && cluster_num_next <= FAT16_CLUSTER_LAST_MAX)
    3edc:	08 3f       	cpi	r16, 0xF8	; 248
    3ede:	bf ef       	ldi	r27, 0xFF	; 255
    3ee0:	1b 07       	cpc	r17, r27
    3ee2:	10 f0       	brcs	.+4      	; 0x3ee8 <fat_free_clusters+0x96>
                cluster_num_next = 0;
    3ee4:	10 e0       	ldi	r17, 0x00	; 0
    3ee6:	00 e0       	ldi	r16, 0x00	; 0
            fat_entry = HTOL16(FAT16_CLUSTER_FREE);
    3ee8:	1a 82       	std	Y+2, r1	; 0x02
    3eea:	19 82       	std	Y+1, r1	; 0x01
            fs->partition->device_write(fat_offset + (offset_t) cluster_num * sizeof(fat_entry), (uint8_t*) &fat_entry, sizeof(fat_entry));
    3eec:	d5 01       	movw	r26, r10
    3eee:	ed 91       	ld	r30, X+
    3ef0:	fc 91       	ld	r31, X
    3ef2:	04 80       	ldd	r0, Z+4	; 0x04
    3ef4:	f5 81       	ldd	r31, Z+5	; 0x05
    3ef6:	e0 2d       	mov	r30, r0
    3ef8:	22 e0       	ldi	r18, 0x02	; 2
    3efa:	30 e0       	ldi	r19, 0x00	; 0
    3efc:	ae 01       	movw	r20, r28
    3efe:	4f 5f       	subi	r20, 0xFF	; 255
    3f00:	5f 4f       	sbci	r21, 0xFF	; 255
    3f02:	c7 01       	movw	r24, r14
    3f04:	b6 01       	movw	r22, r12
    3f06:	09 95       	icall
        while(cluster_num)
    3f08:	01 15       	cp	r16, r1
    3f0a:	11 05       	cpc	r17, r1
    3f0c:	19 f6       	brne	.-122    	; 0x3e94 <fat_free_clusters+0x42>
                return 1;
    3f0e:	81 e0       	ldi	r24, 0x01	; 1
}
    3f10:	0f 90       	pop	r0
    3f12:	0f 90       	pop	r0
    3f14:	df 91       	pop	r29
    3f16:	cf 91       	pop	r28
    3f18:	1f 91       	pop	r17
    3f1a:	0f 91       	pop	r16
    3f1c:	ff 90       	pop	r15
    3f1e:	ef 90       	pop	r14
    3f20:	df 90       	pop	r13
    3f22:	cf 90       	pop	r12
    3f24:	bf 90       	pop	r11
    3f26:	af 90       	pop	r10
    3f28:	7f 90       	pop	r7
    3f2a:	6f 90       	pop	r6
    3f2c:	5f 90       	pop	r5
    3f2e:	4f 90       	pop	r4
    3f30:	08 95       	ret
        return 0;
    3f32:	80 e0       	ldi	r24, 0x00	; 0
    3f34:	ed cf       	rjmp	.-38     	; 0x3f10 <fat_free_clusters+0xbe>

00003f36 <fat_append_clusters>:
{
    3f36:	2f 92       	push	r2
    3f38:	3f 92       	push	r3
    3f3a:	4f 92       	push	r4
    3f3c:	5f 92       	push	r5
    3f3e:	6f 92       	push	r6
    3f40:	7f 92       	push	r7
    3f42:	8f 92       	push	r8
    3f44:	9f 92       	push	r9
    3f46:	af 92       	push	r10
    3f48:	bf 92       	push	r11
    3f4a:	cf 92       	push	r12
    3f4c:	df 92       	push	r13
    3f4e:	ef 92       	push	r14
    3f50:	ff 92       	push	r15
    3f52:	0f 93       	push	r16
    3f54:	1f 93       	push	r17
    3f56:	cf 93       	push	r28
    3f58:	df 93       	push	r29
    3f5a:	cd b7       	in	r28, 0x3d	; 61
    3f5c:	de b7       	in	r29, 0x3e	; 62
    3f5e:	2c 97       	sbiw	r28, 0x0c	; 12
    3f60:	0f b6       	in	r0, 0x3f	; 63
    3f62:	f8 94       	cli
    3f64:	de bf       	out	0x3e, r29	; 62
    3f66:	0f be       	out	0x3f, r0	; 63
    3f68:	cd bf       	out	0x3d, r28	; 61
    3f6a:	6c 01       	movw	r12, r24
    3f6c:	1b 01       	movw	r2, r22
    3f6e:	5a 01       	movw	r10, r20
    if(!fs)
    3f70:	00 97       	sbiw	r24, 0x00	; 0
    3f72:	e1 f4       	brne	.+56     	; 0x3fac <fat_append_clusters+0x76>
    return 0;
    3f74:	f1 2c       	mov	r15, r1
    3f76:	e1 2c       	mov	r14, r1
}
    3f78:	c7 01       	movw	r24, r14
    3f7a:	2c 96       	adiw	r28, 0x0c	; 12
    3f7c:	0f b6       	in	r0, 0x3f	; 63
    3f7e:	f8 94       	cli
    3f80:	de bf       	out	0x3e, r29	; 62
    3f82:	0f be       	out	0x3f, r0	; 63
    3f84:	cd bf       	out	0x3d, r28	; 61
    3f86:	df 91       	pop	r29
    3f88:	cf 91       	pop	r28
    3f8a:	1f 91       	pop	r17
    3f8c:	0f 91       	pop	r16
    3f8e:	ff 90       	pop	r15
    3f90:	ef 90       	pop	r14
    3f92:	df 90       	pop	r13
    3f94:	cf 90       	pop	r12
    3f96:	bf 90       	pop	r11
    3f98:	af 90       	pop	r10
    3f9a:	9f 90       	pop	r9
    3f9c:	8f 90       	pop	r8
    3f9e:	7f 90       	pop	r7
    3fa0:	6f 90       	pop	r6
    3fa2:	5f 90       	pop	r5
    3fa4:	4f 90       	pop	r4
    3fa6:	3f 90       	pop	r3
    3fa8:	2f 90       	pop	r2
    3faa:	08 95       	ret
    device_read_t device_read = fs->partition->device_read;
    3fac:	dc 01       	movw	r26, r24
    3fae:	ed 91       	ld	r30, X+
    3fb0:	fc 91       	ld	r31, X
    3fb2:	11 97       	sbiw	r26, 0x01	; 1
    3fb4:	20 81       	ld	r18, Z
    3fb6:	31 81       	ldd	r19, Z+1	; 0x01
    3fb8:	3a 87       	std	Y+10, r19	; 0x0a
    3fba:	29 87       	std	Y+9, r18	; 0x09
    device_write_t device_write = fs->partition->device_write;
    3fbc:	44 81       	ldd	r20, Z+4	; 0x04
    3fbe:	55 81       	ldd	r21, Z+5	; 0x05
    3fc0:	5c 83       	std	Y+4, r21	; 0x04
    3fc2:	4b 83       	std	Y+3, r20	; 0x03
    offset_t fat_offset = fs->header.fat_offset;
    3fc4:	16 96       	adiw	r26, 0x06	; 6
    3fc6:	8d 91       	ld	r24, X+
    3fc8:	9d 91       	ld	r25, X+
    3fca:	0d 90       	ld	r0, X+
    3fcc:	bc 91       	ld	r27, X
    3fce:	a0 2d       	mov	r26, r0
    3fd0:	8d 83       	std	Y+5, r24	; 0x05
    3fd2:	9e 83       	std	Y+6, r25	; 0x06
    3fd4:	af 83       	std	Y+7, r26	; 0x07
    3fd6:	b8 87       	std	Y+8, r27	; 0x08
    cluster_t cluster_current = fs->cluster_free;
    3fd8:	f6 01       	movw	r30, r12
    3fda:	02 8d       	ldd	r16, Z+26	; 0x1a
    3fdc:	13 8d       	ldd	r17, Z+27	; 0x1b
        cluster_count = fs->header.fat_size / sizeof(fat_entry16);
    3fde:	82 85       	ldd	r24, Z+10	; 0x0a
    3fe0:	93 85       	ldd	r25, Z+11	; 0x0b
    3fe2:	a4 85       	ldd	r26, Z+12	; 0x0c
    3fe4:	b5 85       	ldd	r27, Z+13	; 0x0d
    3fe6:	b6 95       	lsr	r27
    3fe8:	a7 95       	ror	r26
    3fea:	97 95       	ror	r25
    3fec:	87 95       	ror	r24
    3fee:	9c 87       	std	Y+12, r25	; 0x0c
    3ff0:	8b 87       	std	Y+11, r24	; 0x0b
    fs->cluster_free = 0;
    3ff2:	13 8e       	std	Z+27, r1	; 0x1b
    3ff4:	12 8e       	std	Z+26, r1	; 0x1a
    for(cluster_t cluster_left = cluster_count; cluster_left > 0; --cluster_left, ++cluster_current)
    3ff6:	4c 01       	movw	r8, r24
    cluster_t cluster_next = 0;
    3ff8:	f1 2c       	mov	r15, r1
    3ffa:	e1 2c       	mov	r14, r1
    for(cluster_t cluster_left = cluster_count; cluster_left > 0; --cluster_left, ++cluster_current)
    3ffc:	81 14       	cp	r8, r1
    3ffe:	91 04       	cpc	r9, r1
    4000:	19 f4       	brne	.+6      	; 0x4008 <fat_append_clusters+0xd2>
        if(count_left > 0)
    4002:	ab 28       	or	r10, r11
    4004:	a1 f1       	breq	.+104    	; 0x406e <fat_append_clusters+0x138>
    4006:	67 c0       	rjmp	.+206    	; 0x40d6 <fat_append_clusters+0x1a0>
        if(cluster_current < 2 || cluster_current >= cluster_count)
    4008:	02 30       	cpi	r16, 0x02	; 2
    400a:	11 05       	cpc	r17, r1
    400c:	28 f0       	brcs	.+10     	; 0x4018 <fat_append_clusters+0xe2>
    400e:	2b 85       	ldd	r18, Y+11	; 0x0b
    4010:	3c 85       	ldd	r19, Y+12	; 0x0c
    4012:	02 17       	cp	r16, r18
    4014:	13 07       	cpc	r17, r19
    4016:	10 f0       	brcs	.+4      	; 0x401c <fat_append_clusters+0xe6>
            cluster_current = 2;
    4018:	02 e0       	ldi	r16, 0x02	; 2
    401a:	10 e0       	ldi	r17, 0x00	; 0
            if(!device_read(fat_offset + (offset_t) cluster_current * sizeof(fat_entry16), (uint8_t*) &fat_entry16, sizeof(fat_entry16)))
    401c:	28 01       	movw	r4, r16
    401e:	71 2c       	mov	r7, r1
    4020:	61 2c       	mov	r6, r1
    4022:	44 0c       	add	r4, r4
    4024:	55 1c       	adc	r5, r5
    4026:	66 1c       	adc	r6, r6
    4028:	77 1c       	adc	r7, r7
    402a:	8d 81       	ldd	r24, Y+5	; 0x05
    402c:	9e 81       	ldd	r25, Y+6	; 0x06
    402e:	af 81       	ldd	r26, Y+7	; 0x07
    4030:	b8 85       	ldd	r27, Y+8	; 0x08
    4032:	48 0e       	add	r4, r24
    4034:	59 1e       	adc	r5, r25
    4036:	6a 1e       	adc	r6, r26
    4038:	7b 1e       	adc	r7, r27
    403a:	22 e0       	ldi	r18, 0x02	; 2
    403c:	30 e0       	ldi	r19, 0x00	; 0
    403e:	ae 01       	movw	r20, r28
    4040:	4f 5f       	subi	r20, 0xFF	; 255
    4042:	5f 4f       	sbci	r21, 0xFF	; 255
    4044:	c3 01       	movw	r24, r6
    4046:	b2 01       	movw	r22, r4
    4048:	e9 85       	ldd	r30, Y+9	; 0x09
    404a:	fa 85       	ldd	r31, Y+10	; 0x0a
    404c:	09 95       	icall
    404e:	88 23       	and	r24, r24
    4050:	09 f4       	brne	.+2      	; 0x4054 <fat_append_clusters+0x11e>
    4052:	90 cf       	rjmp	.-224    	; 0x3f74 <fat_append_clusters+0x3e>
            if(fat_entry16 != HTOL16(FAT16_CLUSTER_FREE))
    4054:	89 81       	ldd	r24, Y+1	; 0x01
    4056:	9a 81       	ldd	r25, Y+2	; 0x02
    4058:	89 2b       	or	r24, r25
    405a:	09 f0       	breq	.+2      	; 0x405e <fat_append_clusters+0x128>
    405c:	48 c0       	rjmp	.+144    	; 0x40ee <fat_append_clusters+0x1b8>
            if(count_left == 0)
    405e:	a1 14       	cp	r10, r1
    4060:	b1 04       	cpc	r11, r1
    4062:	31 f5       	brne	.+76     	; 0x40b0 <fat_append_clusters+0x17a>
                fs->cluster_free = cluster_current;
    4064:	d6 01       	movw	r26, r12
    4066:	5b 96       	adiw	r26, 0x1b	; 27
    4068:	1c 93       	st	X, r17
    406a:	0e 93       	st	-X, r16
    406c:	5a 97       	sbiw	r26, 0x1a	; 26
        if(cluster_num >= 2)
    406e:	32 e0       	ldi	r19, 0x02	; 2
    4070:	23 16       	cp	r2, r19
    4072:	31 04       	cpc	r3, r1
    4074:	08 f4       	brcc	.+2      	; 0x4078 <fat_append_clusters+0x142>
    4076:	80 cf       	rjmp	.-256    	; 0x3f78 <fat_append_clusters+0x42>
                fat_entry16 = htol16((uint16_t) cluster_next);
    4078:	fa 82       	std	Y+2, r15	; 0x02
    407a:	e9 82       	std	Y+1, r14	; 0x01
                if(!device_write(fat_offset + (offset_t) cluster_num * sizeof(fat_entry16), (uint8_t*) &fat_entry16, sizeof(fat_entry16)))
    407c:	b1 01       	movw	r22, r2
    407e:	90 e0       	ldi	r25, 0x00	; 0
    4080:	80 e0       	ldi	r24, 0x00	; 0
    4082:	66 0f       	add	r22, r22
    4084:	77 1f       	adc	r23, r23
    4086:	88 1f       	adc	r24, r24
    4088:	99 1f       	adc	r25, r25
    408a:	2d 81       	ldd	r18, Y+5	; 0x05
    408c:	3e 81       	ldd	r19, Y+6	; 0x06
    408e:	4f 81       	ldd	r20, Y+7	; 0x07
    4090:	58 85       	ldd	r21, Y+8	; 0x08
    4092:	62 0f       	add	r22, r18
    4094:	73 1f       	adc	r23, r19
    4096:	84 1f       	adc	r24, r20
    4098:	95 1f       	adc	r25, r21
    409a:	22 e0       	ldi	r18, 0x02	; 2
    409c:	30 e0       	ldi	r19, 0x00	; 0
    409e:	ae 01       	movw	r20, r28
    40a0:	4f 5f       	subi	r20, 0xFF	; 255
    40a2:	5f 4f       	sbci	r21, 0xFF	; 255
    40a4:	eb 81       	ldd	r30, Y+3	; 0x03
    40a6:	fc 81       	ldd	r31, Y+4	; 0x04
    40a8:	09 95       	icall
    40aa:	88 23       	and	r24, r24
    40ac:	a1 f0       	breq	.+40     	; 0x40d6 <fat_append_clusters+0x1a0>
    40ae:	64 cf       	rjmp	.-312    	; 0x3f78 <fat_append_clusters+0x42>
            if(cluster_next == 0)
    40b0:	e1 14       	cp	r14, r1
    40b2:	f1 04       	cpc	r15, r1
    40b4:	a9 f4       	brne	.+42     	; 0x40e0 <fat_append_clusters+0x1aa>
                fat_entry16 = HTOL16(FAT16_CLUSTER_LAST_MAX);
    40b6:	ef ef       	ldi	r30, 0xFF	; 255
    40b8:	ff ef       	ldi	r31, 0xFF	; 255
    40ba:	fa 83       	std	Y+2, r31	; 0x02
    40bc:	e9 83       	std	Y+1, r30	; 0x01
            if(!device_write(fat_offset + (offset_t) cluster_current * sizeof(fat_entry16), (uint8_t*) &fat_entry16, sizeof(fat_entry16)))
    40be:	22 e0       	ldi	r18, 0x02	; 2
    40c0:	30 e0       	ldi	r19, 0x00	; 0
    40c2:	ae 01       	movw	r20, r28
    40c4:	4f 5f       	subi	r20, 0xFF	; 255
    40c6:	5f 4f       	sbci	r21, 0xFF	; 255
    40c8:	c3 01       	movw	r24, r6
    40ca:	b2 01       	movw	r22, r4
    40cc:	eb 81       	ldd	r30, Y+3	; 0x03
    40ce:	fc 81       	ldd	r31, Y+4	; 0x04
    40d0:	09 95       	icall
    40d2:	81 11       	cpse	r24, r1
    40d4:	08 c0       	rjmp	.+16     	; 0x40e6 <fat_append_clusters+0x1b0>
    fat_free_clusters(fs, cluster_next);
    40d6:	b7 01       	movw	r22, r14
    40d8:	c6 01       	movw	r24, r12
    40da:	0e 94 29 1f 	call	0x3e52	; 0x3e52 <fat_free_clusters>
    40de:	4a cf       	rjmp	.-364    	; 0x3f74 <fat_append_clusters+0x3e>
                fat_entry16 = htol16((uint16_t) cluster_next);
    40e0:	fa 82       	std	Y+2, r15	; 0x02
    40e2:	e9 82       	std	Y+1, r14	; 0x01
    40e4:	ec cf       	rjmp	.-40     	; 0x40be <fat_append_clusters+0x188>
        --count_left;
    40e6:	f1 e0       	ldi	r31, 0x01	; 1
    40e8:	af 1a       	sub	r10, r31
    40ea:	b1 08       	sbc	r11, r1
    40ec:	78 01       	movw	r14, r16
    for(cluster_t cluster_left = cluster_count; cluster_left > 0; --cluster_left, ++cluster_current)
    40ee:	21 e0       	ldi	r18, 0x01	; 1
    40f0:	82 1a       	sub	r8, r18
    40f2:	91 08       	sbc	r9, r1
    40f4:	0f 5f       	subi	r16, 0xFF	; 255
    40f6:	1f 4f       	sbci	r17, 0xFF	; 255
    40f8:	81 cf       	rjmp	.-254    	; 0x3ffc <fat_append_clusters+0xc6>

000040fa <fat_cluster_offset>:
{
    40fa:	0f 93       	push	r16
    40fc:	1f 93       	push	r17
    40fe:	fc 01       	movw	r30, r24
    if(!fs || cluster_num < 2)
    4100:	89 2b       	or	r24, r25
    4102:	a9 f0       	breq	.+42     	; 0x412e <fat_cluster_offset+0x34>
    4104:	62 30       	cpi	r22, 0x02	; 2
    4106:	71 05       	cpc	r23, r1
    4108:	90 f0       	brcs	.+36     	; 0x412e <fat_cluster_offset+0x34>
    return fs->header.cluster_zero_offset + (offset_t) (cluster_num - 2) * fs->header.cluster_size;
    410a:	9b 01       	movw	r18, r22
    410c:	22 50       	subi	r18, 0x02	; 2
    410e:	31 09       	sbc	r19, r1
    4110:	a0 89       	ldd	r26, Z+16	; 0x10
    4112:	b1 89       	ldd	r27, Z+17	; 0x11
    4114:	0e 94 84 2f 	call	0x5f08	; 0x5f08 <__umulhisi3>
    4118:	02 89       	ldd	r16, Z+18	; 0x12
    411a:	13 89       	ldd	r17, Z+19	; 0x13
    411c:	24 89       	ldd	r18, Z+20	; 0x14
    411e:	35 89       	ldd	r19, Z+21	; 0x15
    4120:	60 0f       	add	r22, r16
    4122:	71 1f       	adc	r23, r17
    4124:	82 1f       	adc	r24, r18
    4126:	93 1f       	adc	r25, r19
}
    4128:	1f 91       	pop	r17
    412a:	0f 91       	pop	r16
    412c:	08 95       	ret
        return 0;
    412e:	60 e0       	ldi	r22, 0x00	; 0
    4130:	70 e0       	ldi	r23, 0x00	; 0
    4132:	cb 01       	movw	r24, r22
    4134:	f9 cf       	rjmp	.-14     	; 0x4128 <fat_cluster_offset+0x2e>

00004136 <fat_clear_cluster>:
{
    4136:	ef 92       	push	r14
    4138:	ff 92       	push	r15
    413a:	0f 93       	push	r16
    413c:	1f 93       	push	r17
    413e:	cf 93       	push	r28
    4140:	df 93       	push	r29
    4142:	cd b7       	in	r28, 0x3d	; 61
    4144:	de b7       	in	r29, 0x3e	; 62
    4146:	60 97       	sbiw	r28, 0x10	; 16
    4148:	0f b6       	in	r0, 0x3f	; 63
    414a:	f8 94       	cli
    414c:	de bf       	out	0x3e, r29	; 62
    414e:	0f be       	out	0x3f, r0	; 63
    4150:	cd bf       	out	0x3d, r28	; 61
    4152:	8c 01       	movw	r16, r24
        return 0;
    4154:	80 e0       	ldi	r24, 0x00	; 0
    if(cluster_num < 2)
    4156:	62 30       	cpi	r22, 0x02	; 2
    4158:	71 05       	cpc	r23, r1
    415a:	c8 f0       	brcs	.+50     	; 0x418e <fat_clear_cluster+0x58>
    offset_t cluster_offset = fat_cluster_offset(fs, cluster_num);
    415c:	c8 01       	movw	r24, r16
    415e:	0e 94 7d 20 	call	0x40fa	; 0x40fa <fat_cluster_offset>
    memset(zero, 0, sizeof(zero));
    4162:	ae 01       	movw	r20, r28
    4164:	4f 5f       	subi	r20, 0xFF	; 255
    4166:	5f 4f       	sbci	r21, 0xFF	; 255
    4168:	20 e1       	ldi	r18, 0x10	; 16
    416a:	da 01       	movw	r26, r20
    416c:	1d 92       	st	X+, r1
    416e:	2a 95       	dec	r18
    4170:	e9 f7       	brne	.-6      	; 0x416c <fat_clear_cluster+0x36>
    return fs->partition->device_write_interval(cluster_offset,
    4172:	f8 01       	movw	r30, r16
    4174:	20 89       	ldd	r18, Z+16	; 0x10
    4176:	31 89       	ldd	r19, Z+17	; 0x11
    4178:	01 90       	ld	r0, Z+
    417a:	f0 81       	ld	r31, Z
    417c:	e0 2d       	mov	r30, r0
    417e:	06 80       	ldd	r0, Z+6	; 0x06
    4180:	f7 81       	ldd	r31, Z+7	; 0x07
    4182:	e0 2d       	mov	r30, r0
    4184:	f1 2c       	mov	r15, r1
    4186:	e1 2c       	mov	r14, r1
    4188:	0c ea       	ldi	r16, 0xAC	; 172
    418a:	1d e1       	ldi	r17, 0x1D	; 29
    418c:	09 95       	icall
}
    418e:	60 96       	adiw	r28, 0x10	; 16
    4190:	0f b6       	in	r0, 0x3f	; 63
    4192:	f8 94       	cli
    4194:	de bf       	out	0x3e, r29	; 62
    4196:	0f be       	out	0x3f, r0	; 63
    4198:	cd bf       	out	0x3d, r28	; 61
    419a:	df 91       	pop	r29
    419c:	cf 91       	pop	r28
    419e:	1f 91       	pop	r17
    41a0:	0f 91       	pop	r16
    41a2:	ff 90       	pop	r15
    41a4:	ef 90       	pop	r14
    41a6:	08 95       	ret

000041a8 <fat_find_offset_for_dir_entry.isra.4.part.5>:
offset_t fat_find_offset_for_dir_entry(struct fat_fs_struct* fs, const struct fat_dir_struct* parent, const struct fat_dir_entry_struct* dir_entry)
    41a8:	4f 92       	push	r4
    41aa:	5f 92       	push	r5
    41ac:	6f 92       	push	r6
    41ae:	7f 92       	push	r7
    41b0:	8f 92       	push	r8
    41b2:	9f 92       	push	r9
    41b4:	af 92       	push	r10
    41b6:	bf 92       	push	r11
    41b8:	cf 92       	push	r12
    41ba:	df 92       	push	r13
    41bc:	ef 92       	push	r14
    41be:	ff 92       	push	r15
    41c0:	0f 93       	push	r16
    41c2:	1f 93       	push	r17
    41c4:	cf 93       	push	r28
    41c6:	df 93       	push	r29
    41c8:	00 d0       	rcall	.+0      	; 0x41ca <fat_find_offset_for_dir_entry.isra.4.part.5+0x22>
    41ca:	00 d0       	rcall	.+0      	; 0x41cc <fat_find_offset_for_dir_entry.isra.4.part.5+0x24>
    41cc:	0f 92       	push	r0
    41ce:	cd b7       	in	r28, 0x3d	; 61
    41d0:	de b7       	in	r29, 0x3e	; 62
    41d2:	8c 01       	movw	r16, r24
    41d4:	9b 01       	movw	r18, r22
    uint8_t free_dir_entries_needed = (strlen(dir_entry->long_name) + 12) / 13 + 1;
    41d6:	fa 01       	movw	r30, r20
    41d8:	01 90       	ld	r0, Z+
    41da:	00 20       	and	r0, r0
    41dc:	e9 f7       	brne	.-6      	; 0x41d8 <fat_find_offset_for_dir_entry.isra.4.part.5+0x30>
    41de:	cf 01       	movw	r24, r30
    41e0:	84 1b       	sub	r24, r20
    41e2:	95 0b       	sbc	r25, r21
    41e4:	0b 96       	adiw	r24, 0x0b	; 11
    41e6:	6d e0       	ldi	r22, 0x0D	; 13
    41e8:	70 e0       	ldi	r23, 0x00	; 0
    41ea:	0e 94 34 2f 	call	0x5e68	; 0x5e68 <__udivmodhi4>
    41ee:	88 24       	eor	r8, r8
    41f0:	83 94       	inc	r8
    41f2:	86 0e       	add	r8, r22
    cluster_t cluster_num = parent->dir_entry.cluster;
    41f4:	d9 01       	movw	r26, r18
    41f6:	ad 90       	ld	r10, X+
    41f8:	bc 90       	ld	r11, X
    if(cluster_num == 0)
    41fa:	a1 14       	cp	r10, r1
    41fc:	b1 04       	cpc	r11, r1
    41fe:	09 f0       	breq	.+2      	; 0x4202 <fat_find_offset_for_dir_entry.isra.4.part.5+0x5a>
    4200:	5f c0       	rjmp	.+190    	; 0x42c0 <fat_find_offset_for_dir_entry.isra.4.part.5+0x118>
            offset = fs->header.root_dir_offset;
    4202:	f8 01       	movw	r30, r16
    4204:	c6 88       	ldd	r12, Z+22	; 0x16
    4206:	d7 88       	ldd	r13, Z+23	; 0x17
    4208:	e0 8c       	ldd	r14, Z+24	; 0x18
    420a:	f1 8c       	ldd	r15, Z+25	; 0x19
            offset_to = fs->header.cluster_zero_offset;
    420c:	22 89       	ldd	r18, Z+18	; 0x12
    420e:	33 89       	ldd	r19, Z+19	; 0x13
    4210:	44 89       	ldd	r20, Z+20	; 0x14
    4212:	55 89       	ldd	r21, Z+21	; 0x15
    4214:	2a 83       	std	Y+2, r18	; 0x02
    4216:	3b 83       	std	Y+3, r19	; 0x03
    4218:	4c 83       	std	Y+4, r20	; 0x04
    421a:	5d 83       	std	Y+5, r21	; 0x05
    offset_t dir_entry_offset = 0;
    421c:	26 01       	movw	r4, r12
    421e:	37 01       	movw	r6, r14
    4220:	91 2c       	mov	r9, r1
        if(offset == offset_to)
    4222:	2a 81       	ldd	r18, Y+2	; 0x02
    4224:	3b 81       	ldd	r19, Y+3	; 0x03
    4226:	4c 81       	ldd	r20, Y+4	; 0x04
    4228:	5d 81       	ldd	r21, Y+5	; 0x05
    422a:	42 16       	cp	r4, r18
    422c:	53 06       	cpc	r5, r19
    422e:	64 06       	cpc	r6, r20
    4230:	75 06       	cpc	r7, r21
    4232:	09 f0       	breq	.+2      	; 0x4236 <fat_find_offset_for_dir_entry.isra.4.part.5+0x8e>
    4234:	65 c0       	rjmp	.+202    	; 0x4300 <fat_find_offset_for_dir_entry.isra.4.part.5+0x158>
            if(cluster_num == 0)
    4236:	a1 14       	cp	r10, r1
    4238:	b1 04       	cpc	r11, r1
    423a:	09 f4       	brne	.+2      	; 0x423e <fat_find_offset_for_dir_entry.isra.4.part.5+0x96>
    423c:	88 c0       	rjmp	.+272    	; 0x434e <fat_find_offset_for_dir_entry.isra.4.part.5+0x1a6>
            if(offset)
    423e:	45 28       	or	r4, r5
    4240:	46 28       	or	r4, r6
    4242:	47 28       	or	r4, r7
    4244:	09 f4       	brne	.+2      	; 0x4248 <fat_find_offset_for_dir_entry.isra.4.part.5+0xa0>
    4246:	45 c0       	rjmp	.+138    	; 0x42d2 <fat_find_offset_for_dir_entry.isra.4.part.5+0x12a>
                cluster_t cluster_next = fat_get_next_cluster(fs, cluster_num);
    4248:	b5 01       	movw	r22, r10
    424a:	c8 01       	movw	r24, r16
    424c:	0e 94 ef 1e 	call	0x3dde	; 0x3dde <fat_get_next_cluster>
                if(!cluster_next)
    4250:	00 97       	sbiw	r24, 0x00	; 0
    4252:	f1 f5       	brne	.+124    	; 0x42d0 <fat_find_offset_for_dir_entry.isra.4.part.5+0x128>
                    cluster_next = fat_append_clusters(fs, cluster_num, 1);
    4254:	41 e0       	ldi	r20, 0x01	; 1
    4256:	50 e0       	ldi	r21, 0x00	; 0
    4258:	b5 01       	movw	r22, r10
    425a:	c8 01       	movw	r24, r16
    425c:	0e 94 9b 1f 	call	0x3f36	; 0x3f36 <fat_append_clusters>
    4260:	ac 01       	movw	r20, r24
                    if(!cluster_next)
    4262:	00 97       	sbiw	r24, 0x00	; 0
    4264:	09 f4       	brne	.+2      	; 0x4268 <fat_find_offset_for_dir_entry.isra.4.part.5+0xc0>
    4266:	73 c0       	rjmp	.+230    	; 0x434e <fat_find_offset_for_dir_entry.isra.4.part.5+0x1a6>
                                       (offset_t) (cluster_next - 2) * fs->header.cluster_size;
    4268:	9c 01       	movw	r18, r24
    426a:	22 50       	subi	r18, 0x02	; 2
    426c:	31 09       	sbc	r19, r1
    426e:	f8 01       	movw	r30, r16
    4270:	a0 89       	ldd	r26, Z+16	; 0x10
    4272:	b1 89       	ldd	r27, Z+17	; 0x11
    4274:	0e 94 84 2f 	call	0x5f08	; 0x5f08 <__umulhisi3>
                    dir_entry_offset = fs->header.cluster_zero_offset +
    4278:	c2 88       	ldd	r12, Z+18	; 0x12
    427a:	d3 88       	ldd	r13, Z+19	; 0x13
    427c:	e4 88       	ldd	r14, Z+20	; 0x14
    427e:	f5 88       	ldd	r15, Z+21	; 0x15
    4280:	c6 0e       	add	r12, r22
    4282:	d7 1e       	adc	r13, r23
    4284:	e8 1e       	adc	r14, r24
    4286:	f9 1e       	adc	r15, r25
                    fat_clear_cluster(fs, cluster_next);
    4288:	ba 01       	movw	r22, r20
    428a:	c8 01       	movw	r24, r16
    428c:	0e 94 9b 20 	call	0x4136	; 0x4136 <fat_clear_cluster>
}
    4290:	c7 01       	movw	r24, r14
    4292:	b6 01       	movw	r22, r12
    4294:	0f 90       	pop	r0
    4296:	0f 90       	pop	r0
    4298:	0f 90       	pop	r0
    429a:	0f 90       	pop	r0
    429c:	0f 90       	pop	r0
    429e:	df 91       	pop	r29
    42a0:	cf 91       	pop	r28
    42a2:	1f 91       	pop	r17
    42a4:	0f 91       	pop	r16
    42a6:	ff 90       	pop	r15
    42a8:	ef 90       	pop	r14
    42aa:	df 90       	pop	r13
    42ac:	cf 90       	pop	r12
    42ae:	bf 90       	pop	r11
    42b0:	af 90       	pop	r10
    42b2:	9f 90       	pop	r9
    42b4:	8f 90       	pop	r8
    42b6:	7f 90       	pop	r7
    42b8:	6f 90       	pop	r6
    42ba:	5f 90       	pop	r5
    42bc:	4f 90       	pop	r4
    42be:	08 95       	ret
    offset_t offset_to = 0;
    42c0:	1a 82       	std	Y+2, r1	; 0x02
    42c2:	1b 82       	std	Y+3, r1	; 0x03
    42c4:	1c 82       	std	Y+4, r1	; 0x04
    42c6:	1d 82       	std	Y+5, r1	; 0x05
    offset_t dir_entry_offset = 0;
    42c8:	c1 2c       	mov	r12, r1
    42ca:	d1 2c       	mov	r13, r1
    42cc:	76 01       	movw	r14, r12
    42ce:	a6 cf       	rjmp	.-180    	; 0x421c <fat_find_offset_for_dir_entry.isra.4.part.5+0x74>
                if(!cluster_next)
    42d0:	5c 01       	movw	r10, r24
            offset = fat_cluster_offset(fs, cluster_num);
    42d2:	b5 01       	movw	r22, r10
    42d4:	c8 01       	movw	r24, r16
    42d6:	0e 94 7d 20 	call	0x40fa	; 0x40fa <fat_cluster_offset>
    42da:	2b 01       	movw	r4, r22
    42dc:	3c 01       	movw	r6, r24
            offset_to = offset + fs->header.cluster_size;
    42de:	d8 01       	movw	r26, r16
    42e0:	50 96       	adiw	r26, 0x10	; 16
    42e2:	8d 91       	ld	r24, X+
    42e4:	9c 91       	ld	r25, X
    42e6:	a3 01       	movw	r20, r6
    42e8:	92 01       	movw	r18, r4
    42ea:	28 0f       	add	r18, r24
    42ec:	39 1f       	adc	r19, r25
    42ee:	41 1d       	adc	r20, r1
    42f0:	51 1d       	adc	r21, r1
    42f2:	2a 83       	std	Y+2, r18	; 0x02
    42f4:	3b 83       	std	Y+3, r19	; 0x03
    42f6:	4c 83       	std	Y+4, r20	; 0x04
    42f8:	5d 83       	std	Y+5, r21	; 0x05
            dir_entry_offset = offset;
    42fa:	73 01       	movw	r14, r6
    42fc:	62 01       	movw	r12, r4
            free_dir_entries_found = 0;
    42fe:	91 2c       	mov	r9, r1
        if(!fs->partition->device_read(offset, &first_char, sizeof(first_char)))
    4300:	d8 01       	movw	r26, r16
    4302:	ed 91       	ld	r30, X+
    4304:	fc 91       	ld	r31, X
    4306:	01 90       	ld	r0, Z+
    4308:	f0 81       	ld	r31, Z
    430a:	e0 2d       	mov	r30, r0
    430c:	21 e0       	ldi	r18, 0x01	; 1
    430e:	30 e0       	ldi	r19, 0x00	; 0
    4310:	ae 01       	movw	r20, r28
    4312:	4f 5f       	subi	r20, 0xFF	; 255
    4314:	5f 4f       	sbci	r21, 0xFF	; 255
    4316:	c3 01       	movw	r24, r6
    4318:	b2 01       	movw	r22, r4
    431a:	09 95       	icall
    431c:	88 23       	and	r24, r24
    431e:	b9 f0       	breq	.+46     	; 0x434e <fat_find_offset_for_dir_entry.isra.4.part.5+0x1a6>
        if(first_char == FAT_DIRENTRY_DELETED || !first_char)
    4320:	89 81       	ldd	r24, Y+1	; 0x01
    4322:	85 3e       	cpi	r24, 0xE5	; 229
    4324:	11 f0       	breq	.+4      	; 0x432a <fat_find_offset_for_dir_entry.isra.4.part.5+0x182>
    4326:	81 11       	cpse	r24, r1
    4328:	0a c0       	rjmp	.+20     	; 0x433e <fat_find_offset_for_dir_entry.isra.4.part.5+0x196>
            ++free_dir_entries_found;
    432a:	93 94       	inc	r9
            if(free_dir_entries_found >= free_dir_entries_needed)
    432c:	98 14       	cp	r9, r8
    432e:	08 f0       	brcs	.+2      	; 0x4332 <fat_find_offset_for_dir_entry.isra.4.part.5+0x18a>
    4330:	af cf       	rjmp	.-162    	; 0x4290 <fat_find_offset_for_dir_entry.isra.4.part.5+0xe8>
            offset += 32;
    4332:	b0 e2       	ldi	r27, 0x20	; 32
    4334:	4b 0e       	add	r4, r27
    4336:	51 1c       	adc	r5, r1
    4338:	61 1c       	adc	r6, r1
    433a:	71 1c       	adc	r7, r1
    433c:	72 cf       	rjmp	.-284    	; 0x4222 <fat_find_offset_for_dir_entry.isra.4.part.5+0x7a>
            offset += 32;
    433e:	73 01       	movw	r14, r6
    4340:	62 01       	movw	r12, r4
    4342:	e0 e2       	ldi	r30, 0x20	; 32
    4344:	ce 0e       	add	r12, r30
    4346:	d1 1c       	adc	r13, r1
    4348:	e1 1c       	adc	r14, r1
    434a:	f1 1c       	adc	r15, r1
            free_dir_entries_found = 0;
    434c:	67 cf       	rjmp	.-306    	; 0x421c <fat_find_offset_for_dir_entry.isra.4.part.5+0x74>
                return 0;
    434e:	c1 2c       	mov	r12, r1
    4350:	d1 2c       	mov	r13, r1
    4352:	76 01       	movw	r14, r12
    4354:	9d cf       	rjmp	.-198    	; 0x4290 <fat_find_offset_for_dir_entry.isra.4.part.5+0xe8>

00004356 <fat_write_dir_entry>:
{
    4356:	3f 92       	push	r3
    4358:	4f 92       	push	r4
    435a:	5f 92       	push	r5
    435c:	6f 92       	push	r6
    435e:	7f 92       	push	r7
    4360:	8f 92       	push	r8
    4362:	9f 92       	push	r9
    4364:	af 92       	push	r10
    4366:	bf 92       	push	r11
    4368:	cf 92       	push	r12
    436a:	df 92       	push	r13
    436c:	ef 92       	push	r14
    436e:	ff 92       	push	r15
    4370:	0f 93       	push	r16
    4372:	1f 93       	push	r17
    4374:	cf 93       	push	r28
    4376:	df 93       	push	r29
    4378:	cd b7       	in	r28, 0x3d	; 61
    437a:	de b7       	in	r29, 0x3e	; 62
    437c:	a0 97       	sbiw	r28, 0x20	; 32
    437e:	0f b6       	in	r0, 0x3f	; 63
    4380:	f8 94       	cli
    4382:	de bf       	out	0x3e, r29	; 62
    4384:	0f be       	out	0x3f, r0	; 63
    4386:	cd bf       	out	0x3d, r28	; 61
    4388:	8b 01       	movw	r16, r22
    if(!fs || !dir_entry)
    438a:	00 97       	sbiw	r24, 0x00	; 0
    438c:	09 f4       	brne	.+2      	; 0x4390 <fat_write_dir_entry+0x3a>
    438e:	2b c1       	rjmp	.+598    	; 0x45e6 <fat_write_dir_entry+0x290>
    4390:	61 15       	cp	r22, r1
    4392:	71 05       	cpc	r23, r1
    4394:	09 f4       	brne	.+2      	; 0x4398 <fat_write_dir_entry+0x42>
    4396:	27 c1       	rjmp	.+590    	; 0x45e6 <fat_write_dir_entry+0x290>
    device_write_t device_write = fs->partition->device_write;
    4398:	dc 01       	movw	r26, r24
    439a:	ed 91       	ld	r30, X+
    439c:	fc 91       	ld	r31, X
    439e:	a4 80       	ldd	r10, Z+4	; 0x04
    43a0:	b5 80       	ldd	r11, Z+5	; 0x05
    offset_t offset = dir_entry->entry_offset;
    43a2:	fb 01       	movw	r30, r22
    43a4:	47 a0       	ldd	r4, Z+39	; 0x27
    43a6:	50 a4       	ldd	r5, Z+40	; 0x28
    43a8:	61 a4       	ldd	r6, Z+41	; 0x29
    43aa:	72 a4       	ldd	r7, Z+42	; 0x2a
    uint8_t name_len = strlen(name);
    43ac:	01 90       	ld	r0, Z+
    43ae:	00 20       	and	r0, r0
    43b0:	e9 f7       	brne	.-6      	; 0x43ac <fat_write_dir_entry+0x56>
    43b2:	31 97       	sbiw	r30, 0x01	; 1
    43b4:	6f 01       	movw	r12, r30
    43b6:	c6 1a       	sub	r12, r22
    43b8:	d7 0a       	sbc	r13, r23
    43ba:	ec 2c       	mov	r14, r12
    uint8_t lfn_entry_count = (name_len + 12) / 13;
    43bc:	c6 01       	movw	r24, r12
    43be:	0c 96       	adiw	r24, 0x0c	; 12
    43c0:	6d e0       	ldi	r22, 0x0D	; 13
    43c2:	70 e0       	ldi	r23, 0x00	; 0
    43c4:	0e 94 48 2f 	call	0x5e90	; 0x5e90 <__divmodhi4>
    43c8:	f6 2e       	mov	r15, r22
    memset(&buffer[0], ' ', 11);
    43ca:	4b e0       	ldi	r20, 0x0B	; 11
    43cc:	50 e0       	ldi	r21, 0x00	; 0
    43ce:	60 e2       	ldi	r22, 0x20	; 32
    43d0:	70 e0       	ldi	r23, 0x00	; 0
    43d2:	ce 01       	movw	r24, r28
    43d4:	01 96       	adiw	r24, 0x01	; 1
    43d6:	0e 94 14 30 	call	0x6028	; 0x6028 <memset>
    char* name_ext = strrchr(name, '.');
    43da:	6e e2       	ldi	r22, 0x2E	; 46
    43dc:	70 e0       	ldi	r23, 0x00	; 0
    43de:	c8 01       	movw	r24, r16
    43e0:	0e 94 4c 30 	call	0x6098	; 0x6098 <strrchr>
    if(name_ext && *++name_ext)
    43e4:	00 97       	sbiw	r24, 0x00	; 0
    43e6:	d9 f0       	breq	.+54     	; 0x441e <fat_write_dir_entry+0xc8>
    43e8:	dc 01       	movw	r26, r24
    43ea:	11 96       	adiw	r26, 0x01	; 1
    43ec:	2c 91       	ld	r18, X
    43ee:	22 23       	and	r18, r18
    43f0:	b1 f0       	breq	.+44     	; 0x441e <fat_write_dir_entry+0xc8>
    43f2:	bc 01       	movw	r22, r24
    43f4:	6f 5f       	subi	r22, 0xFF	; 255
    43f6:	7f 4f       	sbci	r23, 0xFF	; 255
        uint8_t name_ext_len = strlen(name_ext);
    43f8:	fb 01       	movw	r30, r22
    43fa:	01 90       	ld	r0, Z+
    43fc:	00 20       	and	r0, r0
    43fe:	e9 f7       	brne	.-6      	; 0x43fa <fat_write_dir_entry+0xa4>
    4400:	31 97       	sbiw	r30, 0x01	; 1
    4402:	e6 1b       	sub	r30, r22
    4404:	f7 0b       	sbc	r31, r23
        name_len -= name_ext_len + 1;
    4406:	ca 94       	dec	r12
    4408:	ec 2c       	mov	r14, r12
    440a:	ee 1a       	sub	r14, r30
        memcpy(&buffer[8], name_ext, name_ext_len);
    440c:	e4 30       	cpi	r30, 0x04	; 4
    440e:	08 f0       	brcs	.+2      	; 0x4412 <fat_write_dir_entry+0xbc>
    4410:	e3 e0       	ldi	r30, 0x03	; 3
    4412:	4e 2f       	mov	r20, r30
    4414:	50 e0       	ldi	r21, 0x00	; 0
    4416:	ce 01       	movw	r24, r28
    4418:	09 96       	adiw	r24, 0x09	; 9
    441a:	0e 94 0b 30 	call	0x6016	; 0x6016 <memcpy>
    if(name_len <= 8)
    441e:	f8 01       	movw	r30, r16
    4420:	d1 a0       	ldd	r13, Z+33	; 0x21
    4422:	92 a0       	ldd	r9, Z+34	; 0x22
    4424:	f8 e0       	ldi	r31, 0x08	; 8
    4426:	fe 15       	cp	r31, r14
    4428:	08 f4       	brcc	.+2      	; 0x442c <fat_write_dir_entry+0xd6>
    442a:	75 c0       	rjmp	.+234    	; 0x4516 <fat_write_dir_entry+0x1c0>
        memcpy(buffer, name, name_len);
    442c:	4e 2d       	mov	r20, r14
    442e:	50 e0       	ldi	r21, 0x00	; 0
    4430:	b8 01       	movw	r22, r16
    4432:	ce 01       	movw	r24, r28
    4434:	01 96       	adiw	r24, 0x01	; 1
    4436:	0e 94 0b 30 	call	0x6016	; 0x6016 <memcpy>
        if(name[0] == '.' &&
    443a:	d8 01       	movw	r26, r16
    443c:	8c 91       	ld	r24, X
    443e:	8e 32       	cpi	r24, 0x2E	; 46
    4440:	51 f4       	brne	.+20     	; 0x4456 <fat_write_dir_entry+0x100>
           ((name[1] == '.' && name[2] == '\0') ||
    4442:	11 96       	adiw	r26, 0x01	; 1
    4444:	8c 91       	ld	r24, X
    4446:	11 97       	sbiw	r26, 0x01	; 1
        if(name[0] == '.' &&
    4448:	8e 32       	cpi	r24, 0x2E	; 46
    444a:	11 f4       	brne	.+4      	; 0x4450 <fat_write_dir_entry+0xfa>
           ((name[1] == '.' && name[2] == '\0') ||
    444c:	12 96       	adiw	r26, 0x02	; 2
    444e:	8c 91       	ld	r24, X
    4450:	81 11       	cpse	r24, r1
    4452:	01 c0       	rjmp	.+2      	; 0x4456 <fat_write_dir_entry+0x100>
            lfn_entry_count = 0;
    4454:	f1 2c       	mov	r15, r1
    if(buffer[0] == FAT_DIRENTRY_DELETED)
    4456:	89 81       	ldd	r24, Y+1	; 0x01
    4458:	85 3e       	cpi	r24, 0xE5	; 229
    445a:	11 f4       	brne	.+4      	; 0x4460 <fat_write_dir_entry+0x10a>
        buffer[0] = 0x05;
    445c:	85 e0       	ldi	r24, 0x05	; 5
    445e:	89 83       	std	Y+1, r24	; 0x01
    memset(&buffer[11], 0, sizeof(buffer) - 11);
    4460:	fe 01       	movw	r30, r28
    4462:	3c 96       	adiw	r30, 0x0c	; 12
    4464:	85 e1       	ldi	r24, 0x15	; 21
    4466:	df 01       	movw	r26, r30
    4468:	1d 92       	st	X+, r1
    446a:	8a 95       	dec	r24
    446c:	e9 f7       	brne	.-6      	; 0x4468 <fat_write_dir_entry+0x112>
    buffer[0x0b] = dir_entry->attributes;
    446e:	f8 01       	movw	r30, r16
    4470:	80 a1       	ldd	r24, Z+32	; 0x20
    4472:	8c 87       	std	Y+12, r24	; 0x0c
    write16(&buffer[0x1a], dir_entry->cluster);
    4474:	6d 2d       	mov	r22, r13
    4476:	79 2d       	mov	r23, r9
    4478:	ce 01       	movw	r24, r28
    447a:	4b 96       	adiw	r24, 0x1b	; 27
    447c:	0e 94 ad 2c 	call	0x595a	; 0x595a <write16>
    write32(&buffer[0x1c], dir_entry->file_size);
    4480:	d8 01       	movw	r26, r16
    4482:	93 96       	adiw	r26, 0x23	; 35
    4484:	4d 91       	ld	r20, X+
    4486:	5d 91       	ld	r21, X+
    4488:	6d 91       	ld	r22, X+
    448a:	7c 91       	ld	r23, X
    448c:	96 97       	sbiw	r26, 0x26	; 38
    448e:	ce 01       	movw	r24, r28
    4490:	4d 96       	adiw	r24, 0x1d	; 29
    4492:	0e 94 b1 2c 	call	0x5962	; 0x5962 <write32>
    if(!device_write(offset + (uint16_t) lfn_entry_count * 32, buffer, sizeof(buffer)))
    4496:	b0 e2       	ldi	r27, 0x20	; 32
    4498:	fb 9e       	mul	r15, r27
    449a:	c0 01       	movw	r24, r0
    449c:	11 24       	eor	r1, r1
    449e:	a3 01       	movw	r20, r6
    44a0:	92 01       	movw	r18, r4
    44a2:	28 0f       	add	r18, r24
    44a4:	39 1f       	adc	r19, r25
    44a6:	41 1d       	adc	r20, r1
    44a8:	51 1d       	adc	r21, r1
    44aa:	ca 01       	movw	r24, r20
    44ac:	b9 01       	movw	r22, r18
    44ae:	20 e2       	ldi	r18, 0x20	; 32
    44b0:	30 e0       	ldi	r19, 0x00	; 0
    44b2:	ae 01       	movw	r20, r28
    44b4:	4f 5f       	subi	r20, 0xFF	; 255
    44b6:	5f 4f       	sbci	r21, 0xFF	; 255
    44b8:	f5 01       	movw	r30, r10
    44ba:	09 95       	icall
    44bc:	88 23       	and	r24, r24
    44be:	99 f0       	breq	.+38     	; 0x44e6 <fat_write_dir_entry+0x190>
    uint8_t checksum = fat_calc_83_checksum(buffer);
    44c0:	ce 01       	movw	r24, r28
    44c2:	01 96       	adiw	r24, 0x01	; 1
    44c4:	0e 94 af 1d 	call	0x3b5e	; 0x3b5e <fat_calc_83_checksum>
    44c8:	d8 2e       	mov	r13, r24
    for(uint8_t lfn_entry = lfn_entry_count; lfn_entry > 0; --lfn_entry)
    44ca:	fd e0       	ldi	r31, 0x0D	; 13
    44cc:	ff 9e       	mul	r15, r31
    44ce:	00 0d       	add	r16, r0
    44d0:	11 1d       	adc	r17, r1
    44d2:	11 24       	eor	r1, r1
    44d4:	ef 2c       	mov	r14, r15
            buffer[0x00] |= FAT_DIRENTRY_LFNLAST;
    44d6:	cf 2c       	mov	r12, r15
    44d8:	68 94       	set
    44da:	c6 f8       	bld	r12, 6
        buffer[0x0b] = 0x0f;
    44dc:	8f e0       	ldi	r24, 0x0F	; 15
    44de:	98 2e       	mov	r9, r24
    for(uint8_t lfn_entry = lfn_entry_count; lfn_entry > 0; --lfn_entry)
    44e0:	e1 10       	cpse	r14, r1
    44e2:	34 c0       	rjmp	.+104    	; 0x454c <fat_write_dir_entry+0x1f6>
    return 1;
    44e4:	81 e0       	ldi	r24, 0x01	; 1
}
    44e6:	a0 96       	adiw	r28, 0x20	; 32
    44e8:	0f b6       	in	r0, 0x3f	; 63
    44ea:	f8 94       	cli
    44ec:	de bf       	out	0x3e, r29	; 62
    44ee:	0f be       	out	0x3f, r0	; 63
    44f0:	cd bf       	out	0x3d, r28	; 61
    44f2:	df 91       	pop	r29
    44f4:	cf 91       	pop	r28
    44f6:	1f 91       	pop	r17
    44f8:	0f 91       	pop	r16
    44fa:	ff 90       	pop	r15
    44fc:	ef 90       	pop	r14
    44fe:	df 90       	pop	r13
    4500:	cf 90       	pop	r12
    4502:	bf 90       	pop	r11
    4504:	af 90       	pop	r10
    4506:	9f 90       	pop	r9
    4508:	8f 90       	pop	r8
    450a:	7f 90       	pop	r7
    450c:	6f 90       	pop	r6
    450e:	5f 90       	pop	r5
    4510:	4f 90       	pop	r4
    4512:	3f 90       	pop	r3
    4514:	08 95       	ret
        memcpy(buffer, name, 8);
    4516:	86 e0       	ldi	r24, 0x06	; 6
    4518:	f8 01       	movw	r30, r16
    451a:	de 01       	movw	r26, r28
    451c:	11 96       	adiw	r26, 0x01	; 1
    451e:	01 90       	ld	r0, Z+
    4520:	0d 92       	st	X+, r0
    4522:	8a 95       	dec	r24
    4524:	e1 f7       	brne	.-8      	; 0x451e <fat_write_dir_entry+0x1c8>
        buffer[6] = (num < 0xa0) ? ('0' + (num >> 4)) : ('a' + (num >> 4));
    4526:	8d 2d       	mov	r24, r13
    4528:	82 95       	swap	r24
    452a:	8f 70       	andi	r24, 0x0F	; 15
    452c:	bf e9       	ldi	r27, 0x9F	; 159
    452e:	bd 15       	cp	r27, r13
    4530:	48 f0       	brcs	.+18     	; 0x4544 <fat_write_dir_entry+0x1ee>
    4532:	80 5d       	subi	r24, 0xD0	; 208
    4534:	8f 83       	std	Y+7, r24	; 0x07
        num &= 0x0f;
    4536:	8d 2d       	mov	r24, r13
    4538:	8f 70       	andi	r24, 0x0F	; 15
        buffer[7] = (num < 0x0a) ? ('0' + num) : ('a' + num);
    453a:	8a 30       	cpi	r24, 0x0A	; 10
    453c:	28 f4       	brcc	.+10     	; 0x4548 <fat_write_dir_entry+0x1f2>
    453e:	80 5d       	subi	r24, 0xD0	; 208
    4540:	88 87       	std	Y+8, r24	; 0x08
    4542:	89 cf       	rjmp	.-238    	; 0x4456 <fat_write_dir_entry+0x100>
        buffer[6] = (num < 0xa0) ? ('0' + (num >> 4)) : ('a' + (num >> 4));
    4544:	8f 59       	subi	r24, 0x9F	; 159
    4546:	f6 cf       	rjmp	.-20     	; 0x4534 <fat_write_dir_entry+0x1de>
        buffer[7] = (num < 0x0a) ? ('0' + num) : ('a' + num);
    4548:	8f 59       	subi	r24, 0x9F	; 159
    454a:	fa cf       	rjmp	.-12     	; 0x4540 <fat_write_dir_entry+0x1ea>
        memset(buffer, 0xff, sizeof(buffer));
    454c:	40 e2       	ldi	r20, 0x20	; 32
    454e:	50 e0       	ldi	r21, 0x00	; 0
    4550:	6f ef       	ldi	r22, 0xFF	; 255
    4552:	70 e0       	ldi	r23, 0x00	; 0
    4554:	ce 01       	movw	r24, r28
    4556:	01 96       	adiw	r24, 0x01	; 1
    4558:	0e 94 14 30 	call	0x6028	; 0x6028 <memset>
        while(i < 0x1f)
    455c:	0d 50       	subi	r16, 0x0D	; 13
    455e:	11 09       	sbc	r17, r1
        uint8_t i = 1;
    4560:	81 e0       	ldi	r24, 0x01	; 1
    4562:	30 2e       	mov	r3, r16
    4564:	81 2e       	mov	r8, r17
            buffer[i++] = *long_name_curr;
    4566:	e1 e0       	ldi	r30, 0x01	; 1
    4568:	e8 0f       	add	r30, r24
    456a:	d8 01       	movw	r26, r16
    456c:	9d 91       	ld	r25, X+
    456e:	8d 01       	movw	r16, r26
    4570:	a1 e0       	ldi	r26, 0x01	; 1
    4572:	b0 e0       	ldi	r27, 0x00	; 0
    4574:	ac 0f       	add	r26, r28
    4576:	bd 1f       	adc	r27, r29
    4578:	a8 0f       	add	r26, r24
    457a:	b1 1d       	adc	r27, r1
    457c:	9c 93       	st	X, r25
            buffer[i++] = 0;
    457e:	8e 5f       	subi	r24, 0xFE	; 254
    4580:	21 e0       	ldi	r18, 0x01	; 1
    4582:	30 e0       	ldi	r19, 0x00	; 0
    4584:	2c 0f       	add	r18, r28
    4586:	3d 1f       	adc	r19, r29
    4588:	2e 0f       	add	r18, r30
    458a:	31 1d       	adc	r19, r1
    458c:	f9 01       	movw	r30, r18
    458e:	10 82       	st	Z, r1
            switch(i)
    4590:	8b 30       	cpi	r24, 0x0B	; 11
    4592:	19 f1       	breq	.+70     	; 0x45da <fat_write_dir_entry+0x284>
    4594:	8a 31       	cpi	r24, 0x1A	; 26
    4596:	19 f1       	breq	.+70     	; 0x45de <fat_write_dir_entry+0x288>
            if(!*long_name_curr++)
    4598:	f8 01       	movw	r30, r16
    459a:	31 97       	sbiw	r30, 0x01	; 1
    459c:	90 81       	ld	r25, Z
    459e:	99 23       	and	r25, r25
    45a0:	11 f0       	breq	.+4      	; 0x45a6 <fat_write_dir_entry+0x250>
        while(i < 0x1f)
    45a2:	8f 31       	cpi	r24, 0x1F	; 31
    45a4:	00 f3       	brcs	.-64     	; 0x4566 <fat_write_dir_entry+0x210>
        if(lfn_entry == lfn_entry_count)
    45a6:	fe 14       	cp	r15, r14
    45a8:	e1 f0       	breq	.+56     	; 0x45e2 <fat_write_dir_entry+0x28c>
        buffer[0x00] = lfn_entry;
    45aa:	e9 82       	std	Y+1, r14	; 0x01
        buffer[0x0b] = 0x0f;
    45ac:	9c 86       	std	Y+12, r9	; 0x0c
        buffer[0x0d] = checksum;
    45ae:	de 86       	std	Y+14, r13	; 0x0e
        buffer[0x0c] = 0;
    45b0:	1d 86       	std	Y+13, r1	; 0x0d
        buffer[0x1a] = 0;
    45b2:	1b 8e       	std	Y+27, r1	; 0x1b
        buffer[0x1b] = 0;
    45b4:	1c 8e       	std	Y+28, r1	; 0x1c
        device_write(offset, buffer, sizeof(buffer));
    45b6:	20 e2       	ldi	r18, 0x20	; 32
    45b8:	30 e0       	ldi	r19, 0x00	; 0
    45ba:	ae 01       	movw	r20, r28
    45bc:	4f 5f       	subi	r20, 0xFF	; 255
    45be:	5f 4f       	sbci	r21, 0xFF	; 255
    45c0:	c3 01       	movw	r24, r6
    45c2:	b2 01       	movw	r22, r4
    45c4:	f5 01       	movw	r30, r10
    45c6:	09 95       	icall
        offset += sizeof(buffer);
    45c8:	f0 e2       	ldi	r31, 0x20	; 32
    45ca:	4f 0e       	add	r4, r31
    45cc:	51 1c       	adc	r5, r1
    45ce:	61 1c       	adc	r6, r1
    45d0:	71 1c       	adc	r7, r1
    for(uint8_t lfn_entry = lfn_entry_count; lfn_entry > 0; --lfn_entry)
    45d2:	ea 94       	dec	r14
    45d4:	03 2d       	mov	r16, r3
    45d6:	18 2d       	mov	r17, r8
    45d8:	83 cf       	rjmp	.-250    	; 0x44e0 <fat_write_dir_entry+0x18a>
                    i = 0x0e;
    45da:	8e e0       	ldi	r24, 0x0E	; 14
    45dc:	dd cf       	rjmp	.-70     	; 0x4598 <fat_write_dir_entry+0x242>
                    i = 0x1c;
    45de:	8c e1       	ldi	r24, 0x1C	; 28
    45e0:	db cf       	rjmp	.-74     	; 0x4598 <fat_write_dir_entry+0x242>
            buffer[0x00] |= FAT_DIRENTRY_LFNLAST;
    45e2:	c9 82       	std	Y+1, r12	; 0x01
    45e4:	e3 cf       	rjmp	.-58     	; 0x45ac <fat_write_dir_entry+0x256>
        return 0;
    45e6:	80 e0       	ldi	r24, 0x00	; 0
    45e8:	7e cf       	rjmp	.-260    	; 0x44e6 <fat_write_dir_entry+0x190>

000045ea <fat_open>:
{
    45ea:	2f 92       	push	r2
    45ec:	3f 92       	push	r3
    45ee:	4f 92       	push	r4
    45f0:	5f 92       	push	r5
    45f2:	6f 92       	push	r6
    45f4:	7f 92       	push	r7
    45f6:	8f 92       	push	r8
    45f8:	9f 92       	push	r9
    45fa:	af 92       	push	r10
    45fc:	bf 92       	push	r11
    45fe:	cf 92       	push	r12
    4600:	df 92       	push	r13
    4602:	ef 92       	push	r14
    4604:	ff 92       	push	r15
    4606:	0f 93       	push	r16
    4608:	1f 93       	push	r17
    460a:	cf 93       	push	r28
    460c:	df 93       	push	r29
    460e:	cd b7       	in	r28, 0x3d	; 61
    4610:	de b7       	in	r29, 0x3e	; 62
    4612:	a6 97       	sbiw	r28, 0x26	; 38
    4614:	0f b6       	in	r0, 0x3f	; 63
    4616:	f8 94       	cli
    4618:	de bf       	out	0x3e, r29	; 62
    461a:	0f be       	out	0x3f, r0	; 63
    461c:	cd bf       	out	0x3d, r28	; 61
    461e:	8c 01       	movw	r16, r24
    if(!partition ||
    4620:	00 97       	sbiw	r24, 0x00	; 0
    4622:	09 f4       	brne	.+2      	; 0x4626 <fat_open+0x3c>
    4624:	54 c1       	rjmp	.+680    	; 0x48ce <fat_open+0x2e4>
    4626:	dc 01       	movw	r26, r24
    4628:	14 96       	adiw	r26, 0x04	; 4
    462a:	8d 91       	ld	r24, X+
    462c:	9c 91       	ld	r25, X
    462e:	15 97       	sbiw	r26, 0x05	; 5
    4630:	89 2b       	or	r24, r25
    4632:	59 f0       	breq	.+22     	; 0x464a <fat_open+0x60>
       !partition->device_write ||
    4634:	16 96       	adiw	r26, 0x06	; 6
    4636:	8d 91       	ld	r24, X+
    4638:	9c 91       	ld	r25, X
    463a:	89 2b       	or	r24, r25
    463c:	31 f0       	breq	.+12     	; 0x464a <fat_open+0x60>
        if(!fs->partition)
    463e:	80 91 aa 04 	lds	r24, 0x04AA	; 0x8004aa <fat_fs_handles>
    4642:	90 91 ab 04 	lds	r25, 0x04AB	; 0x8004ab <fat_fs_handles+0x1>
    4646:	89 2b       	or	r24, r25
    4648:	89 f0       	breq	.+34     	; 0x466c <fat_open+0x82>
        return 0;
    464a:	10 e0       	ldi	r17, 0x00	; 0
    464c:	00 e0       	ldi	r16, 0x00	; 0
    464e:	3f c1       	rjmp	.+638    	; 0x48ce <fat_open+0x2e4>
        fs->partition = 0;
    4650:	10 92 ab 04 	sts	0x04AB, r1	; 0x8004ab <fat_fs_handles+0x1>
    4654:	10 92 aa 04 	sts	0x04AA, r1	; 0x8004aa <fat_fs_handles>
        return 0;
    4658:	f8 cf       	rjmp	.-16     	; 0x464a <fat_open+0x60>
        partition->type = PARTITION_TYPE_FAT32;
    465a:	8b e0       	ldi	r24, 0x0B	; 11
    465c:	f8 01       	movw	r30, r16
    465e:	80 87       	std	Z+8, r24	; 0x08
    4660:	b2 c0       	rjmp	.+356    	; 0x47c6 <fat_open+0x1dc>
    header->fat_size = (data_cluster_count + 2) * (partition->type == PARTITION_TYPE_FAT16 ? 2 : 4);
    4662:	62 e0       	ldi	r22, 0x02	; 2
    4664:	70 e0       	ldi	r23, 0x00	; 0
    4666:	80 e0       	ldi	r24, 0x00	; 0
    4668:	90 e0       	ldi	r25, 0x00	; 0
    466a:	e9 c0       	rjmp	.+466    	; 0x483e <fat_open+0x254>
    memset(fs, 0, sizeof(*fs));
    466c:	ec ea       	ldi	r30, 0xAC	; 172
    466e:	f4 e0       	ldi	r31, 0x04	; 4
    4670:	8a e1       	ldi	r24, 0x1A	; 26
    4672:	df 01       	movw	r26, r30
    4674:	1d 92       	st	X+, r1
    4676:	8a 95       	dec	r24
    4678:	e9 f7       	brne	.-6      	; 0x4674 <fat_open+0x8a>
    fs->partition = partition;
    467a:	10 93 ab 04 	sts	0x04AB, r17	; 0x8004ab <fat_fs_handles+0x1>
    467e:	00 93 aa 04 	sts	0x04AA, r16	; 0x8004aa <fat_fs_handles>
    offset_t partition_offset = (offset_t) partition->offset * 512;
    4682:	f8 01       	movw	r30, r16
    4684:	81 84       	ldd	r8, Z+9	; 0x09
    4686:	92 84       	ldd	r9, Z+10	; 0x0a
    4688:	a3 84       	ldd	r10, Z+11	; 0x0b
    468a:	b4 84       	ldd	r11, Z+12	; 0x0c
    468c:	a5 01       	movw	r20, r10
    468e:	94 01       	movw	r18, r8
    4690:	89 e0       	ldi	r24, 0x09	; 9
    4692:	22 0f       	add	r18, r18
    4694:	33 1f       	adc	r19, r19
    4696:	44 1f       	adc	r20, r20
    4698:	55 1f       	adc	r21, r21
    469a:	8a 95       	dec	r24
    469c:	d1 f7       	brne	.-12     	; 0x4692 <fat_open+0xa8>
    469e:	2a 8f       	std	Y+26, r18	; 0x1a
    46a0:	3b 8f       	std	Y+27, r19	; 0x1b
    46a2:	4c 8f       	std	Y+28, r20	; 0x1c
    46a4:	5d 8f       	std	Y+29, r21	; 0x1d
    if(!partition->device_read(partition_offset + 0x0b, buffer, sizeof(buffer)))
    46a6:	ca 01       	movw	r24, r20
    46a8:	b9 01       	movw	r22, r18
    46aa:	65 5f       	subi	r22, 0xF5	; 245
    46ac:	7f 4f       	sbci	r23, 0xFF	; 255
    46ae:	8f 4f       	sbci	r24, 0xFF	; 255
    46b0:	9f 4f       	sbci	r25, 0xFF	; 255
    46b2:	01 90       	ld	r0, Z+
    46b4:	f0 81       	ld	r31, Z
    46b6:	e0 2d       	mov	r30, r0
    46b8:	29 e1       	ldi	r18, 0x19	; 25
    46ba:	30 e0       	ldi	r19, 0x00	; 0
    46bc:	ae 01       	movw	r20, r28
    46be:	4f 5f       	subi	r20, 0xFF	; 255
    46c0:	5f 4f       	sbci	r21, 0xFF	; 255
    46c2:	09 95       	icall
    46c4:	88 23       	and	r24, r24
    46c6:	21 f2       	breq	.-120    	; 0x4650 <fat_open+0x66>
    uint16_t bytes_per_sector = read16(&buffer[0x00]);
    46c8:	ce 01       	movw	r24, r28
    46ca:	01 96       	adiw	r24, 0x01	; 1
    46cc:	0e 94 a3 2c 	call	0x5946	; 0x5946 <read16>
    46d0:	1c 01       	movw	r2, r24
    uint16_t reserved_sectors = read16(&buffer[0x03]);
    46d2:	ce 01       	movw	r24, r28
    46d4:	04 96       	adiw	r24, 0x04	; 4
    46d6:	0e 94 a3 2c 	call	0x5946	; 0x5946 <read16>
    46da:	9f 8f       	std	Y+31, r25	; 0x1f
    46dc:	8e 8f       	std	Y+30, r24	; 0x1e
    uint8_t sectors_per_cluster = buffer[0x02];
    46de:	bb 81       	ldd	r27, Y+3	; 0x03
    46e0:	b8 a3       	std	Y+32, r27	; 0x20
    uint8_t fat_copies = buffer[0x05];
    46e2:	7e 80       	ldd	r7, Y+6	; 0x06
    uint16_t max_root_entries = read16(&buffer[0x06]);
    46e4:	ce 01       	movw	r24, r28
    46e6:	07 96       	adiw	r24, 0x07	; 7
    46e8:	0e 94 a3 2c 	call	0x5946	; 0x5946 <read16>
    46ec:	9a a3       	std	Y+34, r25	; 0x22
    46ee:	89 a3       	std	Y+33, r24	; 0x21
    uint16_t sector_count_16 = read16(&buffer[0x08]);
    46f0:	ce 01       	movw	r24, r28
    46f2:	09 96       	adiw	r24, 0x09	; 9
    46f4:	0e 94 a3 2c 	call	0x5946	; 0x5946 <read16>
    46f8:	6c 01       	movw	r12, r24
    uint16_t sectors_per_fat = read16(&buffer[0x0b]);
    46fa:	ce 01       	movw	r24, r28
    46fc:	0c 96       	adiw	r24, 0x0c	; 12
    46fe:	0e 94 a3 2c 	call	0x5946	; 0x5946 <read16>
    4702:	7c 01       	movw	r14, r24
    uint32_t sector_count = read32(&buffer[0x15]);
    4704:	ce 01       	movw	r24, r28
    4706:	46 96       	adiw	r24, 0x16	; 22
    4708:	0e 94 a7 2c 	call	0x594e	; 0x594e <read32>
    470c:	4b 01       	movw	r8, r22
    470e:	5c 01       	movw	r10, r24
    if(sector_count == 0)
    4710:	81 14       	cp	r8, r1
    4712:	91 04       	cpc	r9, r1
    4714:	a1 04       	cpc	r10, r1
    4716:	b1 04       	cpc	r11, r1
    4718:	39 f4       	brne	.+14     	; 0x4728 <fat_open+0x13e>
        if(sector_count_16 == 0)
    471a:	c1 14       	cp	r12, r1
    471c:	d1 04       	cpc	r13, r1
    471e:	09 f4       	brne	.+2      	; 0x4722 <fat_open+0x138>
    4720:	97 cf       	rjmp	.-210    	; 0x4650 <fat_open+0x66>
            sector_count = sector_count_16;
    4722:	46 01       	movw	r8, r12
    4724:	b1 2c       	mov	r11, r1
    4726:	a1 2c       	mov	r10, r1
    if(sectors_per_fat == 0)
    4728:	e1 14       	cp	r14, r1
    472a:	f1 04       	cpc	r15, r1
    472c:	09 f4       	brne	.+2      	; 0x4730 <fat_open+0x146>
    472e:	90 cf       	rjmp	.-224    	; 0x4650 <fat_open+0x66>
                                 - (uint32_t) sectors_per_fat * fat_copies
    4730:	27 2d       	mov	r18, r7
    4732:	30 e0       	ldi	r19, 0x00	; 0
    4734:	d7 01       	movw	r26, r14
    4736:	0e 94 84 2f 	call	0x5f08	; 0x5f08 <__umulhisi3>
    473a:	6b a3       	std	Y+35, r22	; 0x23
    473c:	7c a3       	std	Y+36, r23	; 0x24
    473e:	8d a3       	std	Y+37, r24	; 0x25
    4740:	9e a3       	std	Y+38, r25	; 0x26
                                 - ((max_root_entries * 32 + bytes_per_sector - 1) / bytes_per_sector);
    4742:	91 01       	movw	r18, r2
    4744:	21 50       	subi	r18, 0x01	; 1
    4746:	31 09       	sbc	r19, r1
    4748:	89 a1       	ldd	r24, Y+33	; 0x21
    474a:	9a a1       	ldd	r25, Y+34	; 0x22
    474c:	45 e0       	ldi	r20, 0x05	; 5
    474e:	88 0f       	add	r24, r24
    4750:	99 1f       	adc	r25, r25
    4752:	4a 95       	dec	r20
    4754:	e1 f7       	brne	.-8      	; 0x474e <fat_open+0x164>
    4756:	82 0f       	add	r24, r18
    4758:	93 1f       	adc	r25, r19
    475a:	b1 01       	movw	r22, r2
    475c:	0e 94 34 2f 	call	0x5e68	; 0x5e68 <__udivmodhi4>
    uint32_t data_sector_count = sector_count
    4760:	8b a1       	ldd	r24, Y+35	; 0x23
    4762:	9c a1       	ldd	r25, Y+36	; 0x24
    4764:	ad a1       	ldd	r26, Y+37	; 0x25
    4766:	be a1       	ldd	r27, Y+38	; 0x26
    4768:	ee 8d       	ldd	r30, Y+30	; 0x1e
    476a:	ff 8d       	ldd	r31, Y+31	; 0x1f
    476c:	8e 0f       	add	r24, r30
    476e:	9f 1f       	adc	r25, r31
    4770:	a1 1d       	adc	r26, r1
    4772:	b1 1d       	adc	r27, r1
    4774:	86 0f       	add	r24, r22
    4776:	97 1f       	adc	r25, r23
    4778:	a1 1d       	adc	r26, r1
    477a:	b1 1d       	adc	r27, r1
    477c:	a5 01       	movw	r20, r10
    477e:	94 01       	movw	r18, r8
    4780:	28 1b       	sub	r18, r24
    4782:	39 0b       	sbc	r19, r25
    4784:	4a 0b       	sbc	r20, r26
    4786:	5b 0b       	sbc	r21, r27
    4788:	ca 01       	movw	r24, r20
    478a:	b9 01       	movw	r22, r18
    uint32_t data_cluster_count = data_sector_count / sectors_per_cluster;
    478c:	a8 a1       	ldd	r26, Y+32	; 0x20
    478e:	2a 2f       	mov	r18, r26
    4790:	30 e0       	ldi	r19, 0x00	; 0
    4792:	50 e0       	ldi	r21, 0x00	; 0
    4794:	40 e0       	ldi	r20, 0x00	; 0
    4796:	0e 94 5c 2f 	call	0x5eb8	; 0x5eb8 <__udivmodsi4>
    479a:	69 01       	movw	r12, r18
    479c:	7a 01       	movw	r14, r20
    if(data_cluster_count < 4085)
    479e:	b5 ef       	ldi	r27, 0xF5	; 245
    47a0:	cb 16       	cp	r12, r27
    47a2:	bf e0       	ldi	r27, 0x0F	; 15
    47a4:	db 06       	cpc	r13, r27
    47a6:	e1 04       	cpc	r14, r1
    47a8:	f1 04       	cpc	r15, r1
    47aa:	08 f4       	brcc	.+2      	; 0x47ae <fat_open+0x1c4>
    47ac:	51 cf       	rjmp	.-350    	; 0x4650 <fat_open+0x66>
    else if(data_cluster_count < 65525)
    47ae:	e5 ef       	ldi	r30, 0xF5	; 245
    47b0:	ce 16       	cp	r12, r30
    47b2:	ef ef       	ldi	r30, 0xFF	; 255
    47b4:	de 06       	cpc	r13, r30
    47b6:	e1 04       	cpc	r14, r1
    47b8:	f1 04       	cpc	r15, r1
    47ba:	08 f0       	brcs	.+2      	; 0x47be <fat_open+0x1d4>
    47bc:	4e cf       	rjmp	.-356    	; 0x465a <fat_open+0x70>
        partition->type = PARTITION_TYPE_FAT16;
    47be:	86 e0       	ldi	r24, 0x06	; 6
    47c0:	d8 01       	movw	r26, r16
    47c2:	18 96       	adiw	r26, 0x08	; 8
    47c4:	8c 93       	st	X, r24
    memset(header, 0, sizeof(*header));
    47c6:	e4 eb       	ldi	r30, 0xB4	; 180
    47c8:	f4 e0       	ldi	r31, 0x04	; 4
    47ca:	80 e1       	ldi	r24, 0x10	; 16
    47cc:	df 01       	movw	r26, r30
    47ce:	1d 92       	st	X+, r1
    47d0:	8a 95       	dec	r24
    47d2:	e9 f7       	brne	.-6      	; 0x47ce <fat_open+0x1e4>
    header->size = (offset_t) sector_count * bytes_per_sector;
    47d4:	21 01       	movw	r4, r2
    47d6:	71 2c       	mov	r7, r1
    47d8:	61 2c       	mov	r6, r1
    47da:	a5 01       	movw	r20, r10
    47dc:	94 01       	movw	r18, r8
    47de:	c3 01       	movw	r24, r6
    47e0:	b1 01       	movw	r22, r2
    47e2:	0e 94 24 2f 	call	0x5e48	; 0x5e48 <__mulsi3>
    47e6:	60 93 ac 04 	sts	0x04AC, r22	; 0x8004ac <fat_fs_handles+0x2>
    47ea:	70 93 ad 04 	sts	0x04AD, r23	; 0x8004ad <fat_fs_handles+0x3>
    47ee:	80 93 ae 04 	sts	0x04AE, r24	; 0x8004ae <fat_fs_handles+0x4>
    47f2:	90 93 af 04 	sts	0x04AF, r25	; 0x8004af <fat_fs_handles+0x5>
                         (offset_t) reserved_sectors * bytes_per_sector;
    47f6:	2e 8d       	ldd	r18, Y+30	; 0x1e
    47f8:	3f 8d       	ldd	r19, Y+31	; 0x1f
    47fa:	d1 01       	movw	r26, r2
    47fc:	0e 94 84 2f 	call	0x5f08	; 0x5f08 <__umulhisi3>
                         partition_offset +
    4800:	8a 8c       	ldd	r8, Y+26	; 0x1a
    4802:	9b 8c       	ldd	r9, Y+27	; 0x1b
    4804:	ac 8c       	ldd	r10, Y+28	; 0x1c
    4806:	bd 8c       	ldd	r11, Y+29	; 0x1d
    4808:	86 0e       	add	r8, r22
    480a:	97 1e       	adc	r9, r23
    480c:	a8 1e       	adc	r10, r24
    480e:	b9 1e       	adc	r11, r25
    header->fat_offset = /* jump to partition */
    4810:	80 92 b0 04 	sts	0x04B0, r8	; 0x8004b0 <fat_fs_handles+0x6>
    4814:	90 92 b1 04 	sts	0x04B1, r9	; 0x8004b1 <fat_fs_handles+0x7>
    4818:	a0 92 b2 04 	sts	0x04B2, r10	; 0x8004b2 <fat_fs_handles+0x8>
    481c:	b0 92 b3 04 	sts	0x04B3, r11	; 0x8004b3 <fat_fs_handles+0x9>
    header->fat_size = (data_cluster_count + 2) * (partition->type == PARTITION_TYPE_FAT16 ? 2 : 4);
    4820:	a7 01       	movw	r20, r14
    4822:	96 01       	movw	r18, r12
    4824:	2e 5f       	subi	r18, 0xFE	; 254
    4826:	3f 4f       	sbci	r19, 0xFF	; 255
    4828:	4f 4f       	sbci	r20, 0xFF	; 255
    482a:	5f 4f       	sbci	r21, 0xFF	; 255
    482c:	f8 01       	movw	r30, r16
    482e:	80 85       	ldd	r24, Z+8	; 0x08
    4830:	86 30       	cpi	r24, 0x06	; 6
    4832:	09 f4       	brne	.+2      	; 0x4836 <fat_open+0x24c>
    4834:	16 cf       	rjmp	.-468    	; 0x4662 <fat_open+0x78>
    4836:	64 e0       	ldi	r22, 0x04	; 4
    4838:	70 e0       	ldi	r23, 0x00	; 0
    483a:	80 e0       	ldi	r24, 0x00	; 0
    483c:	90 e0       	ldi	r25, 0x00	; 0
    483e:	0e 94 24 2f 	call	0x5e48	; 0x5e48 <__mulsi3>
    4842:	60 93 b4 04 	sts	0x04B4, r22	; 0x8004b4 <fat_fs_handles+0xa>
    4846:	70 93 b5 04 	sts	0x04B5, r23	; 0x8004b5 <fat_fs_handles+0xb>
    484a:	80 93 b6 04 	sts	0x04B6, r24	; 0x8004b6 <fat_fs_handles+0xc>
    484e:	90 93 b7 04 	sts	0x04B7, r25	; 0x8004b7 <fat_fs_handles+0xd>
    header->sector_size = bytes_per_sector;
    4852:	30 92 b9 04 	sts	0x04B9, r3	; 0x8004b9 <fat_fs_handles+0xf>
    4856:	20 92 b8 04 	sts	0x04B8, r2	; 0x8004b8 <fat_fs_handles+0xe>
    header->cluster_size = (uint16_t) bytes_per_sector * sectors_per_cluster;
    485a:	f8 a1       	ldd	r31, Y+32	; 0x20
    485c:	f2 9d       	mul	r31, r2
    485e:	c0 01       	movw	r24, r0
    4860:	f3 9d       	mul	r31, r3
    4862:	90 0d       	add	r25, r0
    4864:	11 24       	eor	r1, r1
    4866:	90 93 bb 04 	sts	0x04BB, r25	; 0x8004bb <fat_fs_handles+0x11>
    486a:	80 93 ba 04 	sts	0x04BA, r24	; 0x8004ba <fat_fs_handles+0x10>
                                  (offset_t) fat_copies * sectors_per_fat * bytes_per_sector;
    486e:	2b a1       	ldd	r18, Y+35	; 0x23
    4870:	3c a1       	ldd	r19, Y+36	; 0x24
    4872:	4d a1       	ldd	r20, Y+37	; 0x25
    4874:	5e a1       	ldd	r21, Y+38	; 0x26
    4876:	c3 01       	movw	r24, r6
    4878:	b2 01       	movw	r22, r4
    487a:	0e 94 24 2f 	call	0x5e48	; 0x5e48 <__mulsi3>
                                  header->fat_offset +
    487e:	dc 01       	movw	r26, r24
    4880:	cb 01       	movw	r24, r22
    4882:	88 0d       	add	r24, r8
    4884:	99 1d       	adc	r25, r9
    4886:	aa 1d       	adc	r26, r10
    4888:	bb 1d       	adc	r27, r11
        header->root_dir_offset = /* jump to fats */
    488a:	80 93 c0 04 	sts	0x04C0, r24	; 0x8004c0 <fat_fs_handles+0x16>
    488e:	90 93 c1 04 	sts	0x04C1, r25	; 0x8004c1 <fat_fs_handles+0x17>
    4892:	a0 93 c2 04 	sts	0x04C2, r26	; 0x8004c2 <fat_fs_handles+0x18>
    4896:	b0 93 c3 04 	sts	0x04C3, r27	; 0x8004c3 <fat_fs_handles+0x19>
                                      (offset_t) max_root_entries * 32;
    489a:	29 a1       	ldd	r18, Y+33	; 0x21
    489c:	3a a1       	ldd	r19, Y+34	; 0x22
    489e:	49 01       	movw	r8, r18
    48a0:	b1 2c       	mov	r11, r1
    48a2:	a1 2c       	mov	r10, r1
    48a4:	25 e0       	ldi	r18, 0x05	; 5
    48a6:	88 0c       	add	r8, r8
    48a8:	99 1c       	adc	r9, r9
    48aa:	aa 1c       	adc	r10, r10
    48ac:	bb 1c       	adc	r11, r11
    48ae:	2a 95       	dec	r18
    48b0:	d1 f7       	brne	.-12     	; 0x48a6 <fat_open+0x2bc>
                                      header->root_dir_offset +
    48b2:	88 0e       	add	r8, r24
    48b4:	99 1e       	adc	r9, r25
    48b6:	aa 1e       	adc	r10, r26
    48b8:	bb 1e       	adc	r11, r27
        header->cluster_zero_offset = /* jump to root directory entries */
    48ba:	80 92 bc 04 	sts	0x04BC, r8	; 0x8004bc <fat_fs_handles+0x12>
    48be:	90 92 bd 04 	sts	0x04BD, r9	; 0x8004bd <fat_fs_handles+0x13>
    48c2:	a0 92 be 04 	sts	0x04BE, r10	; 0x8004be <fat_fs_handles+0x14>
    48c6:	b0 92 bf 04 	sts	0x04BF, r11	; 0x8004bf <fat_fs_handles+0x15>
    struct fat_fs_struct* fs = fat_fs_handles;
    48ca:	0a ea       	ldi	r16, 0xAA	; 170
    48cc:	14 e0       	ldi	r17, 0x04	; 4
}
    48ce:	c8 01       	movw	r24, r16
    48d0:	a6 96       	adiw	r28, 0x26	; 38
    48d2:	0f b6       	in	r0, 0x3f	; 63
    48d4:	f8 94       	cli
    48d6:	de bf       	out	0x3e, r29	; 62
    48d8:	0f be       	out	0x3f, r0	; 63
    48da:	cd bf       	out	0x3d, r28	; 61
    48dc:	df 91       	pop	r29
    48de:	cf 91       	pop	r28
    48e0:	1f 91       	pop	r17
    48e2:	0f 91       	pop	r16
    48e4:	ff 90       	pop	r15
    48e6:	ef 90       	pop	r14
    48e8:	df 90       	pop	r13
    48ea:	cf 90       	pop	r12
    48ec:	bf 90       	pop	r11
    48ee:	af 90       	pop	r10
    48f0:	9f 90       	pop	r9
    48f2:	8f 90       	pop	r8
    48f4:	7f 90       	pop	r7
    48f6:	6f 90       	pop	r6
    48f8:	5f 90       	pop	r5
    48fa:	4f 90       	pop	r4
    48fc:	3f 90       	pop	r3
    48fe:	2f 90       	pop	r2
    4900:	08 95       	ret

00004902 <fat_close>:
    if(!fs)
    4902:	00 97       	sbiw	r24, 0x00	; 0
    4904:	19 f0       	breq	.+6      	; 0x490c <fat_close+0xa>
    fs->partition = 0;
    4906:	fc 01       	movw	r30, r24
    4908:	11 82       	std	Z+1, r1	; 0x01
    490a:	10 82       	st	Z, r1
}
    490c:	08 95       	ret

0000490e <fat_open_file>:
    if(!fs || !dir_entry || (dir_entry->attributes & FAT_ATTRIB_DIR))
    490e:	00 97       	sbiw	r24, 0x00	; 0
    4910:	61 f1       	breq	.+88     	; 0x496a <fat_open_file+0x5c>
    4912:	61 15       	cp	r22, r1
    4914:	71 05       	cpc	r23, r1
    4916:	51 f0       	breq	.+20     	; 0x492c <fat_open_file+0x1e>
    4918:	fb 01       	movw	r30, r22
    491a:	20 a1       	ldd	r18, Z+32	; 0x20
    491c:	24 fd       	sbrc	r18, 4
    491e:	06 c0       	rjmp	.+12     	; 0x492c <fat_open_file+0x1e>
        if(!fd->fs)
    4920:	20 91 77 04 	lds	r18, 0x0477	; 0x800477 <fat_file_handles>
    4924:	30 91 78 04 	lds	r19, 0x0478	; 0x800478 <fat_file_handles+0x1>
    4928:	23 2b       	or	r18, r19
    492a:	19 f0       	breq	.+6      	; 0x4932 <fat_open_file+0x24>
        return 0;
    492c:	90 e0       	ldi	r25, 0x00	; 0
    492e:	80 e0       	ldi	r24, 0x00	; 0
    4930:	08 95       	ret
    memcpy(&fd->dir_entry, dir_entry, sizeof(*dir_entry));
    4932:	2b e2       	ldi	r18, 0x2B	; 43
    4934:	a9 e7       	ldi	r26, 0x79	; 121
    4936:	b4 e0       	ldi	r27, 0x04	; 4
    4938:	01 90       	ld	r0, Z+
    493a:	0d 92       	st	X+, r0
    493c:	2a 95       	dec	r18
    493e:	e1 f7       	brne	.-8      	; 0x4938 <fat_open_file+0x2a>
    fd->fs = fs;
    4940:	90 93 78 04 	sts	0x0478, r25	; 0x800478 <fat_file_handles+0x1>
    4944:	80 93 77 04 	sts	0x0477, r24	; 0x800477 <fat_file_handles>
    fd->pos = 0;
    4948:	10 92 a4 04 	sts	0x04A4, r1	; 0x8004a4 <fat_file_handles+0x2d>
    494c:	10 92 a5 04 	sts	0x04A5, r1	; 0x8004a5 <fat_file_handles+0x2e>
    4950:	10 92 a6 04 	sts	0x04A6, r1	; 0x8004a6 <fat_file_handles+0x2f>
    4954:	10 92 a7 04 	sts	0x04A7, r1	; 0x8004a7 <fat_file_handles+0x30>
    fd->pos_cluster = dir_entry->cluster;
    4958:	fb 01       	movw	r30, r22
    495a:	81 a1       	ldd	r24, Z+33	; 0x21
    495c:	92 a1       	ldd	r25, Z+34	; 0x22
    495e:	90 93 a9 04 	sts	0x04A9, r25	; 0x8004a9 <fat_file_handles+0x32>
    4962:	80 93 a8 04 	sts	0x04A8, r24	; 0x8004a8 <fat_file_handles+0x31>
    struct fat_file_struct* fd = fat_file_handles;
    4966:	87 e7       	ldi	r24, 0x77	; 119
    4968:	94 e0       	ldi	r25, 0x04	; 4
}
    496a:	08 95       	ret

0000496c <fat_close_file>:
    if(fd)
    496c:	00 97       	sbiw	r24, 0x00	; 0
    496e:	19 f0       	breq	.+6      	; 0x4976 <fat_close_file+0xa>
        fd->fs = 0;
    4970:	fc 01       	movw	r30, r24
    4972:	11 82       	std	Z+1, r1	; 0x01
    4974:	10 82       	st	Z, r1
}
    4976:	08 95       	ret

00004978 <fat_read_file>:
{
    4978:	2f 92       	push	r2
    497a:	3f 92       	push	r3
    497c:	4f 92       	push	r4
    497e:	5f 92       	push	r5
    4980:	6f 92       	push	r6
    4982:	7f 92       	push	r7
    4984:	8f 92       	push	r8
    4986:	9f 92       	push	r9
    4988:	af 92       	push	r10
    498a:	bf 92       	push	r11
    498c:	cf 92       	push	r12
    498e:	df 92       	push	r13
    4990:	ef 92       	push	r14
    4992:	ff 92       	push	r15
    4994:	0f 93       	push	r16
    4996:	1f 93       	push	r17
    4998:	cf 93       	push	r28
    499a:	df 93       	push	r29
    499c:	00 d0       	rcall	.+0      	; 0x499e <fat_read_file+0x26>
    499e:	00 d0       	rcall	.+0      	; 0x49a0 <fat_read_file+0x28>
    49a0:	cd b7       	in	r28, 0x3d	; 61
    49a2:	de b7       	in	r29, 0x3e	; 62
    49a4:	8c 01       	movw	r16, r24
    49a6:	6b 01       	movw	r12, r22
    49a8:	5c 83       	std	Y+4, r21	; 0x04
    49aa:	4b 83       	std	Y+3, r20	; 0x03
    if(!fd || !buffer || buffer_len < 1)
    49ac:	89 2b       	or	r24, r25
    49ae:	e9 f4       	brne	.+58     	; 0x49ea <fat_read_file+0x72>
        return -1;
    49b0:	2f ef       	ldi	r18, 0xFF	; 255
    49b2:	3f ef       	ldi	r19, 0xFF	; 255
            if(!fd->pos)
    49b4:	3a 83       	std	Y+2, r19	; 0x02
    49b6:	29 83       	std	Y+1, r18	; 0x01
}
    49b8:	89 81       	ldd	r24, Y+1	; 0x01
    49ba:	9a 81       	ldd	r25, Y+2	; 0x02
    49bc:	0f 90       	pop	r0
    49be:	0f 90       	pop	r0
    49c0:	0f 90       	pop	r0
    49c2:	0f 90       	pop	r0
    49c4:	df 91       	pop	r29
    49c6:	cf 91       	pop	r28
    49c8:	1f 91       	pop	r17
    49ca:	0f 91       	pop	r16
    49cc:	ff 90       	pop	r15
    49ce:	ef 90       	pop	r14
    49d0:	df 90       	pop	r13
    49d2:	cf 90       	pop	r12
    49d4:	bf 90       	pop	r11
    49d6:	af 90       	pop	r10
    49d8:	9f 90       	pop	r9
    49da:	8f 90       	pop	r8
    49dc:	7f 90       	pop	r7
    49de:	6f 90       	pop	r6
    49e0:	5f 90       	pop	r5
    49e2:	4f 90       	pop	r4
    49e4:	3f 90       	pop	r3
    49e6:	2f 90       	pop	r2
    49e8:	08 95       	ret
    if(!fd || !buffer || buffer_len < 1)
    49ea:	67 2b       	or	r22, r23
    49ec:	09 f3       	breq	.-62     	; 0x49b0 <fat_read_file+0x38>
    49ee:	8b 81       	ldd	r24, Y+3	; 0x03
    49f0:	9c 81       	ldd	r25, Y+4	; 0x04
    49f2:	89 2b       	or	r24, r25
    49f4:	e9 f2       	breq	.-70     	; 0x49b0 <fat_read_file+0x38>
    if(fd->pos + buffer_len > fd->dir_entry.file_size)
    49f6:	d8 01       	movw	r26, r16
    49f8:	9d 96       	adiw	r26, 0x2d	; 45
    49fa:	8d 90       	ld	r8, X+
    49fc:	9d 90       	ld	r9, X+
    49fe:	ad 90       	ld	r10, X+
    4a00:	bc 90       	ld	r11, X
    4a02:	d0 97       	sbiw	r26, 0x30	; 48
    4a04:	95 96       	adiw	r26, 0x25	; 37
    4a06:	8d 91       	ld	r24, X+
    4a08:	9d 91       	ld	r25, X+
    4a0a:	0d 90       	ld	r0, X+
    4a0c:	bc 91       	ld	r27, X
    4a0e:	a0 2d       	mov	r26, r0
    4a10:	9a 82       	std	Y+2, r9	; 0x02
    4a12:	89 82       	std	Y+1, r8	; 0x01
    4a14:	b5 01       	movw	r22, r10
    4a16:	a4 01       	movw	r20, r8
    4a18:	eb 81       	ldd	r30, Y+3	; 0x03
    4a1a:	fc 81       	ldd	r31, Y+4	; 0x04
    4a1c:	4e 0f       	add	r20, r30
    4a1e:	5f 1f       	adc	r21, r31
    4a20:	61 1d       	adc	r22, r1
    4a22:	71 1d       	adc	r23, r1
    4a24:	84 17       	cp	r24, r20
    4a26:	95 07       	cpc	r25, r21
    4a28:	a6 07       	cpc	r26, r22
    4a2a:	b7 07       	cpc	r27, r23
    4a2c:	40 f4       	brcc	.+16     	; 0x4a3e <fat_read_file+0xc6>
        buffer_len = fd->dir_entry.file_size - fd->pos;
    4a2e:	9c 01       	movw	r18, r24
    4a30:	28 19       	sub	r18, r8
    4a32:	39 09       	sbc	r19, r9
    4a34:	3c 83       	std	Y+4, r19	; 0x04
    4a36:	2b 83       	std	Y+3, r18	; 0x03
    if(buffer_len == 0)
    4a38:	23 2b       	or	r18, r19
    4a3a:	09 f4       	brne	.+2      	; 0x4a3e <fat_read_file+0xc6>
    4a3c:	a7 c0       	rjmp	.+334    	; 0x4b8c <fat_read_file+0x214>
    uint16_t cluster_size = fd->fs->header.cluster_size;
    4a3e:	d8 01       	movw	r26, r16
    4a40:	ed 91       	ld	r30, X+
    4a42:	fc 91       	ld	r31, X
    4a44:	11 97       	sbiw	r26, 0x01	; 1
    4a46:	20 88       	ldd	r2, Z+16	; 0x10
    4a48:	31 88       	ldd	r3, Z+17	; 0x11
    cluster_t cluster_num = fd->pos_cluster;
    4a4a:	d1 96       	adiw	r26, 0x31	; 49
    4a4c:	ed 90       	ld	r14, X+
    4a4e:	fc 90       	ld	r15, X
    4a50:	d2 97       	sbiw	r26, 0x32	; 50
    if(!cluster_num)
    4a52:	e1 14       	cp	r14, r1
    4a54:	f1 04       	cpc	r15, r1
    4a56:	f1 f4       	brne	.+60     	; 0x4a94 <fat_read_file+0x11c>
        cluster_num = fd->dir_entry.cluster;
    4a58:	93 96       	adiw	r26, 0x23	; 35
    4a5a:	ed 90       	ld	r14, X+
    4a5c:	fc 90       	ld	r15, X
        if(!cluster_num)
    4a5e:	e1 14       	cp	r14, r1
    4a60:	f1 04       	cpc	r15, r1
    4a62:	81 f4       	brne	.+32     	; 0x4a84 <fat_read_file+0x10c>
            if(!fd->pos)
    4a64:	e1 e0       	ldi	r30, 0x01	; 1
    4a66:	f0 e0       	ldi	r31, 0x00	; 0
    4a68:	fa 83       	std	Y+2, r31	; 0x02
    4a6a:	e9 83       	std	Y+1, r30	; 0x01
    4a6c:	89 28       	or	r8, r9
    4a6e:	8a 28       	or	r8, r10
    4a70:	8b 28       	or	r8, r11
    4a72:	11 f4       	brne	.+4      	; 0x4a78 <fat_read_file+0x100>
    4a74:	1a 82       	std	Y+2, r1	; 0x02
    4a76:	19 82       	std	Y+1, r1	; 0x01
    4a78:	29 81       	ldd	r18, Y+1	; 0x01
    4a7a:	3a 81       	ldd	r19, Y+2	; 0x02
    4a7c:	31 95       	neg	r19
    4a7e:	21 95       	neg	r18
    4a80:	31 09       	sbc	r19, r1
    4a82:	98 cf       	rjmp	.-208    	; 0x49b4 <fat_read_file+0x3c>
            while(pos >= cluster_size)
    4a84:	21 01       	movw	r4, r2
    4a86:	71 2c       	mov	r7, r1
    4a88:	61 2c       	mov	r6, r1
        if(fd->pos)
    4a8a:	81 14       	cp	r8, r1
    4a8c:	91 04       	cpc	r9, r1
    4a8e:	a1 04       	cpc	r10, r1
    4a90:	b1 04       	cpc	r11, r1
    4a92:	d1 f5       	brne	.+116    	; 0x4b08 <fat_read_file+0x190>
    uint16_t first_cluster_offset = (uint16_t) (fd->pos & (cluster_size - 1));
    4a94:	31 01       	movw	r6, r2
    4a96:	b1 e0       	ldi	r27, 0x01	; 1
    4a98:	6b 1a       	sub	r6, r27
    4a9a:	71 08       	sbc	r7, r1
    4a9c:	e9 81       	ldd	r30, Y+1	; 0x01
    4a9e:	fa 81       	ldd	r31, Y+2	; 0x02
    4aa0:	6e 22       	and	r6, r30
    4aa2:	7f 22       	and	r7, r31
    4aa4:	8b 80       	ldd	r8, Y+3	; 0x03
    4aa6:	9c 80       	ldd	r9, Y+4	; 0x04
        offset_t cluster_offset = fat_cluster_offset(fd->fs, cluster_num) + first_cluster_offset;
    4aa8:	d8 01       	movw	r26, r16
    4aaa:	4d 90       	ld	r4, X+
    4aac:	5c 90       	ld	r5, X
    4aae:	b7 01       	movw	r22, r14
    4ab0:	c2 01       	movw	r24, r4
    4ab2:	0e 94 7d 20 	call	0x40fa	; 0x40fa <fat_cluster_offset>
        uint16_t copy_length = cluster_size - first_cluster_offset;
    4ab6:	91 01       	movw	r18, r2
    4ab8:	26 19       	sub	r18, r6
    4aba:	37 09       	sbc	r19, r7
        if(copy_length > buffer_left)
    4abc:	54 01       	movw	r10, r8
    4abe:	28 15       	cp	r18, r8
    4ac0:	39 05       	cpc	r19, r9
    4ac2:	08 f4       	brcc	.+2      	; 0x4ac6 <fat_read_file+0x14e>
    4ac4:	59 01       	movw	r10, r18
        offset_t cluster_offset = fat_cluster_offset(fd->fs, cluster_num) + first_cluster_offset;
    4ac6:	66 0d       	add	r22, r6
    4ac8:	77 1d       	adc	r23, r7
    4aca:	81 1d       	adc	r24, r1
    4acc:	91 1d       	adc	r25, r1
        if(!fd->fs->partition->device_read(cluster_offset, buffer, copy_length))
    4ace:	d2 01       	movw	r26, r4
    4ad0:	ed 91       	ld	r30, X+
    4ad2:	fc 91       	ld	r31, X
    4ad4:	01 90       	ld	r0, Z+
    4ad6:	f0 81       	ld	r31, Z
    4ad8:	e0 2d       	mov	r30, r0
    4ada:	95 01       	movw	r18, r10
    4adc:	a6 01       	movw	r20, r12
    4ade:	09 95       	icall
    4ae0:	81 11       	cpse	r24, r1
    4ae2:	1d c0       	rjmp	.+58     	; 0x4b1e <fat_read_file+0x1a6>
            return buffer_len - buffer_left;
    4ae4:	eb 81       	ldd	r30, Y+3	; 0x03
    4ae6:	fc 81       	ldd	r31, Y+4	; 0x04
                return buffer_len - buffer_left;
    4ae8:	e8 19       	sub	r30, r8
    4aea:	f9 09       	sbc	r31, r9
    return buffer_len;
    4aec:	fa 83       	std	Y+2, r31	; 0x02
    4aee:	e9 83       	std	Y+1, r30	; 0x01
    4af0:	63 cf       	rjmp	.-314    	; 0x49b8 <fat_read_file+0x40>
                pos -= cluster_size;
    4af2:	84 18       	sub	r8, r4
    4af4:	95 08       	sbc	r9, r5
    4af6:	a6 08       	sbc	r10, r6
    4af8:	b7 08       	sbc	r11, r7
                cluster_num = fat_get_next_cluster(fd->fs, cluster_num);
    4afa:	b7 01       	movw	r22, r14
    4afc:	0e 94 ef 1e 	call	0x3dde	; 0x3dde <fat_get_next_cluster>
    4b00:	7c 01       	movw	r14, r24
                if(!cluster_num)
    4b02:	89 2b       	or	r24, r25
    4b04:	09 f4       	brne	.+2      	; 0x4b08 <fat_read_file+0x190>
    4b06:	54 cf       	rjmp	.-344    	; 0x49b0 <fat_read_file+0x38>
    4b08:	d8 01       	movw	r26, r16
    4b0a:	8d 91       	ld	r24, X+
    4b0c:	9c 91       	ld	r25, X
            while(pos >= cluster_size)
    4b0e:	84 14       	cp	r8, r4
    4b10:	95 04       	cpc	r9, r5
    4b12:	a6 04       	cpc	r10, r6
    4b14:	b7 04       	cpc	r11, r7
    4b16:	68 f7       	brcc	.-38     	; 0x4af2 <fat_read_file+0x17a>
    4b18:	bd cf       	rjmp	.-134    	; 0x4a94 <fat_read_file+0x11c>
    4b1a:	42 01       	movw	r8, r4
    4b1c:	c5 cf       	rjmp	.-118    	; 0x4aa8 <fat_read_file+0x130>
        buffer += copy_length;
    4b1e:	ca 0c       	add	r12, r10
    4b20:	db 1c       	adc	r13, r11
        buffer_left -= copy_length;
    4b22:	24 01       	movw	r4, r8
    4b24:	4a 18       	sub	r4, r10
    4b26:	5b 08       	sbc	r5, r11
        fd->pos += copy_length;
    4b28:	f8 01       	movw	r30, r16
    4b2a:	85 a5       	ldd	r24, Z+45	; 0x2d
    4b2c:	96 a5       	ldd	r25, Z+46	; 0x2e
    4b2e:	a7 a5       	ldd	r26, Z+47	; 0x2f
    4b30:	b0 a9       	ldd	r27, Z+48	; 0x30
    4b32:	8a 0d       	add	r24, r10
    4b34:	9b 1d       	adc	r25, r11
    4b36:	a1 1d       	adc	r26, r1
    4b38:	b1 1d       	adc	r27, r1
    4b3a:	85 a7       	std	Z+45, r24	; 0x2d
    4b3c:	96 a7       	std	Z+46, r25	; 0x2e
    4b3e:	a7 a7       	std	Z+47, r26	; 0x2f
    4b40:	b0 ab       	std	Z+48, r27	; 0x30
        if(first_cluster_offset + copy_length >= cluster_size)
    4b42:	c3 01       	movw	r24, r6
    4b44:	8a 0d       	add	r24, r10
    4b46:	9b 1d       	adc	r25, r11
    4b48:	82 15       	cp	r24, r2
    4b4a:	93 05       	cpc	r25, r3
    4b4c:	a0 f0       	brcs	.+40     	; 0x4b76 <fat_read_file+0x1fe>
            if((cluster_num = fat_get_next_cluster(fd->fs, cluster_num)))
    4b4e:	b7 01       	movw	r22, r14
    4b50:	80 81       	ld	r24, Z
    4b52:	91 81       	ldd	r25, Z+1	; 0x01
    4b54:	0e 94 ef 1e 	call	0x3dde	; 0x3dde <fat_get_next_cluster>
    4b58:	7c 01       	movw	r14, r24
    4b5a:	89 2b       	or	r24, r25
    4b5c:	51 f4       	brne	.+20     	; 0x4b72 <fat_read_file+0x1fa>
                fd->pos_cluster = 0;
    4b5e:	d8 01       	movw	r26, r16
    4b60:	d2 96       	adiw	r26, 0x32	; 50
    4b62:	1c 92       	st	X, r1
    4b64:	1e 92       	st	-X, r1
    4b66:	d1 97       	sbiw	r26, 0x31	; 49
                return buffer_len - buffer_left;
    4b68:	eb 81       	ldd	r30, Y+3	; 0x03
    4b6a:	fc 81       	ldd	r31, Y+4	; 0x04
    4b6c:	ea 0d       	add	r30, r10
    4b6e:	fb 1d       	adc	r31, r11
    4b70:	bb cf       	rjmp	.-138    	; 0x4ae8 <fat_read_file+0x170>
                first_cluster_offset = 0;
    4b72:	71 2c       	mov	r7, r1
    4b74:	61 2c       	mov	r6, r1
        fd->pos_cluster = cluster_num;
    4b76:	d8 01       	movw	r26, r16
    4b78:	d2 96       	adiw	r26, 0x32	; 50
    4b7a:	fc 92       	st	X, r15
    4b7c:	ee 92       	st	-X, r14
    4b7e:	d1 97       	sbiw	r26, 0x31	; 49
    } while(buffer_left > 0); /* check if we are done */
    4b80:	41 14       	cp	r4, r1
    4b82:	51 04       	cpc	r5, r1
    4b84:	51 f6       	brne	.-108    	; 0x4b1a <fat_read_file+0x1a2>
    return buffer_len;
    4b86:	eb 81       	ldd	r30, Y+3	; 0x03
    4b88:	fc 81       	ldd	r31, Y+4	; 0x04
    4b8a:	b0 cf       	rjmp	.-160    	; 0x4aec <fat_read_file+0x174>
        return 0;
    4b8c:	1a 82       	std	Y+2, r1	; 0x02
    4b8e:	19 82       	std	Y+1, r1	; 0x01
    4b90:	13 cf       	rjmp	.-474    	; 0x49b8 <fat_read_file+0x40>

00004b92 <fat_write_file>:
{
    4b92:	2f 92       	push	r2
    4b94:	3f 92       	push	r3
    4b96:	4f 92       	push	r4
    4b98:	5f 92       	push	r5
    4b9a:	6f 92       	push	r6
    4b9c:	7f 92       	push	r7
    4b9e:	8f 92       	push	r8
    4ba0:	9f 92       	push	r9
    4ba2:	af 92       	push	r10
    4ba4:	bf 92       	push	r11
    4ba6:	cf 92       	push	r12
    4ba8:	df 92       	push	r13
    4baa:	ef 92       	push	r14
    4bac:	ff 92       	push	r15
    4bae:	0f 93       	push	r16
    4bb0:	1f 93       	push	r17
    4bb2:	cf 93       	push	r28
    4bb4:	df 93       	push	r29
    4bb6:	00 d0       	rcall	.+0      	; 0x4bb8 <fat_write_file+0x26>
    4bb8:	00 d0       	rcall	.+0      	; 0x4bba <fat_write_file+0x28>
    4bba:	cd b7       	in	r28, 0x3d	; 61
    4bbc:	de b7       	in	r29, 0x3e	; 62
    4bbe:	9c 83       	std	Y+4, r25	; 0x04
    4bc0:	8b 83       	std	Y+3, r24	; 0x03
    4bc2:	6b 01       	movw	r12, r22
    4bc4:	5a 83       	std	Y+2, r21	; 0x02
    4bc6:	49 83       	std	Y+1, r20	; 0x01
    if(!fd || !buffer || buffer_len < 1)
    4bc8:	89 2b       	or	r24, r25
    4bca:	c9 f4       	brne	.+50     	; 0x4bfe <fat_write_file+0x6c>
        return -1;
    4bcc:	8f ef       	ldi	r24, 0xFF	; 255
    4bce:	9f ef       	ldi	r25, 0xFF	; 255
}
    4bd0:	0f 90       	pop	r0
    4bd2:	0f 90       	pop	r0
    4bd4:	0f 90       	pop	r0
    4bd6:	0f 90       	pop	r0
    4bd8:	df 91       	pop	r29
    4bda:	cf 91       	pop	r28
    4bdc:	1f 91       	pop	r17
    4bde:	0f 91       	pop	r16
    4be0:	ff 90       	pop	r15
    4be2:	ef 90       	pop	r14
    4be4:	df 90       	pop	r13
    4be6:	cf 90       	pop	r12
    4be8:	bf 90       	pop	r11
    4bea:	af 90       	pop	r10
    4bec:	9f 90       	pop	r9
    4bee:	8f 90       	pop	r8
    4bf0:	7f 90       	pop	r7
    4bf2:	6f 90       	pop	r6
    4bf4:	5f 90       	pop	r5
    4bf6:	4f 90       	pop	r4
    4bf8:	3f 90       	pop	r3
    4bfa:	2f 90       	pop	r2
    4bfc:	08 95       	ret
    if(!fd || !buffer || buffer_len < 1)
    4bfe:	67 2b       	or	r22, r23
    4c00:	29 f3       	breq	.-54     	; 0x4bcc <fat_write_file+0x3a>
    4c02:	89 81       	ldd	r24, Y+1	; 0x01
    4c04:	9a 81       	ldd	r25, Y+2	; 0x02
    4c06:	89 2b       	or	r24, r25
    4c08:	09 f3       	breq	.-62     	; 0x4bcc <fat_write_file+0x3a>
    if(fd->pos > fd->dir_entry.file_size)
    4c0a:	ab 81       	ldd	r26, Y+3	; 0x03
    4c0c:	bc 81       	ldd	r27, Y+4	; 0x04
    4c0e:	9d 96       	adiw	r26, 0x2d	; 45
    4c10:	4d 91       	ld	r20, X+
    4c12:	5d 91       	ld	r21, X+
    4c14:	6d 91       	ld	r22, X+
    4c16:	7c 91       	ld	r23, X
    4c18:	d0 97       	sbiw	r26, 0x30	; 48
    4c1a:	95 96       	adiw	r26, 0x25	; 37
    4c1c:	8d 91       	ld	r24, X+
    4c1e:	9d 91       	ld	r25, X+
    4c20:	0d 90       	ld	r0, X+
    4c22:	bc 91       	ld	r27, X
    4c24:	a0 2d       	mov	r26, r0
    4c26:	84 17       	cp	r24, r20
    4c28:	95 07       	cpc	r25, r21
    4c2a:	a6 07       	cpc	r26, r22
    4c2c:	b7 07       	cpc	r27, r23
    4c2e:	70 f2       	brcs	.-100    	; 0x4bcc <fat_write_file+0x3a>
    uint16_t cluster_size = fd->fs->header.cluster_size;
    4c30:	eb 81       	ldd	r30, Y+3	; 0x03
    4c32:	fc 81       	ldd	r31, Y+4	; 0x04
    4c34:	80 81       	ld	r24, Z
    4c36:	91 81       	ldd	r25, Z+1	; 0x01
    4c38:	dc 01       	movw	r26, r24
    4c3a:	50 96       	adiw	r26, 0x10	; 16
    4c3c:	2d 90       	ld	r2, X+
    4c3e:	3c 90       	ld	r3, X
    cluster_t cluster_num = fd->pos_cluster;
    4c40:	01 a9       	ldd	r16, Z+49	; 0x31
    4c42:	12 a9       	ldd	r17, Z+50	; 0x32
    uint16_t first_cluster_offset = (uint16_t) (fd->pos & (cluster_size - 1));
    4c44:	71 01       	movw	r14, r2
    4c46:	b1 e0       	ldi	r27, 0x01	; 1
    4c48:	eb 1a       	sub	r14, r27
    4c4a:	f1 08       	sbc	r15, r1
    4c4c:	e4 22       	and	r14, r20
    4c4e:	f5 22       	and	r15, r21
    if(!cluster_num)
    4c50:	01 15       	cp	r16, r1
    4c52:	11 05       	cpc	r17, r1
    4c54:	59 f5       	brne	.+86     	; 0x4cac <fat_write_file+0x11a>
        cluster_num = fd->dir_entry.cluster;
    4c56:	03 a1       	ldd	r16, Z+35	; 0x23
    4c58:	14 a1       	ldd	r17, Z+36	; 0x24
        if(!cluster_num)
    4c5a:	01 15       	cp	r16, r1
    4c5c:	11 05       	cpc	r17, r1
    4c5e:	a9 f4       	brne	.+42     	; 0x4c8a <fat_write_file+0xf8>
            if(!fd->pos)
    4c60:	45 2b       	or	r20, r21
    4c62:	46 2b       	or	r20, r22
    4c64:	47 2b       	or	r20, r23
    4c66:	09 f0       	breq	.+2      	; 0x4c6a <fat_write_file+0xd8>
    4c68:	b1 cf       	rjmp	.-158    	; 0x4bcc <fat_write_file+0x3a>
                fd->dir_entry.cluster = cluster_num = fat_append_clusters(fd->fs, 0, 1);
    4c6a:	41 e0       	ldi	r20, 0x01	; 1
    4c6c:	50 e0       	ldi	r21, 0x00	; 0
    4c6e:	70 e0       	ldi	r23, 0x00	; 0
    4c70:	60 e0       	ldi	r22, 0x00	; 0
    4c72:	0e 94 9b 1f 	call	0x3f36	; 0x3f36 <fat_append_clusters>
    4c76:	8c 01       	movw	r16, r24
    4c78:	eb 81       	ldd	r30, Y+3	; 0x03
    4c7a:	fc 81       	ldd	r31, Y+4	; 0x04
    4c7c:	94 a3       	std	Z+36, r25	; 0x24
    4c7e:	83 a3       	std	Z+35, r24	; 0x23
                if(!cluster_num)
    4c80:	89 2b       	or	r24, r25
    4c82:	19 f4       	brne	.+6      	; 0x4c8a <fat_write_file+0xf8>
                    return 0;
    4c84:	90 e0       	ldi	r25, 0x00	; 0
    4c86:	80 e0       	ldi	r24, 0x00	; 0
    4c88:	a3 cf       	rjmp	.-186    	; 0x4bd0 <fat_write_file+0x3e>
        if(fd->pos)
    4c8a:	ab 81       	ldd	r26, Y+3	; 0x03
    4c8c:	bc 81       	ldd	r27, Y+4	; 0x04
    4c8e:	9d 96       	adiw	r26, 0x2d	; 45
    4c90:	8d 90       	ld	r8, X+
    4c92:	9d 90       	ld	r9, X+
    4c94:	ad 90       	ld	r10, X+
    4c96:	bc 90       	ld	r11, X
    4c98:	d0 97       	sbiw	r26, 0x30	; 48
            while(pos >= cluster_size)
    4c9a:	21 01       	movw	r4, r2
    4c9c:	71 2c       	mov	r7, r1
    4c9e:	61 2c       	mov	r6, r1
        if(fd->pos)
    4ca0:	81 14       	cp	r8, r1
    4ca2:	91 04       	cpc	r9, r1
    4ca4:	a1 04       	cpc	r10, r1
    4ca6:	b1 04       	cpc	r11, r1
    4ca8:	09 f0       	breq	.+2      	; 0x4cac <fat_write_file+0x11a>
    4caa:	9c c0       	rjmp	.+312    	; 0x4de4 <fat_write_file+0x252>
    4cac:	a9 80       	ldd	r10, Y+1	; 0x01
    4cae:	ba 80       	ldd	r11, Y+2	; 0x02
        offset_t cluster_offset = fat_cluster_offset(fd->fs, cluster_num) + first_cluster_offset;
    4cb0:	eb 81       	ldd	r30, Y+3	; 0x03
    4cb2:	fc 81       	ldd	r31, Y+4	; 0x04
    4cb4:	60 80       	ld	r6, Z
    4cb6:	71 80       	ldd	r7, Z+1	; 0x01
    4cb8:	b8 01       	movw	r22, r16
    4cba:	c3 01       	movw	r24, r6
    4cbc:	0e 94 7d 20 	call	0x40fa	; 0x40fa <fat_cluster_offset>
        uint16_t write_length = cluster_size - first_cluster_offset;
    4cc0:	91 01       	movw	r18, r2
    4cc2:	2e 19       	sub	r18, r14
    4cc4:	3f 09       	sbc	r19, r15
        if(write_length > buffer_left)
    4cc6:	45 01       	movw	r8, r10
    4cc8:	2a 15       	cp	r18, r10
    4cca:	3b 05       	cpc	r19, r11
    4ccc:	08 f4       	brcc	.+2      	; 0x4cd0 <fat_write_file+0x13e>
    4cce:	49 01       	movw	r8, r18
        offset_t cluster_offset = fat_cluster_offset(fd->fs, cluster_num) + first_cluster_offset;
    4cd0:	6e 0d       	add	r22, r14
    4cd2:	7f 1d       	adc	r23, r15
    4cd4:	81 1d       	adc	r24, r1
    4cd6:	91 1d       	adc	r25, r1
        if(!fd->fs->partition->device_write(cluster_offset, buffer, write_length))
    4cd8:	d3 01       	movw	r26, r6
    4cda:	ed 91       	ld	r30, X+
    4cdc:	fc 91       	ld	r31, X
    4cde:	04 80       	ldd	r0, Z+4	; 0x04
    4ce0:	f5 81       	ldd	r31, Z+5	; 0x05
    4ce2:	e0 2d       	mov	r30, r0
    4ce4:	94 01       	movw	r18, r8
    4ce6:	a6 01       	movw	r20, r12
    4ce8:	09 95       	icall
    4cea:	88 23       	and	r24, r24
    4cec:	a9 f1       	breq	.+106    	; 0x4d58 <fat_write_file+0x1c6>
        buffer += write_length;
    4cee:	c8 0c       	add	r12, r8
    4cf0:	d9 1c       	adc	r13, r9
        buffer_left -= write_length;
    4cf2:	a8 18       	sub	r10, r8
    4cf4:	b9 08       	sbc	r11, r9
        fd->pos += write_length;
    4cf6:	eb 81       	ldd	r30, Y+3	; 0x03
    4cf8:	fc 81       	ldd	r31, Y+4	; 0x04
    4cfa:	85 a5       	ldd	r24, Z+45	; 0x2d
    4cfc:	96 a5       	ldd	r25, Z+46	; 0x2e
    4cfe:	a7 a5       	ldd	r26, Z+47	; 0x2f
    4d00:	b0 a9       	ldd	r27, Z+48	; 0x30
    4d02:	88 0d       	add	r24, r8
    4d04:	99 1d       	adc	r25, r9
    4d06:	a1 1d       	adc	r26, r1
    4d08:	b1 1d       	adc	r27, r1
    4d0a:	85 a7       	std	Z+45, r24	; 0x2d
    4d0c:	96 a7       	std	Z+46, r25	; 0x2e
    4d0e:	a7 a7       	std	Z+47, r26	; 0x2f
    4d10:	b0 ab       	std	Z+48, r27	; 0x30
        if(first_cluster_offset + write_length >= cluster_size)
    4d12:	8e 0c       	add	r8, r14
    4d14:	9f 1c       	adc	r9, r15
    4d16:	82 14       	cp	r8, r2
    4d18:	93 04       	cpc	r9, r3
    4d1a:	08 f4       	brcc	.+2      	; 0x4d1e <fat_write_file+0x18c>
    4d1c:	72 c0       	rjmp	.+228    	; 0x4e02 <fat_write_file+0x270>
            cluster_t cluster_num_next = fat_get_next_cluster(fd->fs, cluster_num);
    4d1e:	b8 01       	movw	r22, r16
    4d20:	80 81       	ld	r24, Z
    4d22:	91 81       	ldd	r25, Z+1	; 0x01
    4d24:	0e 94 ef 1e 	call	0x3dde	; 0x3dde <fat_get_next_cluster>
    4d28:	7c 01       	movw	r14, r24
            if(!cluster_num_next && buffer_left > 0)
    4d2a:	00 97       	sbiw	r24, 0x00	; 0
    4d2c:	09 f0       	breq	.+2      	; 0x4d30 <fat_write_file+0x19e>
    4d2e:	66 c0       	rjmp	.+204    	; 0x4dfc <fat_write_file+0x26a>
    4d30:	a1 14       	cp	r10, r1
    4d32:	b1 04       	cpc	r11, r1
    4d34:	69 f0       	breq	.+26     	; 0x4d50 <fat_write_file+0x1be>
                cluster_num_next = fat_append_clusters(fd->fs, cluster_num, 1);
    4d36:	41 e0       	ldi	r20, 0x01	; 1
    4d38:	50 e0       	ldi	r21, 0x00	; 0
    4d3a:	b8 01       	movw	r22, r16
    4d3c:	ab 81       	ldd	r26, Y+3	; 0x03
    4d3e:	bc 81       	ldd	r27, Y+4	; 0x04
    4d40:	8d 91       	ld	r24, X+
    4d42:	9c 91       	ld	r25, X
    4d44:	0e 94 9b 1f 	call	0x3f36	; 0x3f36 <fat_append_clusters>
    4d48:	8c 01       	movw	r16, r24
            if(!cluster_num_next)
    4d4a:	89 2b       	or	r24, r25
    4d4c:	09 f0       	breq	.+2      	; 0x4d50 <fat_write_file+0x1be>
    4d4e:	59 c0       	rjmp	.+178    	; 0x4e02 <fat_write_file+0x270>
                fd->pos_cluster = 0;
    4d50:	eb 81       	ldd	r30, Y+3	; 0x03
    4d52:	fc 81       	ldd	r31, Y+4	; 0x04
    4d54:	12 aa       	std	Z+50, r1	; 0x32
    4d56:	11 aa       	std	Z+49, r1	; 0x31
    if(fd->pos > fd->dir_entry.file_size)
    4d58:	eb 81       	ldd	r30, Y+3	; 0x03
    4d5a:	fc 81       	ldd	r31, Y+4	; 0x04
    4d5c:	85 a5       	ldd	r24, Z+45	; 0x2d
    4d5e:	96 a5       	ldd	r25, Z+46	; 0x2e
    4d60:	a7 a5       	ldd	r26, Z+47	; 0x2f
    4d62:	b0 a9       	ldd	r27, Z+48	; 0x30
    4d64:	c5 a0       	ldd	r12, Z+37	; 0x25
    4d66:	d6 a0       	ldd	r13, Z+38	; 0x26
    4d68:	e7 a0       	ldd	r14, Z+39	; 0x27
    4d6a:	f0 a4       	ldd	r15, Z+40	; 0x28
    4d6c:	c8 16       	cp	r12, r24
    4d6e:	d9 06       	cpc	r13, r25
    4d70:	ea 06       	cpc	r14, r26
    4d72:	fb 06       	cpc	r15, r27
    4d74:	b0 f4       	brcc	.+44     	; 0x4da2 <fat_write_file+0x210>
        fd->dir_entry.file_size = fd->pos;
    4d76:	85 a3       	std	Z+37, r24	; 0x25
    4d78:	96 a3       	std	Z+38, r25	; 0x26
    4d7a:	a7 a3       	std	Z+39, r26	; 0x27
    4d7c:	b0 a7       	std	Z+40, r27	; 0x28
        if(!fat_write_dir_entry(fd->fs, &fd->dir_entry))
    4d7e:	df 01       	movw	r26, r30
    4d80:	8d 91       	ld	r24, X+
    4d82:	9d 91       	ld	r25, X+
    4d84:	bd 01       	movw	r22, r26
    4d86:	0e 94 ab 21 	call	0x4356	; 0x4356 <fat_write_dir_entry>
    4d8a:	81 11       	cpse	r24, r1
    4d8c:	0a c0       	rjmp	.+20     	; 0x4da2 <fat_write_file+0x210>
            buffer_left = fd->pos - size_old;
    4d8e:	eb 81       	ldd	r30, Y+3	; 0x03
    4d90:	fc 81       	ldd	r31, Y+4	; 0x04
    4d92:	a5 a4       	ldd	r10, Z+45	; 0x2d
    4d94:	b6 a4       	ldd	r11, Z+46	; 0x2e
    4d96:	ac 18       	sub	r10, r12
    4d98:	bd 08       	sbc	r11, r13
            fd->pos = size_old;
    4d9a:	c5 a6       	std	Z+45, r12	; 0x2d
    4d9c:	d6 a6       	std	Z+46, r13	; 0x2e
    4d9e:	e7 a6       	std	Z+47, r14	; 0x2f
    4da0:	f0 aa       	std	Z+48, r15	; 0x30
    return buffer_len - buffer_left;
    4da2:	89 81       	ldd	r24, Y+1	; 0x01
    4da4:	9a 81       	ldd	r25, Y+2	; 0x02
    4da6:	8a 19       	sub	r24, r10
    4da8:	9b 09       	sbc	r25, r11
    4daa:	12 cf       	rjmp	.-476    	; 0x4bd0 <fat_write_file+0x3e>
                pos -= cluster_size;
    4dac:	84 18       	sub	r8, r4
    4dae:	95 08       	sbc	r9, r5
    4db0:	a6 08       	sbc	r10, r6
    4db2:	b7 08       	sbc	r11, r7
                cluster_num_next = fat_get_next_cluster(fd->fs, cluster_num);
    4db4:	b8 01       	movw	r22, r16
    4db6:	0e 94 ef 1e 	call	0x3dde	; 0x3dde <fat_get_next_cluster>
                if(!cluster_num_next)
    4dba:	00 97       	sbiw	r24, 0x00	; 0
    4dbc:	e9 f4       	brne	.+58     	; 0x4df8 <fat_write_file+0x266>
                    if(pos != 0)
    4dbe:	81 14       	cp	r8, r1
    4dc0:	91 04       	cpc	r9, r1
    4dc2:	a1 04       	cpc	r10, r1
    4dc4:	b1 04       	cpc	r11, r1
    4dc6:	09 f0       	breq	.+2      	; 0x4dca <fat_write_file+0x238>
    4dc8:	01 cf       	rjmp	.-510    	; 0x4bcc <fat_write_file+0x3a>
                    cluster_num_next = fat_append_clusters(fd->fs, cluster_num, 1);
    4dca:	41 e0       	ldi	r20, 0x01	; 1
    4dcc:	50 e0       	ldi	r21, 0x00	; 0
    4dce:	b8 01       	movw	r22, r16
    4dd0:	eb 81       	ldd	r30, Y+3	; 0x03
    4dd2:	fc 81       	ldd	r31, Y+4	; 0x04
    4dd4:	80 81       	ld	r24, Z
    4dd6:	91 81       	ldd	r25, Z+1	; 0x01
    4dd8:	0e 94 9b 1f 	call	0x3f36	; 0x3f36 <fat_append_clusters>
    4ddc:	8c 01       	movw	r16, r24
                    if(!cluster_num_next)
    4dde:	89 2b       	or	r24, r25
    4de0:	09 f4       	brne	.+2      	; 0x4de4 <fat_write_file+0x252>
    4de2:	50 cf       	rjmp	.-352    	; 0x4c84 <fat_write_file+0xf2>
    4de4:	ab 81       	ldd	r26, Y+3	; 0x03
    4de6:	bc 81       	ldd	r27, Y+4	; 0x04
    4de8:	8d 91       	ld	r24, X+
    4dea:	9c 91       	ld	r25, X
            while(pos >= cluster_size)
    4dec:	84 14       	cp	r8, r4
    4dee:	95 04       	cpc	r9, r5
    4df0:	a6 04       	cpc	r10, r6
    4df2:	b7 04       	cpc	r11, r7
    4df4:	d8 f6       	brcc	.-74     	; 0x4dac <fat_write_file+0x21a>
    4df6:	5a cf       	rjmp	.-332    	; 0x4cac <fat_write_file+0x11a>
    4df8:	8c 01       	movw	r16, r24
    4dfa:	f4 cf       	rjmp	.-24     	; 0x4de4 <fat_write_file+0x252>
    4dfc:	8c 01       	movw	r16, r24
            first_cluster_offset = 0;
    4dfe:	f1 2c       	mov	r15, r1
    4e00:	e1 2c       	mov	r14, r1
        fd->pos_cluster = cluster_num;
    4e02:	ab 81       	ldd	r26, Y+3	; 0x03
    4e04:	bc 81       	ldd	r27, Y+4	; 0x04
    4e06:	d2 96       	adiw	r26, 0x32	; 50
    4e08:	1c 93       	st	X, r17
    4e0a:	0e 93       	st	-X, r16
    4e0c:	d1 97       	sbiw	r26, 0x31	; 49
    } while(buffer_left > 0); /* check if we are done */
    4e0e:	a1 14       	cp	r10, r1
    4e10:	b1 04       	cpc	r11, r1
    4e12:	09 f0       	breq	.+2      	; 0x4e16 <fat_write_file+0x284>
    4e14:	4d cf       	rjmp	.-358    	; 0x4cb0 <fat_write_file+0x11e>
    4e16:	a0 cf       	rjmp	.-192    	; 0x4d58 <fat_write_file+0x1c6>

00004e18 <fat_resize_file>:
{
    4e18:	2f 92       	push	r2
    4e1a:	3f 92       	push	r3
    4e1c:	4f 92       	push	r4
    4e1e:	5f 92       	push	r5
    4e20:	6f 92       	push	r6
    4e22:	7f 92       	push	r7
    4e24:	8f 92       	push	r8
    4e26:	9f 92       	push	r9
    4e28:	af 92       	push	r10
    4e2a:	bf 92       	push	r11
    4e2c:	cf 92       	push	r12
    4e2e:	df 92       	push	r13
    4e30:	ef 92       	push	r14
    4e32:	ff 92       	push	r15
    4e34:	0f 93       	push	r16
    4e36:	1f 93       	push	r17
    4e38:	cf 93       	push	r28
    4e3a:	df 93       	push	r29
    4e3c:	00 d0       	rcall	.+0      	; 0x4e3e <fat_resize_file+0x26>
    4e3e:	cd b7       	in	r28, 0x3d	; 61
    4e40:	de b7       	in	r29, 0x3e	; 62
    4e42:	1c 01       	movw	r2, r24
    4e44:	4a 01       	movw	r8, r20
    4e46:	5b 01       	movw	r10, r22
    if(!fd)
    4e48:	00 97       	sbiw	r24, 0x00	; 0
    4e4a:	b1 f4       	brne	.+44     	; 0x4e78 <fat_resize_file+0x60>
        return 0;
    4e4c:	80 e0       	ldi	r24, 0x00	; 0
}
    4e4e:	0f 90       	pop	r0
    4e50:	0f 90       	pop	r0
    4e52:	df 91       	pop	r29
    4e54:	cf 91       	pop	r28
    4e56:	1f 91       	pop	r17
    4e58:	0f 91       	pop	r16
    4e5a:	ff 90       	pop	r15
    4e5c:	ef 90       	pop	r14
    4e5e:	df 90       	pop	r13
    4e60:	cf 90       	pop	r12
    4e62:	bf 90       	pop	r11
    4e64:	af 90       	pop	r10
    4e66:	9f 90       	pop	r9
    4e68:	8f 90       	pop	r8
    4e6a:	7f 90       	pop	r7
    4e6c:	6f 90       	pop	r6
    4e6e:	5f 90       	pop	r5
    4e70:	4f 90       	pop	r4
    4e72:	3f 90       	pop	r3
    4e74:	2f 90       	pop	r2
    4e76:	08 95       	ret
    cluster_t cluster_num = fd->dir_entry.cluster;
    4e78:	dc 01       	movw	r26, r24
    4e7a:	93 96       	adiw	r26, 0x23	; 35
    4e7c:	0d 91       	ld	r16, X+
    4e7e:	1c 91       	ld	r17, X
        if(cluster_num == 0 && size_new == 0)
    4e80:	01 15       	cp	r16, r1
    4e82:	11 05       	cpc	r17, r1
    4e84:	31 f4       	brne	.+12     	; 0x4e92 <fat_resize_file+0x7a>
    4e86:	81 14       	cp	r8, r1
    4e88:	91 04       	cpc	r9, r1
    4e8a:	a1 04       	cpc	r10, r1
    4e8c:	b1 04       	cpc	r11, r1
    4e8e:	09 f4       	brne	.+2      	; 0x4e92 <fat_resize_file+0x7a>
    4e90:	58 c0       	rjmp	.+176    	; 0x4f42 <fat_resize_file+0x12a>
    uint16_t cluster_size = fd->fs->header.cluster_size;
    4e92:	d1 01       	movw	r26, r2
    4e94:	ed 91       	ld	r30, X+
    4e96:	fc 91       	ld	r31, X
    4e98:	c0 88       	ldd	r12, Z+16	; 0x10
    4e9a:	d1 88       	ldd	r13, Z+17	; 0x11
    4e9c:	24 01       	movw	r4, r8
    4e9e:	35 01       	movw	r6, r10
        while(size_new > cluster_size)
    4ea0:	f1 2c       	mov	r15, r1
    4ea2:	e1 2c       	mov	r14, r1
    4ea4:	f1 01       	movw	r30, r2
    4ea6:	80 81       	ld	r24, Z
    4ea8:	91 81       	ldd	r25, Z+1	; 0x01
    4eaa:	c4 14       	cp	r12, r4
    4eac:	d5 04       	cpc	r13, r5
    4eae:	e6 04       	cpc	r14, r6
    4eb0:	f7 04       	cpc	r15, r7
    4eb2:	08 f4       	brcc	.+2      	; 0x4eb6 <fat_resize_file+0x9e>
    4eb4:	58 c0       	rjmp	.+176    	; 0x4f66 <fat_resize_file+0x14e>
        if(size_new > cluster_size || cluster_num == 0)
    4eb6:	01 15       	cp	r16, r1
    4eb8:	11 05       	cpc	r17, r1
    4eba:	f9 f4       	brne	.+62     	; 0x4efa <fat_resize_file+0xe2>
            cluster_t cluster_count = (size_new + cluster_size - 1) / cluster_size;
    4ebc:	c7 01       	movw	r24, r14
    4ebe:	b6 01       	movw	r22, r12
    4ec0:	64 0d       	add	r22, r4
    4ec2:	75 1d       	adc	r23, r5
    4ec4:	86 1d       	adc	r24, r6
    4ec6:	97 1d       	adc	r25, r7
    4ec8:	61 50       	subi	r22, 0x01	; 1
    4eca:	71 09       	sbc	r23, r1
    4ecc:	81 09       	sbc	r24, r1
    4ece:	91 09       	sbc	r25, r1
    4ed0:	a7 01       	movw	r20, r14
    4ed2:	96 01       	movw	r18, r12
    4ed4:	0e 94 5c 2f 	call	0x5eb8	; 0x5eb8 <__udivmodsi4>
            cluster_t cluster_new_chain = fat_append_clusters(fd->fs, cluster_num, cluster_count);
    4ed8:	a9 01       	movw	r20, r18
    4eda:	b8 01       	movw	r22, r16
    4edc:	d1 01       	movw	r26, r2
    4ede:	8d 91       	ld	r24, X+
    4ee0:	9c 91       	ld	r25, X
    4ee2:	0e 94 9b 1f 	call	0x3f36	; 0x3f36 <fat_append_clusters>
            if(!cluster_new_chain)
    4ee6:	00 97       	sbiw	r24, 0x00	; 0
    4ee8:	09 f4       	brne	.+2      	; 0x4eec <fat_resize_file+0xd4>
    4eea:	b0 cf       	rjmp	.-160    	; 0x4e4c <fat_resize_file+0x34>
            if(!cluster_num)
    4eec:	01 15       	cp	r16, r1
    4eee:	11 05       	cpc	r17, r1
    4ef0:	21 f4       	brne	.+8      	; 0x4efa <fat_resize_file+0xe2>
                fd->dir_entry.cluster = cluster_num;
    4ef2:	f1 01       	movw	r30, r2
    4ef4:	94 a3       	std	Z+36, r25	; 0x24
    4ef6:	83 a3       	std	Z+35, r24	; 0x23
    4ef8:	8c 01       	movw	r16, r24
        fd->dir_entry.file_size = size;
    4efa:	d1 01       	movw	r26, r2
    4efc:	95 96       	adiw	r26, 0x25	; 37
    4efe:	8d 92       	st	X+, r8
    4f00:	9d 92       	st	X+, r9
    4f02:	ad 92       	st	X+, r10
    4f04:	bc 92       	st	X, r11
    4f06:	98 97       	sbiw	r26, 0x28	; 40
        if(size == 0)
    4f08:	81 14       	cp	r8, r1
    4f0a:	91 04       	cpc	r9, r1
    4f0c:	a1 04       	cpc	r10, r1
    4f0e:	b1 04       	cpc	r11, r1
    4f10:	21 f4       	brne	.+8      	; 0x4f1a <fat_resize_file+0x102>
            fd->dir_entry.cluster = 0;
    4f12:	94 96       	adiw	r26, 0x24	; 36
    4f14:	1c 92       	st	X, r1
    4f16:	1e 92       	st	-X, r1
    4f18:	93 97       	sbiw	r26, 0x23	; 35
        if(!fat_write_dir_entry(fd->fs, &fd->dir_entry))
    4f1a:	f1 01       	movw	r30, r2
    4f1c:	81 91       	ld	r24, Z+
    4f1e:	91 91       	ld	r25, Z+
    4f20:	bf 01       	movw	r22, r30
    4f22:	0e 94 ab 21 	call	0x4356	; 0x4356 <fat_write_dir_entry>
    4f26:	88 23       	and	r24, r24
    4f28:	09 f4       	brne	.+2      	; 0x4f2c <fat_resize_file+0x114>
    4f2a:	90 cf       	rjmp	.-224    	; 0x4e4c <fat_resize_file+0x34>
        if(size == 0)
    4f2c:	81 14       	cp	r8, r1
    4f2e:	91 04       	cpc	r9, r1
    4f30:	a1 04       	cpc	r10, r1
    4f32:	b1 04       	cpc	r11, r1
    4f34:	21 f5       	brne	.+72     	; 0x4f7e <fat_resize_file+0x166>
            fat_free_clusters(fd->fs, cluster_num);
    4f36:	b8 01       	movw	r22, r16
    4f38:	d1 01       	movw	r26, r2
    4f3a:	8d 91       	ld	r24, X+
    4f3c:	9c 91       	ld	r25, X
        return fat_free_clusters(fs, cluster_num_next);
    4f3e:	0e 94 29 1f 	call	0x3e52	; 0x3e52 <fat_free_clusters>
    if(size < fd->pos)
    4f42:	f1 01       	movw	r30, r2
    4f44:	85 a5       	ldd	r24, Z+45	; 0x2d
    4f46:	96 a5       	ldd	r25, Z+46	; 0x2e
    4f48:	a7 a5       	ldd	r26, Z+47	; 0x2f
    4f4a:	b0 a9       	ldd	r27, Z+48	; 0x30
    4f4c:	88 16       	cp	r8, r24
    4f4e:	99 06       	cpc	r9, r25
    4f50:	aa 06       	cpc	r10, r26
    4f52:	bb 06       	cpc	r11, r27
    4f54:	30 f4       	brcc	.+12     	; 0x4f62 <fat_resize_file+0x14a>
        fd->pos = size;
    4f56:	85 a6       	std	Z+45, r8	; 0x2d
    4f58:	96 a6       	std	Z+46, r9	; 0x2e
    4f5a:	a7 a6       	std	Z+47, r10	; 0x2f
    4f5c:	b0 aa       	std	Z+48, r11	; 0x30
        fd->pos_cluster = 0;
    4f5e:	12 aa       	std	Z+50, r1	; 0x32
    4f60:	11 aa       	std	Z+49, r1	; 0x31
    return 1;
    4f62:	81 e0       	ldi	r24, 0x01	; 1
    4f64:	74 cf       	rjmp	.-280    	; 0x4e4e <fat_resize_file+0x36>
            cluster_t cluster_num_next = fat_get_next_cluster(fd->fs, cluster_num);
    4f66:	b8 01       	movw	r22, r16
    4f68:	0e 94 ef 1e 	call	0x3dde	; 0x3dde <fat_get_next_cluster>
            if(cluster_num_next)
    4f6c:	00 97       	sbiw	r24, 0x00	; 0
    4f6e:	09 f4       	brne	.+2      	; 0x4f72 <fat_resize_file+0x15a>
    4f70:	a5 cf       	rjmp	.-182    	; 0x4ebc <fat_resize_file+0xa4>
                size_new -= cluster_size;
    4f72:	4c 18       	sub	r4, r12
    4f74:	5d 08       	sbc	r5, r13
    4f76:	6e 08       	sbc	r6, r14
    4f78:	7f 08       	sbc	r7, r15
    4f7a:	8c 01       	movw	r16, r24
    4f7c:	93 cf       	rjmp	.-218    	; 0x4ea4 <fat_resize_file+0x8c>
        else if(size_new <= cluster_size)
    4f7e:	c4 14       	cp	r12, r4
    4f80:	d5 04       	cpc	r13, r5
    4f82:	e6 04       	cpc	r14, r6
    4f84:	f7 04       	cpc	r15, r7
    4f86:	e8 f2       	brcs	.-70     	; 0x4f42 <fat_resize_file+0x12a>
            fat_terminate_clusters(fd->fs, cluster_num);
    4f88:	f1 01       	movw	r30, r2
    4f8a:	e0 80       	ld	r14, Z
    4f8c:	f1 80       	ldd	r15, Z+1	; 0x01
    if(!fs || cluster_num < 2)
    4f8e:	e1 14       	cp	r14, r1
    4f90:	f1 04       	cpc	r15, r1
    4f92:	b9 f2       	breq	.-82     	; 0x4f42 <fat_resize_file+0x12a>
    4f94:	02 30       	cpi	r16, 0x02	; 2
    4f96:	11 05       	cpc	r17, r1
    4f98:	a0 f2       	brcs	.-88     	; 0x4f42 <fat_resize_file+0x12a>
    cluster_t cluster_num_next = fat_get_next_cluster(fs, cluster_num);
    4f9a:	b8 01       	movw	r22, r16
    4f9c:	c7 01       	movw	r24, r14
    4f9e:	0e 94 ef 1e 	call	0x3dde	; 0x3dde <fat_get_next_cluster>
    4fa2:	6c 01       	movw	r12, r24
        uint16_t fat_entry = HTOL16(FAT16_CLUSTER_LAST_MAX);
    4fa4:	8f ef       	ldi	r24, 0xFF	; 255
    4fa6:	9f ef       	ldi	r25, 0xFF	; 255
    4fa8:	9a 83       	std	Y+2, r25	; 0x02
    4faa:	89 83       	std	Y+1, r24	; 0x01
        if(!fs->partition->device_write(fs->header.fat_offset + (offset_t) cluster_num * sizeof(fat_entry), (uint8_t*) &fat_entry, sizeof(fat_entry)))
    4fac:	30 e0       	ldi	r19, 0x00	; 0
    4fae:	20 e0       	ldi	r18, 0x00	; 0
    4fb0:	c9 01       	movw	r24, r18
    4fb2:	b8 01       	movw	r22, r16
    4fb4:	66 0f       	add	r22, r22
    4fb6:	77 1f       	adc	r23, r23
    4fb8:	88 1f       	adc	r24, r24
    4fba:	99 1f       	adc	r25, r25
    4fbc:	d7 01       	movw	r26, r14
    4fbe:	16 96       	adiw	r26, 0x06	; 6
    4fc0:	0d 91       	ld	r16, X+
    4fc2:	1d 91       	ld	r17, X+
    4fc4:	2d 91       	ld	r18, X+
    4fc6:	3c 91       	ld	r19, X
    4fc8:	19 97       	sbiw	r26, 0x09	; 9
    4fca:	60 0f       	add	r22, r16
    4fcc:	71 1f       	adc	r23, r17
    4fce:	82 1f       	adc	r24, r18
    4fd0:	93 1f       	adc	r25, r19
    4fd2:	ed 91       	ld	r30, X+
    4fd4:	fc 91       	ld	r31, X
    4fd6:	04 80       	ldd	r0, Z+4	; 0x04
    4fd8:	f5 81       	ldd	r31, Z+5	; 0x05
    4fda:	e0 2d       	mov	r30, r0
    4fdc:	22 e0       	ldi	r18, 0x02	; 2
    4fde:	30 e0       	ldi	r19, 0x00	; 0
    4fe0:	ae 01       	movw	r20, r28
    4fe2:	4f 5f       	subi	r20, 0xFF	; 255
    4fe4:	5f 4f       	sbci	r21, 0xFF	; 255
    4fe6:	09 95       	icall
    4fe8:	88 23       	and	r24, r24
    4fea:	09 f4       	brne	.+2      	; 0x4fee <fat_resize_file+0x1d6>
    4fec:	aa cf       	rjmp	.-172    	; 0x4f42 <fat_resize_file+0x12a>
    if(cluster_num_next)
    4fee:	c1 14       	cp	r12, r1
    4ff0:	d1 04       	cpc	r13, r1
    4ff2:	09 f4       	brne	.+2      	; 0x4ff6 <fat_resize_file+0x1de>
    4ff4:	a6 cf       	rjmp	.-180    	; 0x4f42 <fat_resize_file+0x12a>
        return fat_free_clusters(fs, cluster_num_next);
    4ff6:	b6 01       	movw	r22, r12
    4ff8:	c7 01       	movw	r24, r14
    4ffa:	a1 cf       	rjmp	.-190    	; 0x4f3e <fat_resize_file+0x126>

00004ffc <fat_seek_file>:
{
    4ffc:	cf 92       	push	r12
    4ffe:	df 92       	push	r13
    5000:	ef 92       	push	r14
    5002:	ff 92       	push	r15
    5004:	0f 93       	push	r16
    5006:	1f 93       	push	r17
    5008:	cf 93       	push	r28
    500a:	df 93       	push	r29
    500c:	ec 01       	movw	r28, r24
    500e:	8b 01       	movw	r16, r22
    if(!fd || !offset)
    5010:	89 2b       	or	r24, r25
    5012:	51 f4       	brne	.+20     	; 0x5028 <fat_seek_file+0x2c>
            return 0;
    5014:	80 e0       	ldi	r24, 0x00	; 0
}
    5016:	df 91       	pop	r29
    5018:	cf 91       	pop	r28
    501a:	1f 91       	pop	r17
    501c:	0f 91       	pop	r16
    501e:	ff 90       	pop	r15
    5020:	ef 90       	pop	r14
    5022:	df 90       	pop	r13
    5024:	cf 90       	pop	r12
    5026:	08 95       	ret
    if(!fd || !offset)
    5028:	61 15       	cp	r22, r1
    502a:	71 05       	cpc	r23, r1
    502c:	99 f3       	breq	.-26     	; 0x5014 <fat_seek_file+0x18>
    switch(whence)
    502e:	41 30       	cpi	r20, 0x01	; 1
    5030:	21 f1       	breq	.+72     	; 0x507a <fat_seek_file+0x7e>
    5032:	44 23       	and	r20, r20
    5034:	39 f0       	breq	.+14     	; 0x5044 <fat_seek_file+0x48>
    5036:	42 30       	cpi	r20, 0x02	; 2
    5038:	69 f7       	brne	.-38     	; 0x5014 <fat_seek_file+0x18>
            new_pos = fd->dir_entry.file_size + *offset;
    503a:	cd a0       	ldd	r12, Y+37	; 0x25
    503c:	de a0       	ldd	r13, Y+38	; 0x26
    503e:	ef a0       	ldd	r14, Y+39	; 0x27
    5040:	f8 a4       	ldd	r15, Y+40	; 0x28
    5042:	1f c0       	rjmp	.+62     	; 0x5082 <fat_seek_file+0x86>
            new_pos = *offset;
    5044:	fb 01       	movw	r30, r22
    5046:	c0 80       	ld	r12, Z
    5048:	d1 80       	ldd	r13, Z+1	; 0x01
    504a:	e2 80       	ldd	r14, Z+2	; 0x02
    504c:	f3 80       	ldd	r15, Z+3	; 0x03
    if(new_pos > fd->dir_entry.file_size
    504e:	8d a1       	ldd	r24, Y+37	; 0x25
    5050:	9e a1       	ldd	r25, Y+38	; 0x26
    5052:	af a1       	ldd	r26, Y+39	; 0x27
    5054:	b8 a5       	ldd	r27, Y+40	; 0x28
    5056:	8c 15       	cp	r24, r12
    5058:	9d 05       	cpc	r25, r13
    505a:	ae 05       	cpc	r26, r14
    505c:	bf 05       	cpc	r27, r15
    505e:	d8 f0       	brcs	.+54     	; 0x5096 <fat_seek_file+0x9a>
    fd->pos = new_pos;
    5060:	cd a6       	std	Y+45, r12	; 0x2d
    5062:	de a6       	std	Y+46, r13	; 0x2e
    5064:	ef a6       	std	Y+47, r14	; 0x2f
    5066:	f8 aa       	std	Y+48, r15	; 0x30
    fd->pos_cluster = 0;
    5068:	1a aa       	std	Y+50, r1	; 0x32
    506a:	19 aa       	std	Y+49, r1	; 0x31
    *offset = (int32_t) new_pos;
    506c:	f8 01       	movw	r30, r16
    506e:	c0 82       	st	Z, r12
    5070:	d1 82       	std	Z+1, r13	; 0x01
    5072:	e2 82       	std	Z+2, r14	; 0x02
    5074:	f3 82       	std	Z+3, r15	; 0x03
    return 1;
    5076:	81 e0       	ldi	r24, 0x01	; 1
    5078:	ce cf       	rjmp	.-100    	; 0x5016 <fat_seek_file+0x1a>
    uint32_t new_pos = fd->pos;
    507a:	cd a4       	ldd	r12, Y+45	; 0x2d
    507c:	de a4       	ldd	r13, Y+46	; 0x2e
    507e:	ef a4       	ldd	r14, Y+47	; 0x2f
    5080:	f8 a8       	ldd	r15, Y+48	; 0x30
            new_pos = fd->dir_entry.file_size + *offset;
    5082:	f8 01       	movw	r30, r16
    5084:	80 81       	ld	r24, Z
    5086:	91 81       	ldd	r25, Z+1	; 0x01
    5088:	a2 81       	ldd	r26, Z+2	; 0x02
    508a:	b3 81       	ldd	r27, Z+3	; 0x03
    508c:	c8 0e       	add	r12, r24
    508e:	d9 1e       	adc	r13, r25
    5090:	ea 1e       	adc	r14, r26
    5092:	fb 1e       	adc	r15, r27
            break;
    5094:	dc cf       	rjmp	.-72     	; 0x504e <fat_seek_file+0x52>
       && !fat_resize_file(fd, new_pos)
    5096:	b7 01       	movw	r22, r14
    5098:	a6 01       	movw	r20, r12
    509a:	ce 01       	movw	r24, r28
    509c:	0e 94 0c 27 	call	0x4e18	; 0x4e18 <fat_resize_file>
    50a0:	81 11       	cpse	r24, r1
    50a2:	de cf       	rjmp	.-68     	; 0x5060 <fat_seek_file+0x64>
    50a4:	b7 cf       	rjmp	.-146    	; 0x5014 <fat_seek_file+0x18>

000050a6 <fat_open_dir>:
{
    50a6:	cf 93       	push	r28
    50a8:	df 93       	push	r29
    if(!fs || !dir_entry || !(dir_entry->attributes & FAT_ATTRIB_DIR))
    50aa:	00 97       	sbiw	r24, 0x00	; 0
    50ac:	61 f1       	breq	.+88     	; 0x5106 <fat_open_dir+0x60>
    50ae:	61 15       	cp	r22, r1
    50b0:	71 05       	cpc	r23, r1
    50b2:	91 f0       	breq	.+36     	; 0x50d8 <fat_open_dir+0x32>
    50b4:	fb 01       	movw	r30, r22
    50b6:	20 a1       	ldd	r18, Z+32	; 0x20
    50b8:	24 ff       	sbrs	r18, 4
    50ba:	0e c0       	rjmp	.+28     	; 0x50d8 <fat_open_dir+0x32>
        if(!dd->fs)
    50bc:	20 91 15 04 	lds	r18, 0x0415	; 0x800415 <fat_dir_handles>
    50c0:	30 91 16 04 	lds	r19, 0x0416	; 0x800416 <fat_dir_handles+0x1>
    50c4:	23 2b       	or	r18, r19
    50c6:	59 f0       	breq	.+22     	; 0x50de <fat_open_dir+0x38>
    50c8:	20 91 46 04 	lds	r18, 0x0446	; 0x800446 <fat_dir_handles+0x31>
    50cc:	30 91 47 04 	lds	r19, 0x0447	; 0x800447 <fat_dir_handles+0x32>
        ++dd;
    50d0:	c6 e4       	ldi	r28, 0x46	; 70
    50d2:	d4 e0       	ldi	r29, 0x04	; 4
        if(!dd->fs)
    50d4:	23 2b       	or	r18, r19
    50d6:	29 f0       	breq	.+10     	; 0x50e2 <fat_open_dir+0x3c>
        return 0;
    50d8:	90 e0       	ldi	r25, 0x00	; 0
    50da:	80 e0       	ldi	r24, 0x00	; 0
    50dc:	14 c0       	rjmp	.+40     	; 0x5106 <fat_open_dir+0x60>
    struct fat_dir_struct* dd = fat_dir_handles;
    50de:	c5 e1       	ldi	r28, 0x15	; 21
    50e0:	d4 e0       	ldi	r29, 0x04	; 4
    memcpy(&dd->dir_entry, dir_entry, sizeof(*dir_entry));
    50e2:	de 01       	movw	r26, r28
    50e4:	12 96       	adiw	r26, 0x02	; 2
    50e6:	2b e2       	ldi	r18, 0x2B	; 43
    50e8:	fb 01       	movw	r30, r22
    50ea:	01 90       	ld	r0, Z+
    50ec:	0d 92       	st	X+, r0
    50ee:	2a 95       	dec	r18
    50f0:	e1 f7       	brne	.-8      	; 0x50ea <fat_open_dir+0x44>
    dd->fs = fs;
    50f2:	99 83       	std	Y+1, r25	; 0x01
    50f4:	88 83       	st	Y, r24
    dd->entry_cluster = dir_entry->cluster;
    50f6:	fb 01       	movw	r30, r22
    50f8:	81 a1       	ldd	r24, Z+33	; 0x21
    50fa:	92 a1       	ldd	r25, Z+34	; 0x22
    50fc:	9e a7       	std	Y+46, r25	; 0x2e
    50fe:	8d a7       	std	Y+45, r24	; 0x2d
    dd->entry_offset = 0;
    5100:	18 aa       	std	Y+48, r1	; 0x30
    5102:	1f a6       	std	Y+47, r1	; 0x2f
    5104:	ce 01       	movw	r24, r28
}
    5106:	df 91       	pop	r29
    5108:	cf 91       	pop	r28
    510a:	08 95       	ret

0000510c <fat_close_dir>:
    if(dd)
    510c:	00 97       	sbiw	r24, 0x00	; 0
    510e:	19 f0       	breq	.+6      	; 0x5116 <fat_close_dir+0xa>
        dd->fs = 0;
    5110:	fc 01       	movw	r30, r24
    5112:	11 82       	std	Z+1, r1	; 0x01
    5114:	10 82       	st	Z, r1
}
    5116:	08 95       	ret

00005118 <fat_reset_dir>:
{
    5118:	fc 01       	movw	r30, r24
    if(!dd)
    511a:	89 2b       	or	r24, r25
    511c:	41 f0       	breq	.+16     	; 0x512e <fat_reset_dir+0x16>
    dd->entry_cluster = dd->dir_entry.cluster;
    511e:	83 a1       	ldd	r24, Z+35	; 0x23
    5120:	94 a1       	ldd	r25, Z+36	; 0x24
    5122:	96 a7       	std	Z+46, r25	; 0x2e
    5124:	85 a7       	std	Z+45, r24	; 0x2d
    dd->entry_offset = 0;
    5126:	10 aa       	std	Z+48, r1	; 0x30
    5128:	17 a6       	std	Z+47, r1	; 0x2f
    return 1;
    512a:	81 e0       	ldi	r24, 0x01	; 1
    512c:	08 95       	ret
        return 0;
    512e:	80 e0       	ldi	r24, 0x00	; 0
}
    5130:	08 95       	ret

00005132 <fat_read_dir>:
{
    5132:	2f 92       	push	r2
    5134:	3f 92       	push	r3
    5136:	4f 92       	push	r4
    5138:	5f 92       	push	r5
    513a:	6f 92       	push	r6
    513c:	7f 92       	push	r7
    513e:	8f 92       	push	r8
    5140:	9f 92       	push	r9
    5142:	af 92       	push	r10
    5144:	bf 92       	push	r11
    5146:	cf 92       	push	r12
    5148:	df 92       	push	r13
    514a:	ef 92       	push	r14
    514c:	ff 92       	push	r15
    514e:	0f 93       	push	r16
    5150:	1f 93       	push	r17
    5152:	cf 93       	push	r28
    5154:	df 93       	push	r29
    5156:	cd b7       	in	r28, 0x3d	; 61
    5158:	de b7       	in	r29, 0x3e	; 62
    515a:	a6 97       	sbiw	r28, 0x26	; 38
    515c:	0f b6       	in	r0, 0x3f	; 63
    515e:	f8 94       	cli
    5160:	de bf       	out	0x3e, r29	; 62
    5162:	0f be       	out	0x3f, r0	; 63
    5164:	cd bf       	out	0x3d, r28	; 61
    5166:	5c 01       	movw	r10, r24
    if(!dd || !dir_entry)
    5168:	00 97       	sbiw	r24, 0x00	; 0
    516a:	a1 f0       	breq	.+40     	; 0x5194 <fat_read_dir+0x62>
    516c:	61 15       	cp	r22, r1
    516e:	71 05       	cpc	r23, r1
    5170:	89 f0       	breq	.+34     	; 0x5194 <fat_read_dir+0x62>
    struct fat_fs_struct* fs = dd->fs;
    5172:	dc 01       	movw	r26, r24
    5174:	4d 90       	ld	r4, X+
    5176:	5c 90       	ld	r5, X
    5178:	11 97       	sbiw	r26, 0x01	; 1
    uint16_t cluster_size = header->cluster_size;
    517a:	f2 01       	movw	r30, r4
    517c:	20 88       	ldd	r2, Z+16	; 0x10
    517e:	31 88       	ldd	r3, Z+17	; 0x11
    uint16_t cluster_offset = dd->entry_offset;
    5180:	9f 96       	adiw	r26, 0x2f	; 47
    5182:	8d 91       	ld	r24, X+
    5184:	9c 91       	ld	r25, X
    5186:	d0 97       	sbiw	r26, 0x30	; 48
    if(cluster_offset >= cluster_size)
    5188:	82 15       	cp	r24, r2
    518a:	93 05       	cpc	r25, r3
    518c:	28 f0       	brcs	.+10     	; 0x5198 <fat_read_dir+0x66>
        fat_reset_dir(dd);
    518e:	c5 01       	movw	r24, r10
    5190:	0e 94 8c 28 	call	0x5118	; 0x5118 <fat_reset_dir>
        return 0;
    5194:	80 e0       	ldi	r24, 0x00	; 0
    5196:	6d c0       	rjmp	.+218    	; 0x5272 <fat_read_dir+0x140>
    cluster_t cluster_num = dd->entry_cluster;
    5198:	9d 96       	adiw	r26, 0x2d	; 45
    519a:	8d 90       	ld	r8, X+
    519c:	9c 90       	ld	r9, X
    memset(&arg, 0, sizeof(arg));
    519e:	fe 01       	movw	r30, r28
    51a0:	b3 96       	adiw	r30, 0x23	; 35
    51a2:	24 e0       	ldi	r18, 0x04	; 4
    51a4:	df 01       	movw	r26, r30
    51a6:	1d 92       	st	X+, r1
    51a8:	2a 95       	dec	r18
    51aa:	e9 f7       	brne	.-6      	; 0x51a6 <fat_read_dir+0x74>
    memset(dir_entry, 0, sizeof(*dir_entry));
    51ac:	2b e2       	ldi	r18, 0x2B	; 43
    51ae:	fb 01       	movw	r30, r22
    51b0:	11 92       	st	Z+, r1
    51b2:	2a 95       	dec	r18
    51b4:	e9 f7       	brne	.-6      	; 0x51b0 <fat_read_dir+0x7e>
    arg.dir_entry = dir_entry;
    51b6:	7a a3       	std	Y+34, r23	; 0x22
    51b8:	69 a3       	std	Y+33, r22	; 0x21
    if(cluster_num == 0)
    51ba:	81 14       	cp	r8, r1
    51bc:	91 04       	cpc	r9, r1
    51be:	51 f4       	brne	.+20     	; 0x51d4 <fat_read_dir+0xa2>
            cluster_size = header->cluster_zero_offset - header->root_dir_offset;
    51c0:	d2 01       	movw	r26, r4
    51c2:	52 96       	adiw	r26, 0x12	; 18
    51c4:	2d 90       	ld	r2, X+
    51c6:	3c 90       	ld	r3, X
    51c8:	53 97       	sbiw	r26, 0x13	; 19
    51ca:	56 96       	adiw	r26, 0x16	; 22
    51cc:	2d 91       	ld	r18, X+
    51ce:	3c 91       	ld	r19, X
    51d0:	22 1a       	sub	r2, r18
    51d2:	33 0a       	sbc	r3, r19
{
    51d4:	3c 01       	movw	r6, r24
    while(!arg.finished)
    51d6:	8e a1       	ldd	r24, Y+38	; 0x26
    51d8:	81 11       	cpse	r24, r1
    51da:	41 c0       	rjmp	.+130    	; 0x525e <fat_read_dir+0x12c>
        uint16_t cluster_left = cluster_size - cluster_offset;
    51dc:	81 01       	movw	r16, r2
    51de:	06 19       	sub	r16, r6
    51e0:	17 09       	sbc	r17, r7
        offset_t pos = cluster_offset;
    51e2:	63 01       	movw	r12, r6
    51e4:	f1 2c       	mov	r15, r1
    51e6:	e1 2c       	mov	r14, r1
        if(cluster_num == 0)
    51e8:	81 14       	cp	r8, r1
    51ea:	91 04       	cpc	r9, r1
    51ec:	09 f0       	breq	.+2      	; 0x51f0 <fat_read_dir+0xbe>
    51ee:	5a c0       	rjmp	.+180    	; 0x52a4 <fat_read_dir+0x172>
            pos += header->root_dir_offset;
    51f0:	f2 01       	movw	r30, r4
    51f2:	66 89       	ldd	r22, Z+22	; 0x16
    51f4:	77 89       	ldd	r23, Z+23	; 0x17
    51f6:	80 8d       	ldd	r24, Z+24	; 0x18
    51f8:	91 8d       	ldd	r25, Z+25	; 0x19
            pos += fat_cluster_offset(fs, cluster_num);
    51fa:	6c 0d       	add	r22, r12
    51fc:	7d 1d       	adc	r23, r13
    51fe:	8e 1d       	adc	r24, r14
    5200:	9f 1d       	adc	r25, r15
        arg.bytes_read = 0;
    5202:	1c a2       	std	Y+36, r1	; 0x24
    5204:	1b a2       	std	Y+35, r1	; 0x23
        if(!fs->partition->device_read_interval(pos,
    5206:	d2 01       	movw	r26, r4
    5208:	ed 91       	ld	r30, X+
    520a:	fc 91       	ld	r31, X
    520c:	02 80       	ldd	r0, Z+2	; 0x02
    520e:	f3 81       	ldd	r31, Z+3	; 0x03
    5210:	e0 2d       	mov	r30, r0
    5212:	9e 01       	movw	r18, r28
    5214:	2f 5d       	subi	r18, 0xDF	; 223
    5216:	3f 4f       	sbci	r19, 0xFF	; 255
    5218:	69 01       	movw	r12, r18
    521a:	29 ee       	ldi	r18, 0xE9	; 233
    521c:	e2 2e       	mov	r14, r18
    521e:	2d e1       	ldi	r18, 0x1D	; 29
    5220:	f2 2e       	mov	r15, r18
    5222:	20 e2       	ldi	r18, 0x20	; 32
    5224:	30 e0       	ldi	r19, 0x00	; 0
    5226:	ae 01       	movw	r20, r28
    5228:	4f 5f       	subi	r20, 0xFF	; 255
    522a:	5f 4f       	sbci	r21, 0xFF	; 255
    522c:	09 95       	icall
    522e:	88 23       	and	r24, r24
    5230:	01 f1       	breq	.+64     	; 0x5272 <fat_read_dir+0x140>
        cluster_offset += arg.bytes_read;
    5232:	8b a1       	ldd	r24, Y+35	; 0x23
    5234:	9c a1       	ldd	r25, Y+36	; 0x24
    5236:	68 0e       	add	r6, r24
    5238:	79 1e       	adc	r7, r25
        if(cluster_offset >= cluster_size)
    523a:	62 14       	cp	r6, r2
    523c:	73 04       	cpc	r7, r3
    523e:	58 f2       	brcs	.-106    	; 0x51d6 <fat_read_dir+0xa4>
            if((cluster_num = fat_get_next_cluster(fs, cluster_num)) != 0)
    5240:	b4 01       	movw	r22, r8
    5242:	c2 01       	movw	r24, r4
    5244:	0e 94 ef 1e 	call	0x3dde	; 0x3dde <fat_get_next_cluster>
    5248:	4c 01       	movw	r8, r24
                cluster_offset = 0;
    524a:	90 e0       	ldi	r25, 0x00	; 0
    524c:	80 e0       	ldi	r24, 0x00	; 0
            if((cluster_num = fat_get_next_cluster(fs, cluster_num)) != 0)
    524e:	81 14       	cp	r8, r1
    5250:	91 04       	cpc	r9, r1
    5252:	09 f0       	breq	.+2      	; 0x5256 <fat_read_dir+0x124>
    5254:	bf cf       	rjmp	.-130    	; 0x51d4 <fat_read_dir+0xa2>
            if(!arg.finished)
    5256:	8e a1       	ldd	r24, Y+38	; 0x26
    5258:	88 23       	and	r24, r24
    525a:	09 f4       	brne	.+2      	; 0x525e <fat_read_dir+0x12c>
    525c:	98 cf       	rjmp	.-208    	; 0x518e <fat_read_dir+0x5c>
    dd->entry_cluster = cluster_num;
    525e:	d5 01       	movw	r26, r10
    5260:	9e 96       	adiw	r26, 0x2e	; 46
    5262:	9c 92       	st	X, r9
    5264:	8e 92       	st	-X, r8
    5266:	9d 97       	sbiw	r26, 0x2d	; 45
    dd->entry_offset = cluster_offset;
    5268:	d0 96       	adiw	r26, 0x30	; 48
    526a:	7c 92       	st	X, r7
    526c:	6e 92       	st	-X, r6
    526e:	9f 97       	sbiw	r26, 0x2f	; 47
    return arg.finished;
    5270:	8e a1       	ldd	r24, Y+38	; 0x26
}
    5272:	a6 96       	adiw	r28, 0x26	; 38
    5274:	0f b6       	in	r0, 0x3f	; 63
    5276:	f8 94       	cli
    5278:	de bf       	out	0x3e, r29	; 62
    527a:	0f be       	out	0x3f, r0	; 63
    527c:	cd bf       	out	0x3d, r28	; 61
    527e:	df 91       	pop	r29
    5280:	cf 91       	pop	r28
    5282:	1f 91       	pop	r17
    5284:	0f 91       	pop	r16
    5286:	ff 90       	pop	r15
    5288:	ef 90       	pop	r14
    528a:	df 90       	pop	r13
    528c:	cf 90       	pop	r12
    528e:	bf 90       	pop	r11
    5290:	af 90       	pop	r10
    5292:	9f 90       	pop	r9
    5294:	8f 90       	pop	r8
    5296:	7f 90       	pop	r7
    5298:	6f 90       	pop	r6
    529a:	5f 90       	pop	r5
    529c:	4f 90       	pop	r4
    529e:	3f 90       	pop	r3
    52a0:	2f 90       	pop	r2
    52a2:	08 95       	ret
            pos += fat_cluster_offset(fs, cluster_num);
    52a4:	b4 01       	movw	r22, r8
    52a6:	c2 01       	movw	r24, r4
    52a8:	0e 94 7d 20 	call	0x40fa	; 0x40fa <fat_cluster_offset>
    52ac:	a6 cf       	rjmp	.-180    	; 0x51fa <fat_read_dir+0xc8>

000052ae <fat_get_dir_entry_of_path>:
{
    52ae:	8f 92       	push	r8
    52b0:	9f 92       	push	r9
    52b2:	af 92       	push	r10
    52b4:	bf 92       	push	r11
    52b6:	cf 92       	push	r12
    52b8:	df 92       	push	r13
    52ba:	ef 92       	push	r14
    52bc:	ff 92       	push	r15
    52be:	0f 93       	push	r16
    52c0:	1f 93       	push	r17
    52c2:	cf 93       	push	r28
    52c4:	df 93       	push	r29
    52c6:	5c 01       	movw	r10, r24
    52c8:	4b 01       	movw	r8, r22
    52ca:	8a 01       	movw	r16, r20
    if(!fs || !path || path[0] == '\0' || !dir_entry)
    52cc:	89 2b       	or	r24, r25
    52ce:	09 f4       	brne	.+2      	; 0x52d2 <fat_get_dir_entry_of_path+0x24>
    52d0:	76 c0       	rjmp	.+236    	; 0x53be <fat_get_dir_entry_of_path+0x110>
    52d2:	61 15       	cp	r22, r1
    52d4:	71 05       	cpc	r23, r1
    52d6:	09 f4       	brne	.+2      	; 0x52da <fat_get_dir_entry_of_path+0x2c>
    52d8:	72 c0       	rjmp	.+228    	; 0x53be <fat_get_dir_entry_of_path+0x110>
    52da:	fb 01       	movw	r30, r22
    52dc:	80 81       	ld	r24, Z
    52de:	88 23       	and	r24, r24
    52e0:	09 f4       	brne	.+2      	; 0x52e4 <fat_get_dir_entry_of_path+0x36>
    52e2:	6d c0       	rjmp	.+218    	; 0x53be <fat_get_dir_entry_of_path+0x110>
    52e4:	45 2b       	or	r20, r21
    52e6:	09 f4       	brne	.+2      	; 0x52ea <fat_get_dir_entry_of_path+0x3c>
    52e8:	6a c0       	rjmp	.+212    	; 0x53be <fat_get_dir_entry_of_path+0x110>
    if(path[0] == '/')
    52ea:	8f 32       	cpi	r24, 0x2F	; 47
    52ec:	19 f4       	brne	.+6      	; 0x52f4 <fat_get_dir_entry_of_path+0x46>
        ++path;
    52ee:	ff ef       	ldi	r31, 0xFF	; 255
    52f0:	8f 1a       	sub	r8, r31
    52f2:	9f 0a       	sbc	r9, r31
    memset(dir_entry, 0, sizeof(*dir_entry));
    52f4:	8b e2       	ldi	r24, 0x2B	; 43
    52f6:	f8 01       	movw	r30, r16
    52f8:	11 92       	st	Z+, r1
    52fa:	8a 95       	dec	r24
    52fc:	e9 f7       	brne	.-6      	; 0x52f8 <fat_get_dir_entry_of_path+0x4a>
    dir_entry->attributes = FAT_ATTRIB_DIR;
    52fe:	80 e1       	ldi	r24, 0x10	; 16
    5300:	f8 01       	movw	r30, r16
    5302:	80 a3       	std	Z+32, r24	; 0x20
        if(path[0] == '\0')
    5304:	f4 01       	movw	r30, r8
    5306:	80 81       	ld	r24, Z
    5308:	81 11       	cpse	r24, r1
    530a:	0e c0       	rjmp	.+28     	; 0x5328 <fat_get_dir_entry_of_path+0x7a>
            return 1;
    530c:	81 e0       	ldi	r24, 0x01	; 1
}
    530e:	df 91       	pop	r29
    5310:	cf 91       	pop	r28
    5312:	1f 91       	pop	r17
    5314:	0f 91       	pop	r16
    5316:	ff 90       	pop	r15
    5318:	ef 90       	pop	r14
    531a:	df 90       	pop	r13
    531c:	cf 90       	pop	r12
    531e:	bf 90       	pop	r11
    5320:	af 90       	pop	r10
    5322:	9f 90       	pop	r9
    5324:	8f 90       	pop	r8
    5326:	08 95       	ret
        struct fat_dir_struct* dd = fat_open_dir(fs, dir_entry);
    5328:	b8 01       	movw	r22, r16
    532a:	c5 01       	movw	r24, r10
    532c:	0e 94 53 28 	call	0x50a6	; 0x50a6 <fat_open_dir>
    5330:	6c 01       	movw	r12, r24
        if(!dd)
    5332:	89 2b       	or	r24, r25
    5334:	09 f4       	brne	.+2      	; 0x5338 <fat_get_dir_entry_of_path+0x8a>
    5336:	43 c0       	rjmp	.+134    	; 0x53be <fat_get_dir_entry_of_path+0x110>
        const char* sub_path = strchr(path, '/');
    5338:	6f e2       	ldi	r22, 0x2F	; 47
    533a:	70 e0       	ldi	r23, 0x00	; 0
    533c:	c4 01       	movw	r24, r8
    533e:	0e 94 1b 30 	call	0x6036	; 0x6036 <strchr>
        if(sub_path)
    5342:	00 97       	sbiw	r24, 0x00	; 0
    5344:	89 f0       	breq	.+34     	; 0x5368 <fat_get_dir_entry_of_path+0xba>
            length_to_sep = sub_path - path;
    5346:	e8 2e       	mov	r14, r24
    5348:	e8 18       	sub	r14, r8
            ++sub_path;
    534a:	ec 01       	movw	r28, r24
    534c:	21 96       	adiw	r28, 0x01	; 1
            if((strlen(dir_entry->long_name) != length_to_sep ||
    534e:	f1 2c       	mov	r15, r1
        while(fat_read_dir(dd, dir_entry))
    5350:	b8 01       	movw	r22, r16
    5352:	c6 01       	movw	r24, r12
    5354:	0e 94 99 28 	call	0x5132	; 0x5132 <fat_read_dir>
    5358:	81 11       	cpse	r24, r1
    535a:	12 c0       	rjmp	.+36     	; 0x5380 <fat_get_dir_entry_of_path+0xd2>
    535c:	e4 01       	movw	r28, r8
        fat_close_dir(dd);
    535e:	c6 01       	movw	r24, r12
    5360:	0e 94 86 28 	call	0x510c	; 0x510c <fat_close_dir>
    {
    5364:	4e 01       	movw	r8, r28
    5366:	ce cf       	rjmp	.-100    	; 0x5304 <fat_get_dir_entry_of_path+0x56>
            length_to_sep = strlen(path);
    5368:	e4 01       	movw	r28, r8
    536a:	09 90       	ld	r0, Y+
    536c:	00 20       	and	r0, r0
    536e:	e9 f7       	brne	.-6      	; 0x536a <fat_get_dir_entry_of_path+0xbc>
    5370:	21 97       	sbiw	r28, 0x01	; 1
    5372:	c8 19       	sub	r28, r8
    5374:	d9 09       	sbc	r29, r9
    5376:	ec 2e       	mov	r14, r28
            sub_path = path + length_to_sep;
    5378:	c8 0d       	add	r28, r8
    537a:	d9 2d       	mov	r29, r9
    537c:	d1 1d       	adc	r29, r1
    537e:	e7 cf       	rjmp	.-50     	; 0x534e <fat_get_dir_entry_of_path+0xa0>
            if((strlen(dir_entry->long_name) != length_to_sep ||
    5380:	f8 01       	movw	r30, r16
    5382:	01 90       	ld	r0, Z+
    5384:	00 20       	and	r0, r0
    5386:	e9 f7       	brne	.-6      	; 0x5382 <fat_get_dir_entry_of_path+0xd4>
    5388:	31 97       	sbiw	r30, 0x01	; 1
    538a:	e0 1b       	sub	r30, r16
    538c:	f1 0b       	sbc	r31, r17
    538e:	ee 15       	cp	r30, r14
    5390:	ff 05       	cpc	r31, r15
    5392:	f1 f6       	brne	.-68     	; 0x5350 <fat_get_dir_entry_of_path+0xa2>
                strncmp(path, dir_entry->long_name, length_to_sep) != 0))
    5394:	a7 01       	movw	r20, r14
    5396:	b8 01       	movw	r22, r16
    5398:	c4 01       	movw	r24, r8
    539a:	0e 94 2f 30 	call	0x605e	; 0x605e <strncmp>
            if((strlen(dir_entry->long_name) != length_to_sep ||
    539e:	89 2b       	or	r24, r25
    53a0:	b9 f6       	brne	.-82     	; 0x5350 <fat_get_dir_entry_of_path+0xa2>
            fat_close_dir(dd);
    53a2:	c6 01       	movw	r24, r12
    53a4:	0e 94 86 28 	call	0x510c	; 0x510c <fat_close_dir>
            if(path[length_to_sep] == '\0')
    53a8:	e8 0c       	add	r14, r8
    53aa:	f9 1c       	adc	r15, r9
    53ac:	f7 01       	movw	r30, r14
    53ae:	80 81       	ld	r24, Z
    53b0:	88 23       	and	r24, r24
    53b2:	09 f4       	brne	.+2      	; 0x53b6 <fat_get_dir_entry_of_path+0x108>
    53b4:	ab cf       	rjmp	.-170    	; 0x530c <fat_get_dir_entry_of_path+0x5e>
            if(dir_entry->attributes & FAT_ATTRIB_DIR)
    53b6:	f8 01       	movw	r30, r16
    53b8:	80 a1       	ldd	r24, Z+32	; 0x20
    53ba:	84 fd       	sbrc	r24, 4
    53bc:	02 c0       	rjmp	.+4      	; 0x53c2 <fat_get_dir_entry_of_path+0x114>
        return 0;
    53be:	80 e0       	ldi	r24, 0x00	; 0
    53c0:	a6 cf       	rjmp	.-180    	; 0x530e <fat_get_dir_entry_of_path+0x60>
            dd = 0;
    53c2:	d1 2c       	mov	r13, r1
    53c4:	c1 2c       	mov	r12, r1
    53c6:	cb cf       	rjmp	.-106    	; 0x535e <fat_get_dir_entry_of_path+0xb0>

000053c8 <fat_create_file>:
{
    53c8:	cf 92       	push	r12
    53ca:	df 92       	push	r13
    53cc:	ef 92       	push	r14
    53ce:	ff 92       	push	r15
    53d0:	0f 93       	push	r16
    53d2:	1f 93       	push	r17
    53d4:	cf 93       	push	r28
    53d6:	df 93       	push	r29
    53d8:	8c 01       	movw	r16, r24
    53da:	7b 01       	movw	r14, r22
    53dc:	ea 01       	movw	r28, r20
    if(!parent || !file || !file[0] || !dir_entry)
    53de:	89 2b       	or	r24, r25
    53e0:	11 f4       	brne	.+4      	; 0x53e6 <fat_create_file+0x1e>
    if(!fat_write_dir_entry(fs, dir_entry))
    53e2:	90 e0       	ldi	r25, 0x00	; 0
    53e4:	19 c0       	rjmp	.+50     	; 0x5418 <fat_create_file+0x50>
    if(!parent || !file || !file[0] || !dir_entry)
    53e6:	61 15       	cp	r22, r1
    53e8:	71 05       	cpc	r23, r1
    53ea:	d9 f3       	breq	.-10     	; 0x53e2 <fat_create_file+0x1a>
    53ec:	fb 01       	movw	r30, r22
    53ee:	80 81       	ld	r24, Z
    53f0:	88 23       	and	r24, r24
    53f2:	b9 f3       	breq	.-18     	; 0x53e2 <fat_create_file+0x1a>
    53f4:	20 97       	sbiw	r28, 0x00	; 0
    53f6:	a9 f3       	breq	.-22     	; 0x53e2 <fat_create_file+0x1a>
        if(!fat_read_dir(parent, dir_entry))
    53f8:	be 01       	movw	r22, r28
    53fa:	c8 01       	movw	r24, r16
    53fc:	0e 94 99 28 	call	0x5132	; 0x5132 <fat_read_dir>
    5400:	88 23       	and	r24, r24
    5402:	a1 f0       	breq	.+40     	; 0x542c <fat_create_file+0x64>
        if(strcmp(file, dir_entry->long_name) == 0)
    5404:	be 01       	movw	r22, r28
    5406:	c7 01       	movw	r24, r14
    5408:	0e 94 26 30 	call	0x604c	; 0x604c <strcmp>
    540c:	89 2b       	or	r24, r25
    540e:	a1 f7       	brne	.-24     	; 0x53f8 <fat_create_file+0x30>
            fat_reset_dir(parent);
    5410:	c8 01       	movw	r24, r16
    5412:	0e 94 8c 28 	call	0x5118	; 0x5118 <fat_reset_dir>
            return 2;
    5416:	92 e0       	ldi	r25, 0x02	; 2
}
    5418:	89 2f       	mov	r24, r25
    541a:	df 91       	pop	r29
    541c:	cf 91       	pop	r28
    541e:	1f 91       	pop	r17
    5420:	0f 91       	pop	r16
    5422:	ff 90       	pop	r15
    5424:	ef 90       	pop	r14
    5426:	df 90       	pop	r13
    5428:	cf 90       	pop	r12
    542a:	08 95       	ret
    struct fat_fs_struct* fs = parent->fs;
    542c:	f8 01       	movw	r30, r16
    542e:	c0 80       	ld	r12, Z
    5430:	d1 80       	ldd	r13, Z+1	; 0x01
    memset(dir_entry, 0, sizeof(*dir_entry));
    5432:	8b e2       	ldi	r24, 0x2B	; 43
    5434:	fe 01       	movw	r30, r28
    5436:	11 92       	st	Z+, r1
    5438:	8a 95       	dec	r24
    543a:	e9 f7       	brne	.-6      	; 0x5436 <fat_create_file+0x6e>
    strncpy(dir_entry->long_name, file, sizeof(dir_entry->long_name) - 1);
    543c:	4f e1       	ldi	r20, 0x1F	; 31
    543e:	50 e0       	ldi	r21, 0x00	; 0
    5440:	b7 01       	movw	r22, r14
    5442:	ce 01       	movw	r24, r28
    5444:	0e 94 3d 30 	call	0x607a	; 0x607a <strncpy>
        return 0;
    5448:	60 e0       	ldi	r22, 0x00	; 0
    544a:	70 e0       	ldi	r23, 0x00	; 0
    544c:	cb 01       	movw	r24, r22
    if(!fs || !dir_entry)
    544e:	c1 14       	cp	r12, r1
    5450:	d1 04       	cpc	r13, r1
    5452:	39 f0       	breq	.+14     	; 0x5462 <fat_create_file+0x9a>
    5454:	b8 01       	movw	r22, r16
    5456:	6d 5d       	subi	r22, 0xDD	; 221
    5458:	7f 4f       	sbci	r23, 0xFF	; 255
    545a:	ae 01       	movw	r20, r28
    545c:	c6 01       	movw	r24, r12
    545e:	0e 94 d4 20 	call	0x41a8	; 0x41a8 <fat_find_offset_for_dir_entry.isra.4.part.5>
    if(!(dir_entry->entry_offset = fat_find_offset_for_dir_entry(fs, parent, dir_entry)))
    5462:	6f a3       	std	Y+39, r22	; 0x27
    5464:	78 a7       	std	Y+40, r23	; 0x28
    5466:	89 a7       	std	Y+41, r24	; 0x29
    5468:	9a a7       	std	Y+42, r25	; 0x2a
    546a:	67 2b       	or	r22, r23
    546c:	68 2b       	or	r22, r24
    546e:	69 2b       	or	r22, r25
    5470:	09 f4       	brne	.+2      	; 0x5474 <fat_create_file+0xac>
    5472:	b7 cf       	rjmp	.-146    	; 0x53e2 <fat_create_file+0x1a>
    if(!fat_write_dir_entry(fs, dir_entry))
    5474:	be 01       	movw	r22, r28
    5476:	c6 01       	movw	r24, r12
    5478:	0e 94 ab 21 	call	0x4356	; 0x4356 <fat_write_dir_entry>
    547c:	91 e0       	ldi	r25, 0x01	; 1
    547e:	81 11       	cpse	r24, r1
    5480:	cb cf       	rjmp	.-106    	; 0x5418 <fat_create_file+0x50>
    5482:	af cf       	rjmp	.-162    	; 0x53e2 <fat_create_file+0x1a>

00005484 <fat_delete_file>:
{
    5484:	9f 92       	push	r9
    5486:	af 92       	push	r10
    5488:	bf 92       	push	r11
    548a:	cf 92       	push	r12
    548c:	df 92       	push	r13
    548e:	ef 92       	push	r14
    5490:	ff 92       	push	r15
    5492:	0f 93       	push	r16
    5494:	1f 93       	push	r17
    5496:	cf 93       	push	r28
    5498:	df 93       	push	r29
    549a:	cd b7       	in	r28, 0x3d	; 61
    549c:	de b7       	in	r29, 0x3e	; 62
    549e:	2c 97       	sbiw	r28, 0x0c	; 12
    54a0:	0f b6       	in	r0, 0x3f	; 63
    54a2:	f8 94       	cli
    54a4:	de bf       	out	0x3e, r29	; 62
    54a6:	0f be       	out	0x3f, r0	; 63
    54a8:	cd bf       	out	0x3d, r28	; 61
    54aa:	8c 01       	movw	r16, r24
    54ac:	5b 01       	movw	r10, r22
    if(!fs || !dir_entry)
    54ae:	89 2b       	or	r24, r25
    54b0:	09 f4       	brne	.+2      	; 0x54b4 <fat_delete_file+0x30>
    54b2:	5e c0       	rjmp	.+188    	; 0x5570 <fat_delete_file+0xec>
    54b4:	61 15       	cp	r22, r1
    54b6:	71 05       	cpc	r23, r1
    54b8:	09 f4       	brne	.+2      	; 0x54bc <fat_delete_file+0x38>
    54ba:	5a c0       	rjmp	.+180    	; 0x5570 <fat_delete_file+0xec>
    offset_t dir_entry_offset = dir_entry->entry_offset;
    54bc:	db 01       	movw	r26, r22
    54be:	97 96       	adiw	r26, 0x27	; 39
    54c0:	cd 90       	ld	r12, X+
    54c2:	dd 90       	ld	r13, X+
    54c4:	ed 90       	ld	r14, X+
    54c6:	fc 90       	ld	r15, X
    54c8:	9a 97       	sbiw	r26, 0x2a	; 42
    if(!dir_entry_offset)
    54ca:	c1 14       	cp	r12, r1
    54cc:	d1 04       	cpc	r13, r1
    54ce:	e1 04       	cpc	r14, r1
    54d0:	f1 04       	cpc	r15, r1
    54d2:	09 f4       	brne	.+2      	; 0x54d6 <fat_delete_file+0x52>
    54d4:	4d c0       	rjmp	.+154    	; 0x5570 <fat_delete_file+0xec>
        buffer[0] = FAT_DIRENTRY_DELETED;
    54d6:	85 ee       	ldi	r24, 0xE5	; 229
    54d8:	98 2e       	mov	r9, r24
        if(!fs->partition->device_read(dir_entry_offset, buffer, sizeof(buffer)))
    54da:	d8 01       	movw	r26, r16
    54dc:	ed 91       	ld	r30, X+
    54de:	fc 91       	ld	r31, X
    54e0:	01 90       	ld	r0, Z+
    54e2:	f0 81       	ld	r31, Z
    54e4:	e0 2d       	mov	r30, r0
    54e6:	2c e0       	ldi	r18, 0x0C	; 12
    54e8:	30 e0       	ldi	r19, 0x00	; 0
    54ea:	ae 01       	movw	r20, r28
    54ec:	4f 5f       	subi	r20, 0xFF	; 255
    54ee:	5f 4f       	sbci	r21, 0xFF	; 255
    54f0:	c7 01       	movw	r24, r14
    54f2:	b6 01       	movw	r22, r12
    54f4:	09 95       	icall
    54f6:	88 23       	and	r24, r24
    54f8:	d9 f1       	breq	.+118    	; 0x5570 <fat_delete_file+0xec>
        buffer[0] = FAT_DIRENTRY_DELETED;
    54fa:	99 82       	std	Y+1, r9	; 0x01
        if(!fs->partition->device_write(dir_entry_offset, buffer, sizeof(buffer)))
    54fc:	d8 01       	movw	r26, r16
    54fe:	ed 91       	ld	r30, X+
    5500:	fc 91       	ld	r31, X
    5502:	04 80       	ldd	r0, Z+4	; 0x04
    5504:	f5 81       	ldd	r31, Z+5	; 0x05
    5506:	e0 2d       	mov	r30, r0
    5508:	2c e0       	ldi	r18, 0x0C	; 12
    550a:	30 e0       	ldi	r19, 0x00	; 0
    550c:	ae 01       	movw	r20, r28
    550e:	4f 5f       	subi	r20, 0xFF	; 255
    5510:	5f 4f       	sbci	r21, 0xFF	; 255
    5512:	c7 01       	movw	r24, r14
    5514:	b6 01       	movw	r22, r12
    5516:	09 95       	icall
    5518:	88 23       	and	r24, r24
    551a:	51 f1       	breq	.+84     	; 0x5570 <fat_delete_file+0xec>
        if(buffer[11] != 0x0f)
    551c:	8c 85       	ldd	r24, Y+12	; 0x0c
    551e:	8f 30       	cpi	r24, 0x0F	; 15
    5520:	31 f4       	brne	.+12     	; 0x552e <fat_delete_file+0xaa>
        dir_entry_offset += 32;
    5522:	b0 e2       	ldi	r27, 0x20	; 32
    5524:	cb 0e       	add	r12, r27
    5526:	d1 1c       	adc	r13, r1
    5528:	e1 1c       	adc	r14, r1
    552a:	f1 1c       	adc	r15, r1
    552c:	d6 cf       	rjmp	.-84     	; 0x54da <fat_delete_file+0x56>
    return (dir_entry->cluster == 0 || fat_free_clusters(fs, dir_entry->cluster));
    552e:	f5 01       	movw	r30, r10
    5530:	61 a1       	ldd	r22, Z+33	; 0x21
    5532:	72 a1       	ldd	r23, Z+34	; 0x22
    5534:	81 e0       	ldi	r24, 0x01	; 1
    5536:	61 15       	cp	r22, r1
    5538:	71 05       	cpc	r23, r1
    553a:	41 f0       	breq	.+16     	; 0x554c <fat_delete_file+0xc8>
    553c:	c8 01       	movw	r24, r16
    553e:	0e 94 29 1f 	call	0x3e52	; 0x3e52 <fat_free_clusters>
    5542:	91 e0       	ldi	r25, 0x01	; 1
    5544:	81 11       	cpse	r24, r1
    5546:	01 c0       	rjmp	.+2      	; 0x554a <fat_delete_file+0xc6>
    5548:	90 e0       	ldi	r25, 0x00	; 0
    554a:	89 2f       	mov	r24, r25
}
    554c:	2c 96       	adiw	r28, 0x0c	; 12
    554e:	0f b6       	in	r0, 0x3f	; 63
    5550:	f8 94       	cli
    5552:	de bf       	out	0x3e, r29	; 62
    5554:	0f be       	out	0x3f, r0	; 63
    5556:	cd bf       	out	0x3d, r28	; 61
    5558:	df 91       	pop	r29
    555a:	cf 91       	pop	r28
    555c:	1f 91       	pop	r17
    555e:	0f 91       	pop	r16
    5560:	ff 90       	pop	r15
    5562:	ef 90       	pop	r14
    5564:	df 90       	pop	r13
    5566:	cf 90       	pop	r12
    5568:	bf 90       	pop	r11
    556a:	af 90       	pop	r10
    556c:	9f 90       	pop	r9
    556e:	08 95       	ret
        return 0;
    5570:	80 e0       	ldi	r24, 0x00	; 0
    5572:	ec cf       	rjmp	.-40     	; 0x554c <fat_delete_file+0xc8>

00005574 <fat_move_file>:
{
    5574:	df 92       	push	r13
    5576:	ef 92       	push	r14
    5578:	ff 92       	push	r15
    557a:	0f 93       	push	r16
    557c:	1f 93       	push	r17
    557e:	cf 93       	push	r28
    5580:	df 93       	push	r29
    5582:	cd b7       	in	r28, 0x3d	; 61
    5584:	de b7       	in	r29, 0x3e	; 62
    5586:	ab 97       	sbiw	r28, 0x2b	; 43
    5588:	0f b6       	in	r0, 0x3f	; 63
    558a:	f8 94       	cli
    558c:	de bf       	out	0x3e, r29	; 62
    558e:	0f be       	out	0x3f, r0	; 63
    5590:	cd bf       	out	0x3d, r28	; 61
    5592:	7c 01       	movw	r14, r24
    5594:	8b 01       	movw	r16, r22
    5596:	ca 01       	movw	r24, r20
    if(!fs || !dir_entry || !parent_new || (file_new && !file_new[0]))
    5598:	e1 14       	cp	r14, r1
    559a:	f1 04       	cpc	r15, r1
    559c:	81 f4       	brne	.+32     	; 0x55be <fat_move_file+0x4a>
        return 0;
    559e:	d1 2c       	mov	r13, r1
}
    55a0:	8d 2d       	mov	r24, r13
    55a2:	ab 96       	adiw	r28, 0x2b	; 43
    55a4:	0f b6       	in	r0, 0x3f	; 63
    55a6:	f8 94       	cli
    55a8:	de bf       	out	0x3e, r29	; 62
    55aa:	0f be       	out	0x3f, r0	; 63
    55ac:	cd bf       	out	0x3d, r28	; 61
    55ae:	df 91       	pop	r29
    55b0:	cf 91       	pop	r28
    55b2:	1f 91       	pop	r17
    55b4:	0f 91       	pop	r16
    55b6:	ff 90       	pop	r15
    55b8:	ef 90       	pop	r14
    55ba:	df 90       	pop	r13
    55bc:	08 95       	ret
    if(!fs || !dir_entry || !parent_new || (file_new && !file_new[0]))
    55be:	67 2b       	or	r22, r23
    55c0:	71 f3       	breq	.-36     	; 0x559e <fat_move_file+0x2a>
    55c2:	00 97       	sbiw	r24, 0x00	; 0
    55c4:	61 f3       	breq	.-40     	; 0x559e <fat_move_file+0x2a>
    55c6:	21 15       	cp	r18, r1
    55c8:	31 05       	cpc	r19, r1
    55ca:	21 f0       	breq	.+8      	; 0x55d4 <fat_move_file+0x60>
    55cc:	f9 01       	movw	r30, r18
    55ce:	40 81       	ld	r20, Z
    55d0:	44 23       	and	r20, r20
    55d2:	29 f3       	breq	.-54     	; 0x559e <fat_move_file+0x2a>
    if(fs != parent_new->fs)
    55d4:	fc 01       	movw	r30, r24
    55d6:	40 81       	ld	r20, Z
    55d8:	51 81       	ldd	r21, Z+1	; 0x01
    55da:	4e 15       	cp	r20, r14
    55dc:	5f 05       	cpc	r21, r15
    55de:	f9 f6       	brne	.-66     	; 0x559e <fat_move_file+0x2a>
    if(!file_new)
    55e0:	21 15       	cp	r18, r1
    55e2:	31 05       	cpc	r19, r1
    55e4:	09 f4       	brne	.+2      	; 0x55e8 <fat_move_file+0x74>
        file_new = dir_entry->long_name;
    55e6:	98 01       	movw	r18, r16
    if(!fat_create_file(parent_new, file_new, &dir_entry_new))
    55e8:	ae 01       	movw	r20, r28
    55ea:	4f 5f       	subi	r20, 0xFF	; 255
    55ec:	5f 4f       	sbci	r21, 0xFF	; 255
    55ee:	b9 01       	movw	r22, r18
    55f0:	0e 94 e4 29 	call	0x53c8	; 0x53c8 <fat_create_file>
    55f4:	88 23       	and	r24, r24
    55f6:	99 f2       	breq	.-90     	; 0x559e <fat_move_file+0x2a>
    dir_entry_new.attributes = dir_entry->attributes;
    55f8:	f8 01       	movw	r30, r16
    55fa:	80 a1       	ldd	r24, Z+32	; 0x20
    55fc:	89 a3       	std	Y+33, r24	; 0x21
    dir_entry_new.cluster = dir_entry->cluster;
    55fe:	81 a1       	ldd	r24, Z+33	; 0x21
    5600:	92 a1       	ldd	r25, Z+34	; 0x22
    5602:	9b a3       	std	Y+35, r25	; 0x23
    5604:	8a a3       	std	Y+34, r24	; 0x22
    dir_entry_new.file_size = dir_entry->file_size;
    5606:	83 a1       	ldd	r24, Z+35	; 0x23
    5608:	94 a1       	ldd	r25, Z+36	; 0x24
    560a:	a5 a1       	ldd	r26, Z+37	; 0x25
    560c:	b6 a1       	ldd	r27, Z+38	; 0x26
    560e:	8c a3       	std	Y+36, r24	; 0x24
    5610:	9d a3       	std	Y+37, r25	; 0x25
    5612:	ae a3       	std	Y+38, r26	; 0x26
    5614:	bf a3       	std	Y+39, r27	; 0x27
    if(!fat_write_dir_entry(fs, &dir_entry_new))
    5616:	be 01       	movw	r22, r28
    5618:	6f 5f       	subi	r22, 0xFF	; 255
    561a:	7f 4f       	sbci	r23, 0xFF	; 255
    561c:	c7 01       	movw	r24, r14
    561e:	0e 94 ab 21 	call	0x4356	; 0x4356 <fat_write_dir_entry>
    5622:	d8 2e       	mov	r13, r24
    5624:	81 11       	cpse	r24, r1
    5626:	07 c0       	rjmp	.+14     	; 0x5636 <fat_move_file+0xc2>
        fat_delete_file(fs, &dir_entry_new);
    5628:	be 01       	movw	r22, r28
    562a:	6f 5f       	subi	r22, 0xFF	; 255
    562c:	7f 4f       	sbci	r23, 0xFF	; 255
    562e:	c7 01       	movw	r24, r14
    5630:	0e 94 42 2a 	call	0x5484	; 0x5484 <fat_delete_file>
        return 0;
    5634:	b5 cf       	rjmp	.-150    	; 0x55a0 <fat_move_file+0x2c>
    dir_entry->cluster = 0;
    5636:	f8 01       	movw	r30, r16
    5638:	12 a2       	std	Z+34, r1	; 0x22
    563a:	11 a2       	std	Z+33, r1	; 0x21
    if(!fat_delete_file(fs, dir_entry))
    563c:	b8 01       	movw	r22, r16
    563e:	c7 01       	movw	r24, r14
    5640:	0e 94 42 2a 	call	0x5484	; 0x5484 <fat_delete_file>
    5644:	88 23       	and	r24, r24
    5646:	09 f4       	brne	.+2      	; 0x564a <fat_move_file+0xd6>
    5648:	aa cf       	rjmp	.-172    	; 0x559e <fat_move_file+0x2a>
    *dir_entry = dir_entry_new;
    564a:	8b e2       	ldi	r24, 0x2B	; 43
    564c:	fe 01       	movw	r30, r28
    564e:	31 96       	adiw	r30, 0x01	; 1
    5650:	d8 01       	movw	r26, r16
    5652:	01 90       	ld	r0, Z+
    5654:	0d 92       	st	X+, r0
    5656:	8a 95       	dec	r24
    5658:	e1 f7       	brne	.-8      	; 0x5652 <fat_move_file+0xde>
    return 1;
    565a:	dd 24       	eor	r13, r13
    565c:	d3 94       	inc	r13
    565e:	a0 cf       	rjmp	.-192    	; 0x55a0 <fat_move_file+0x2c>

00005660 <fat_create_dir>:
{
    5660:	4f 92       	push	r4
    5662:	5f 92       	push	r5
    5664:	6f 92       	push	r6
    5666:	7f 92       	push	r7
    5668:	8f 92       	push	r8
    566a:	9f 92       	push	r9
    566c:	af 92       	push	r10
    566e:	bf 92       	push	r11
    5670:	cf 92       	push	r12
    5672:	df 92       	push	r13
    5674:	ef 92       	push	r14
    5676:	ff 92       	push	r15
    5678:	0f 93       	push	r16
    567a:	1f 93       	push	r17
    567c:	cf 93       	push	r28
    567e:	df 93       	push	r29
    5680:	5c 01       	movw	r10, r24
    5682:	4b 01       	movw	r8, r22
    5684:	ea 01       	movw	r28, r20
    if(!parent || !dir || !dir[0] || !dir_entry)
    5686:	89 2b       	or	r24, r25
    5688:	99 f4       	brne	.+38     	; 0x56b0 <fat_create_dir+0x50>
        return 0;
    568a:	f1 2c       	mov	r15, r1
}
    568c:	8f 2d       	mov	r24, r15
    568e:	df 91       	pop	r29
    5690:	cf 91       	pop	r28
    5692:	1f 91       	pop	r17
    5694:	0f 91       	pop	r16
    5696:	ff 90       	pop	r15
    5698:	ef 90       	pop	r14
    569a:	df 90       	pop	r13
    569c:	cf 90       	pop	r12
    569e:	bf 90       	pop	r11
    56a0:	af 90       	pop	r10
    56a2:	9f 90       	pop	r9
    56a4:	8f 90       	pop	r8
    56a6:	7f 90       	pop	r7
    56a8:	6f 90       	pop	r6
    56aa:	5f 90       	pop	r5
    56ac:	4f 90       	pop	r4
    56ae:	08 95       	ret
    if(!parent || !dir || !dir[0] || !dir_entry)
    56b0:	61 15       	cp	r22, r1
    56b2:	71 05       	cpc	r23, r1
    56b4:	51 f3       	breq	.-44     	; 0x568a <fat_create_dir+0x2a>
    56b6:	fb 01       	movw	r30, r22
    56b8:	80 81       	ld	r24, Z
    56ba:	88 23       	and	r24, r24
    56bc:	31 f3       	breq	.-52     	; 0x568a <fat_create_dir+0x2a>
    56be:	20 97       	sbiw	r28, 0x00	; 0
    56c0:	21 f3       	breq	.-56     	; 0x568a <fat_create_dir+0x2a>
    while(fat_read_dir(parent, dir_entry))
    56c2:	be 01       	movw	r22, r28
    56c4:	c5 01       	movw	r24, r10
    56c6:	0e 94 99 28 	call	0x5132	; 0x5132 <fat_read_dir>
    56ca:	81 11       	cpse	r24, r1
    56cc:	3d c0       	rjmp	.+122    	; 0x5748 <fat_create_dir+0xe8>
    struct fat_fs_struct* fs = parent->fs;
    56ce:	f5 01       	movw	r30, r10
    56d0:	00 81       	ld	r16, Z
    56d2:	11 81       	ldd	r17, Z+1	; 0x01
    cluster_t dir_cluster = fat_append_clusters(fs, 0, 1);
    56d4:	41 e0       	ldi	r20, 0x01	; 1
    56d6:	50 e0       	ldi	r21, 0x00	; 0
    56d8:	70 e0       	ldi	r23, 0x00	; 0
    56da:	60 e0       	ldi	r22, 0x00	; 0
    56dc:	c8 01       	movw	r24, r16
    56de:	0e 94 9b 1f 	call	0x3f36	; 0x3f36 <fat_append_clusters>
    56e2:	6c 01       	movw	r12, r24
    if(!dir_cluster)
    56e4:	00 97       	sbiw	r24, 0x00	; 0
    56e6:	89 f2       	breq	.-94     	; 0x568a <fat_create_dir+0x2a>
    fat_clear_cluster(fs, dir_cluster);
    56e8:	bc 01       	movw	r22, r24
    56ea:	c8 01       	movw	r24, r16
    56ec:	0e 94 9b 20 	call	0x4136	; 0x4136 <fat_clear_cluster>
    memset(dir_entry, 0, sizeof(*dir_entry));
    56f0:	8b e2       	ldi	r24, 0x2B	; 43
    56f2:	fe 01       	movw	r30, r28
    56f4:	11 92       	st	Z+, r1
    56f6:	8a 95       	dec	r24
    56f8:	e9 f7       	brne	.-6      	; 0x56f4 <fat_create_dir+0x94>
    dir_entry->attributes = FAT_ATTRIB_DIR;
    56fa:	80 e1       	ldi	r24, 0x10	; 16
    56fc:	88 a3       	std	Y+32, r24	; 0x20
                              (offset_t) (dir_cluster - 2) * fs->header.cluster_size;
    56fe:	f8 01       	movw	r30, r16
    5700:	a0 89       	ldd	r26, Z+16	; 0x10
    5702:	b1 89       	ldd	r27, Z+17	; 0x11
    5704:	96 01       	movw	r18, r12
    5706:	22 50       	subi	r18, 0x02	; 2
    5708:	31 09       	sbc	r19, r1
    570a:	0e 94 84 2f 	call	0x5f08	; 0x5f08 <__umulhisi3>
    dir_entry->entry_offset = fs->header.cluster_zero_offset +
    570e:	42 88       	ldd	r4, Z+18	; 0x12
    5710:	53 88       	ldd	r5, Z+19	; 0x13
    5712:	64 88       	ldd	r6, Z+20	; 0x14
    5714:	75 88       	ldd	r7, Z+21	; 0x15
    5716:	46 0e       	add	r4, r22
    5718:	57 1e       	adc	r5, r23
    571a:	68 1e       	adc	r6, r24
    571c:	79 1e       	adc	r7, r25
    571e:	4f a2       	std	Y+39, r4	; 0x27
    5720:	58 a6       	std	Y+40, r5	; 0x28
    5722:	69 a6       	std	Y+41, r6	; 0x29
    5724:	7a a6       	std	Y+42, r7	; 0x2a
    dir_entry->long_name[0] = '.';
    5726:	8e e2       	ldi	r24, 0x2E	; 46
    5728:	e8 2e       	mov	r14, r24
    572a:	e8 82       	st	Y, r14
    dir_entry->cluster = dir_cluster;
    572c:	da a2       	std	Y+34, r13	; 0x22
    572e:	c9 a2       	std	Y+33, r12	; 0x21
    if(!fat_write_dir_entry(fs, dir_entry))
    5730:	be 01       	movw	r22, r28
    5732:	c8 01       	movw	r24, r16
    5734:	0e 94 ab 21 	call	0x4356	; 0x4356 <fat_write_dir_entry>
    5738:	f8 2e       	mov	r15, r24
    573a:	81 11       	cpse	r24, r1
    573c:	10 c0       	rjmp	.+32     	; 0x575e <fat_create_dir+0xfe>
        fat_free_clusters(fs, dir_cluster);
    573e:	b6 01       	movw	r22, r12
    5740:	c8 01       	movw	r24, r16
    5742:	0e 94 29 1f 	call	0x3e52	; 0x3e52 <fat_free_clusters>
        return 0;
    5746:	a2 cf       	rjmp	.-188    	; 0x568c <fat_create_dir+0x2c>
        if(strcmp(dir, dir_entry->long_name) == 0)
    5748:	be 01       	movw	r22, r28
    574a:	c4 01       	movw	r24, r8
    574c:	0e 94 26 30 	call	0x604c	; 0x604c <strcmp>
    5750:	89 2b       	or	r24, r25
    5752:	09 f0       	breq	.+2      	; 0x5756 <fat_create_dir+0xf6>
    5754:	b6 cf       	rjmp	.-148    	; 0x56c2 <fat_create_dir+0x62>
            fat_reset_dir(parent);
    5756:	c5 01       	movw	r24, r10
    5758:	0e 94 8c 28 	call	0x5118	; 0x5118 <fat_reset_dir>
            return 0;
    575c:	96 cf       	rjmp	.-212    	; 0x568a <fat_create_dir+0x2a>
    dir_entry->entry_offset += 32;
    575e:	8f a1       	ldd	r24, Y+39	; 0x27
    5760:	98 a5       	ldd	r25, Y+40	; 0x28
    5762:	a9 a5       	ldd	r26, Y+41	; 0x29
    5764:	ba a5       	ldd	r27, Y+42	; 0x2a
    5766:	80 96       	adiw	r24, 0x20	; 32
    5768:	a1 1d       	adc	r26, r1
    576a:	b1 1d       	adc	r27, r1
    576c:	8f a3       	std	Y+39, r24	; 0x27
    576e:	98 a7       	std	Y+40, r25	; 0x28
    5770:	a9 a7       	std	Y+41, r26	; 0x29
    5772:	ba a7       	std	Y+42, r27	; 0x2a
    dir_entry->long_name[1] = '.';
    5774:	e9 82       	std	Y+1, r14	; 0x01
    dir_entry->cluster = parent->dir_entry.cluster;
    5776:	f5 01       	movw	r30, r10
    5778:	83 a1       	ldd	r24, Z+35	; 0x23
    577a:	94 a1       	ldd	r25, Z+36	; 0x24
    577c:	9a a3       	std	Y+34, r25	; 0x22
    577e:	89 a3       	std	Y+33, r24	; 0x21
    if(!fat_write_dir_entry(fs, dir_entry))
    5780:	be 01       	movw	r22, r28
    5782:	c8 01       	movw	r24, r16
    5784:	0e 94 ab 21 	call	0x4356	; 0x4356 <fat_write_dir_entry>
    5788:	f8 2e       	mov	r15, r24
    578a:	88 23       	and	r24, r24
    578c:	c1 f2       	breq	.-80     	; 0x573e <fat_create_dir+0xde>
    strncpy(dir_entry->long_name, dir, sizeof(dir_entry->long_name) - 1);
    578e:	4f e1       	ldi	r20, 0x1F	; 31
    5790:	50 e0       	ldi	r21, 0x00	; 0
    5792:	b4 01       	movw	r22, r8
    5794:	ce 01       	movw	r24, r28
    5796:	0e 94 3d 30 	call	0x607a	; 0x607a <strncpy>
    dir_entry->cluster = dir_cluster;
    579a:	da a2       	std	Y+34, r13	; 0x22
    579c:	c9 a2       	std	Y+33, r12	; 0x21
        return 0;
    579e:	60 e0       	ldi	r22, 0x00	; 0
    57a0:	70 e0       	ldi	r23, 0x00	; 0
    57a2:	cb 01       	movw	r24, r22
    if(!fs || !dir_entry)
    57a4:	01 15       	cp	r16, r1
    57a6:	11 05       	cpc	r17, r1
    57a8:	39 f0       	breq	.+14     	; 0x57b8 <fat_create_dir+0x158>
    57aa:	b5 01       	movw	r22, r10
    57ac:	6d 5d       	subi	r22, 0xDD	; 221
    57ae:	7f 4f       	sbci	r23, 0xFF	; 255
    57b0:	ae 01       	movw	r20, r28
    57b2:	c8 01       	movw	r24, r16
    57b4:	0e 94 d4 20 	call	0x41a8	; 0x41a8 <fat_find_offset_for_dir_entry.isra.4.part.5>
    if(!(dir_entry->entry_offset = fat_find_offset_for_dir_entry(fs, parent, dir_entry)))
    57b8:	6f a3       	std	Y+39, r22	; 0x27
    57ba:	78 a7       	std	Y+40, r23	; 0x28
    57bc:	89 a7       	std	Y+41, r24	; 0x29
    57be:	9a a7       	std	Y+42, r25	; 0x2a
    57c0:	67 2b       	or	r22, r23
    57c2:	68 2b       	or	r22, r24
    57c4:	69 2b       	or	r22, r25
    57c6:	29 f4       	brne	.+10     	; 0x57d2 <fat_create_dir+0x172>
        fat_free_clusters(fs, dir_cluster);
    57c8:	b6 01       	movw	r22, r12
    57ca:	c8 01       	movw	r24, r16
    57cc:	0e 94 29 1f 	call	0x3e52	; 0x3e52 <fat_free_clusters>
    57d0:	5c cf       	rjmp	.-328    	; 0x568a <fat_create_dir+0x2a>
    if(!fat_write_dir_entry(fs, dir_entry))
    57d2:	be 01       	movw	r22, r28
    57d4:	c8 01       	movw	r24, r16
    57d6:	0e 94 ab 21 	call	0x4356	; 0x4356 <fat_write_dir_entry>
    57da:	f8 2e       	mov	r15, r24
    57dc:	88 23       	and	r24, r24
    57de:	09 f4       	brne	.+2      	; 0x57e2 <fat_create_dir+0x182>
    57e0:	ae cf       	rjmp	.-164    	; 0x573e <fat_create_dir+0xde>
    return 1;
    57e2:	ff 24       	eor	r15, r15
    57e4:	f3 94       	inc	r15
    57e6:	52 cf       	rjmp	.-348    	; 0x568c <fat_create_dir+0x2c>

000057e8 <fat_get_fs_size>:
    if(!fs)
    57e8:	00 97       	sbiw	r24, 0x00	; 0
    57ea:	91 f0       	breq	.+36     	; 0x5810 <fat_get_fs_size+0x28>
        return (offset_t) (fs->header.fat_size / 2 - 2) * fs->header.cluster_size;
    57ec:	fc 01       	movw	r30, r24
    57ee:	22 85       	ldd	r18, Z+10	; 0x0a
    57f0:	33 85       	ldd	r19, Z+11	; 0x0b
    57f2:	44 85       	ldd	r20, Z+12	; 0x0c
    57f4:	55 85       	ldd	r21, Z+13	; 0x0d
    57f6:	56 95       	lsr	r21
    57f8:	47 95       	ror	r20
    57fa:	37 95       	ror	r19
    57fc:	27 95       	ror	r18
    57fe:	22 50       	subi	r18, 0x02	; 2
    5800:	31 09       	sbc	r19, r1
    5802:	41 09       	sbc	r20, r1
    5804:	51 09       	sbc	r21, r1
    5806:	a0 89       	ldd	r26, Z+16	; 0x10
    5808:	b1 89       	ldd	r27, Z+17	; 0x11
    580a:	0e 94 93 2f 	call	0x5f26	; 0x5f26 <__muluhisi3>
    580e:	08 95       	ret
        return 0;
    5810:	60 e0       	ldi	r22, 0x00	; 0
    5812:	70 e0       	ldi	r23, 0x00	; 0
    5814:	cb 01       	movw	r24, r22
}
    5816:	08 95       	ret

00005818 <fat_get_fs_free>:
{
    5818:	2f 92       	push	r2
    581a:	3f 92       	push	r3
    581c:	4f 92       	push	r4
    581e:	5f 92       	push	r5
    5820:	6f 92       	push	r6
    5822:	7f 92       	push	r7
    5824:	8f 92       	push	r8
    5826:	9f 92       	push	r9
    5828:	af 92       	push	r10
    582a:	bf 92       	push	r11
    582c:	cf 92       	push	r12
    582e:	df 92       	push	r13
    5830:	ef 92       	push	r14
    5832:	ff 92       	push	r15
    5834:	0f 93       	push	r16
    5836:	1f 93       	push	r17
    5838:	cf 93       	push	r28
    583a:	df 93       	push	r29
    583c:	cd b7       	in	r28, 0x3d	; 61
    583e:	de b7       	in	r29, 0x3e	; 62
    5840:	a8 97       	sbiw	r28, 0x28	; 40
    5842:	0f b6       	in	r0, 0x3f	; 63
    5844:	f8 94       	cli
    5846:	de bf       	out	0x3e, r29	; 62
    5848:	0f be       	out	0x3f, r0	; 63
    584a:	cd bf       	out	0x3d, r28	; 61
    584c:	1c 01       	movw	r2, r24
    if(!fs)
    584e:	89 2b       	or	r24, r25
    5850:	e1 f4       	brne	.+56     	; 0x588a <fat_get_fs_free+0x72>
        return 0;
    5852:	60 e0       	ldi	r22, 0x00	; 0
    5854:	70 e0       	ldi	r23, 0x00	; 0
    5856:	cb 01       	movw	r24, r22
}
    5858:	a8 96       	adiw	r28, 0x28	; 40
    585a:	0f b6       	in	r0, 0x3f	; 63
    585c:	f8 94       	cli
    585e:	de bf       	out	0x3e, r29	; 62
    5860:	0f be       	out	0x3f, r0	; 63
    5862:	cd bf       	out	0x3d, r28	; 61
    5864:	df 91       	pop	r29
    5866:	cf 91       	pop	r28
    5868:	1f 91       	pop	r17
    586a:	0f 91       	pop	r16
    586c:	ff 90       	pop	r15
    586e:	ef 90       	pop	r14
    5870:	df 90       	pop	r13
    5872:	cf 90       	pop	r12
    5874:	bf 90       	pop	r11
    5876:	af 90       	pop	r10
    5878:	9f 90       	pop	r9
    587a:	8f 90       	pop	r8
    587c:	7f 90       	pop	r7
    587e:	6f 90       	pop	r6
    5880:	5f 90       	pop	r5
    5882:	4f 90       	pop	r4
    5884:	3f 90       	pop	r3
    5886:	2f 90       	pop	r2
    5888:	08 95       	ret
    count_arg.cluster_count = 0;
    588a:	1a a2       	std	Y+34, r1	; 0x22
    588c:	19 a2       	std	Y+33, r1	; 0x21
    count_arg.buffer_size = sizeof(fat);
    588e:	80 e2       	ldi	r24, 0x20	; 32
    5890:	90 e0       	ldi	r25, 0x00	; 0
    5892:	9c a3       	std	Y+36, r25	; 0x24
    5894:	8b a3       	std	Y+35, r24	; 0x23
    offset_t fat_offset = fs->header.fat_offset;
    5896:	d1 01       	movw	r26, r2
    5898:	16 96       	adiw	r26, 0x06	; 6
    589a:	8d 91       	ld	r24, X+
    589c:	9d 91       	ld	r25, X+
    589e:	0d 90       	ld	r0, X+
    58a0:	bc 91       	ld	r27, X
    58a2:	a0 2d       	mov	r26, r0
    58a4:	8d a3       	std	Y+37, r24	; 0x25
    58a6:	9e a3       	std	Y+38, r25	; 0x26
    58a8:	af a3       	std	Y+39, r26	; 0x27
    58aa:	b8 a7       	std	Y+40, r27	; 0x28
    uint32_t fat_size = fs->header.fat_size;
    58ac:	f1 01       	movw	r30, r2
    58ae:	82 84       	ldd	r8, Z+10	; 0x0a
    58b0:	93 84       	ldd	r9, Z+11	; 0x0b
    58b2:	a4 84       	ldd	r10, Z+12	; 0x0c
    58b4:	b5 84       	ldd	r11, Z+13	; 0x0d
    while(fat_size > 0)
    58b6:	81 14       	cp	r8, r1
    58b8:	91 04       	cpc	r9, r1
    58ba:	a1 04       	cpc	r10, r1
    58bc:	b1 04       	cpc	r11, r1
    58be:	41 f4       	brne	.+16     	; 0x58d0 <fat_get_fs_free+0xb8>
    return (offset_t) count_arg.cluster_count * fs->header.cluster_size;
    58c0:	29 a1       	ldd	r18, Y+33	; 0x21
    58c2:	3a a1       	ldd	r19, Y+34	; 0x22
    58c4:	f1 01       	movw	r30, r2
    58c6:	a0 89       	ldd	r26, Z+16	; 0x10
    58c8:	b1 89       	ldd	r27, Z+17	; 0x11
    58ca:	0e 94 84 2f 	call	0x5f08	; 0x5f08 <__umulhisi3>
    58ce:	c4 cf       	rjmp	.-120    	; 0x5858 <fat_get_fs_free+0x40>
        if(fat_size < length)
    58d0:	9e ef       	ldi	r25, 0xFE	; 254
    58d2:	49 2e       	mov	r4, r25
    58d4:	55 24       	eor	r5, r5
    58d6:	5a 94       	dec	r5
    58d8:	61 2c       	mov	r6, r1
    58da:	71 2c       	mov	r7, r1
    58dc:	fe ef       	ldi	r31, 0xFE	; 254
    58de:	8f 16       	cp	r8, r31
    58e0:	ff ef       	ldi	r31, 0xFF	; 255
    58e2:	9f 06       	cpc	r9, r31
    58e4:	a1 04       	cpc	r10, r1
    58e6:	b1 04       	cpc	r11, r1
    58e8:	10 f4       	brcc	.+4      	; 0x58ee <fat_get_fs_free+0xd6>
    58ea:	24 01       	movw	r4, r8
    58ec:	35 01       	movw	r6, r10
        if(!fs->partition->device_read_interval(fat_offset,
    58ee:	d1 01       	movw	r26, r2
    58f0:	ed 91       	ld	r30, X+
    58f2:	fc 91       	ld	r31, X
    58f4:	02 80       	ldd	r0, Z+2	; 0x02
    58f6:	f3 81       	ldd	r31, Z+3	; 0x03
    58f8:	e0 2d       	mov	r30, r0
    58fa:	ce 01       	movw	r24, r28
    58fc:	81 96       	adiw	r24, 0x21	; 33
    58fe:	6c 01       	movw	r12, r24
    5900:	8e eb       	ldi	r24, 0xBE	; 190
    5902:	e8 2e       	mov	r14, r24
    5904:	8d e1       	ldi	r24, 0x1D	; 29
    5906:	f8 2e       	mov	r15, r24
    5908:	82 01       	movw	r16, r4
    590a:	20 e2       	ldi	r18, 0x20	; 32
    590c:	30 e0       	ldi	r19, 0x00	; 0
    590e:	ae 01       	movw	r20, r28
    5910:	4f 5f       	subi	r20, 0xFF	; 255
    5912:	5f 4f       	sbci	r21, 0xFF	; 255
    5914:	6d a1       	ldd	r22, Y+37	; 0x25
    5916:	7e a1       	ldd	r23, Y+38	; 0x26
    5918:	8f a1       	ldd	r24, Y+39	; 0x27
    591a:	98 a5       	ldd	r25, Y+40	; 0x28
    591c:	09 95       	icall
    591e:	88 23       	and	r24, r24
    5920:	09 f4       	brne	.+2      	; 0x5924 <fat_get_fs_free+0x10c>
    5922:	97 cf       	rjmp	.-210    	; 0x5852 <fat_get_fs_free+0x3a>
        fat_offset += length;
    5924:	8d a1       	ldd	r24, Y+37	; 0x25
    5926:	9e a1       	ldd	r25, Y+38	; 0x26
    5928:	af a1       	ldd	r26, Y+39	; 0x27
    592a:	b8 a5       	ldd	r27, Y+40	; 0x28
    592c:	84 0d       	add	r24, r4
    592e:	95 1d       	adc	r25, r5
    5930:	a6 1d       	adc	r26, r6
    5932:	b7 1d       	adc	r27, r7
    5934:	8d a3       	std	Y+37, r24	; 0x25
    5936:	9e a3       	std	Y+38, r25	; 0x26
    5938:	af a3       	std	Y+39, r26	; 0x27
    593a:	b8 a7       	std	Y+40, r27	; 0x28
        fat_size -= length;
    593c:	84 18       	sub	r8, r4
    593e:	95 08       	sbc	r9, r5
    5940:	a6 08       	sbc	r10, r6
    5942:	b7 08       	sbc	r11, r7
    5944:	b8 cf       	rjmp	.-144    	; 0x58b6 <fat_get_fs_free+0x9e>

00005946 <read16>:
 */
uint16_t read16(const uint8_t* p)
{
    return (((uint16_t) p[1]) << 8) |
           (((uint16_t) p[0]) << 0);
}
    5946:	fc 01       	movw	r30, r24
    5948:	80 81       	ld	r24, Z
    594a:	91 81       	ldd	r25, Z+1	; 0x01
    594c:	08 95       	ret

0000594e <read32>:
 */
uint32_t read32(const uint8_t* p)
{
    return (((uint32_t) p[3]) << 24) |
           (((uint32_t) p[2]) << 16) |
           (((uint32_t) p[1]) <<  8) |
    594e:	fc 01       	movw	r30, r24
    5950:	60 81       	ld	r22, Z
    5952:	71 81       	ldd	r23, Z+1	; 0x01
    5954:	82 81       	ldd	r24, Z+2	; 0x02
    5956:	93 81       	ldd	r25, Z+3	; 0x03
           (((uint32_t) p[0]) <<  0);
}
    5958:	08 95       	ret

0000595a <write16>:
 * \param[in] i The 16-bit integer to write.
 */
void write16(uint8_t* p, uint16_t i)
{
    p[1] = (uint8_t) ((i & 0xff00) >> 8);
    p[0] = (uint8_t) ((i & 0x00ff) >> 0);
    595a:	fc 01       	movw	r30, r24
    595c:	71 83       	std	Z+1, r23	; 0x01
    595e:	60 83       	st	Z, r22
}
    5960:	08 95       	ret

00005962 <write32>:
void write32(uint8_t* p, uint32_t i)
{
    p[3] = (uint8_t) ((i & 0xff000000) >> 24);
    p[2] = (uint8_t) ((i & 0x00ff0000) >> 16);
    p[1] = (uint8_t) ((i & 0x0000ff00) >>  8);
    p[0] = (uint8_t) ((i & 0x000000ff) >>  0);
    5962:	fc 01       	movw	r30, r24
    5964:	40 83       	st	Z, r20
    5966:	51 83       	std	Z+1, r21	; 0x01
    5968:	62 83       	std	Z+2, r22	; 0x02
    596a:	73 83       	std	Z+3, r23	; 0x03
}
    596c:	08 95       	ret

0000596e <main>:

int main(void)
{
    596e:	cd b7       	in	r28, 0x3d	; 61
    5970:	de b7       	in	r29, 0x3e	; 62
    5972:	ab 97       	sbiw	r28, 0x2b	; 43
    5974:	0f b6       	in	r0, 0x3f	; 63
    5976:	f8 94       	cli
    5978:	de bf       	out	0x3e, r29	; 62
    597a:	0f be       	out	0x3f, r0	; 63
    597c:	cd bf       	out	0x3d, r28	; 61
	/* Backlight pin PL3, set as output, set high for 100% output */
	DDRB |= (1<<PB2);
    597e:	22 9a       	sbi	0x04, 2	; 4
	PORTB |= (1<<PB2);
    5980:	2a 9a       	sbi	0x05, 2	; 5
	//PORTB &= ~(1<<PB2);
	
	
	DDRC |=(1<<PC3); 	//Ausgang LED
    5982:	3b 9a       	sbi	0x07, 3	; 7
	PORTC |= (1<<PC3);	//Led ein
    5984:	43 9a       	sbi	0x08, 3	; 8
	
	
	DDRD &= ~((1<<PD6) | (1<<PD2) | (1<<PD5)); 	//Taster 1-3
    5986:	8a b1       	in	r24, 0x0a	; 10
    5988:	8b 79       	andi	r24, 0x9B	; 155
    598a:	8a b9       	out	0x0a, r24	; 10
	PORTD |= ((1<<PD6) | (1<<PD2) | (1<<PD5)); 	//PUllups fr Taster einschalten
    598c:	8b b1       	in	r24, 0x0b	; 11
    598e:	84 66       	ori	r24, 0x64	; 100
    5990:	8b b9       	out	0x0b, r24	; 11
	
	DDRD &= ~(1<<PD4); //T0 Counter Input
    5992:	54 98       	cbi	0x0a, 4	; 10
	TCCR0B |= (1<<CS02) | (1<<CS01) | (1<<CS00);//Counter 0 enabled clock on rising edge
    5994:	85 b5       	in	r24, 0x25	; 37
    5996:	87 60       	ori	r24, 0x07	; 7
    5998:	85 bd       	out	0x25, r24	; 37
	
	//Timer 1 Configuration
	OCR1A = 0x009C;	//OCR1A = 0x3D08;==1sec
    599a:	8c e9       	ldi	r24, 0x9C	; 156
    599c:	90 e0       	ldi	r25, 0x00	; 0
    599e:	90 93 89 00 	sts	0x0089, r25	; 0x800089 <__TEXT_REGION_LENGTH__+0x7e0089>
    59a2:	80 93 88 00 	sts	0x0088, r24	; 0x800088 <__TEXT_REGION_LENGTH__+0x7e0088>
	
    TCCR1B |= (1 << WGM12);
    59a6:	80 91 81 00 	lds	r24, 0x0081	; 0x800081 <__TEXT_REGION_LENGTH__+0x7e0081>
    59aa:	88 60       	ori	r24, 0x08	; 8
    59ac:	80 93 81 00 	sts	0x0081, r24	; 0x800081 <__TEXT_REGION_LENGTH__+0x7e0081>
    // Mode 4, CTC on OCR1A

    TIMSK1 |= (1 << OCIE1A);
    59b0:	80 91 6f 00 	lds	r24, 0x006F	; 0x80006f <__TEXT_REGION_LENGTH__+0x7e006f>
    59b4:	82 60       	ori	r24, 0x02	; 2
    59b6:	80 93 6f 00 	sts	0x006F, r24	; 0x80006f <__TEXT_REGION_LENGTH__+0x7e006f>
    //Set interrupt on compare match

    TCCR1B |= (1 << CS12) | (1 << CS10);
    59ba:	80 91 81 00 	lds	r24, 0x0081	; 0x800081 <__TEXT_REGION_LENGTH__+0x7e0081>
    59be:	85 60       	ori	r24, 0x05	; 5
    59c0:	80 93 81 00 	sts	0x0081, r24	; 0x800081 <__TEXT_REGION_LENGTH__+0x7e0081>
    // set prescaler to 1024 and start the timer



    sei();
    59c4:	78 94       	sei
	glcd_init();
    59c6:	0e 94 c4 06 	call	0xd88	; 0xd88 <glcd_init>
	setup();
	
	
	
	
	zaehler=222;
    59ca:	8e ed       	ldi	r24, 0xDE	; 222
    59cc:	90 e0       	ldi	r25, 0x00	; 0
    59ce:	90 93 e7 04 	sts	0x04E7, r25	; 0x8004e7 <zaehler+0x1>
    59d2:	80 93 e6 04 	sts	0x04E6, r24	; 0x8004e6 <zaehler>
	entprell=0;
    59d6:	10 92 ec 04 	sts	0x04EC, r1	; 0x8004ec <entprell>
	test1=0;
    59da:	10 92 d2 04 	sts	0x04D2, r1	; 0x8004d2 <test1>
	test1_alt=0;
    59de:	10 92 e9 04 	sts	0x04E9, r1	; 0x8004e9 <test1_alt>
	test2=0;
    59e2:	10 92 f1 04 	sts	0x04F1, r1	; 0x8004f1 <test2+0x1>
    59e6:	10 92 f0 04 	sts	0x04F0, r1	; 0x8004f0 <test2>
	test2_alt=0;
    59ea:	10 92 d6 04 	sts	0x04D6, r1	; 0x8004d6 <test2_alt+0x1>
    59ee:	10 92 d5 04 	sts	0x04D5, r1	; 0x8004d5 <test2_alt>
	ms10=0;
    59f2:	10 92 df 04 	sts	0x04DF, r1	; 0x8004df <ms10>
	ms100=0;
    59f6:	10 92 ef 04 	sts	0x04EF, r1	; 0x8004ef <ms100>
	sec=0;
    59fa:	10 92 f2 04 	sts	0x04F2, r1	; 0x8004f2 <sec>
	min=0;
    59fe:	10 92 ee 04 	sts	0x04EE, r1	; 0x8004ee <min>
	sekunden=0;
    5a02:	10 92 e8 04 	sts	0x04E8, r1	; 0x8004e8 <sekunden>
	sekunden_alt=0;
    5a06:	10 92 e0 04 	sts	0x04E0, r1	; 0x8004e0 <sekunden_alt>
	minuten=0;
    5a0a:	10 92 ea 04 	sts	0x04EA, r1	; 0x8004ea <minuten>
	stunden=0;
    5a0e:	10 92 f8 04 	sts	0x04F8, r1	; 0x8004f8 <stunden>
	test3=0;
    5a12:	10 92 fc 04 	sts	0x04FC, r1	; 0x8004fc <test3+0x1>
    5a16:	10 92 fb 04 	sts	0x04FB, r1	; 0x8004fb <test3>
	aaa=255;
    5a1a:	8f ef       	ldi	r24, 0xFF	; 255
    5a1c:	80 93 d3 04 	sts	0x04D3, r24	; 0x8004d3 <aaa>
	bbb=0;
    5a20:	10 92 00 05 	sts	0x0500, r1	; 0x800500 <bbb>
	ccc=0;
    5a24:	10 92 01 05 	sts	0x0501, r1	; 0x800501 <ccc>
	ddd=0;
    5a28:	10 92 ff 04 	sts	0x04FF, r1	; 0x8004ff <ddd>
	temperatur=0;
    5a2c:	10 92 e2 04 	sts	0x04E2, r1	; 0x8004e2 <temperatur>
    5a30:	10 92 e3 04 	sts	0x04E3, r1	; 0x8004e3 <temperatur+0x1>
    5a34:	10 92 e4 04 	sts	0x04E4, r1	; 0x8004e4 <temperatur+0x2>
    5a38:	10 92 e5 04 	sts	0x04E5, r1	; 0x8004e5 <temperatur+0x3>
	error=0;
    5a3c:	10 92 f3 04 	sts	0x04F3, r1	; 0x8004f3 <error>
	pressure = 0;
    5a40:	10 92 d7 04 	sts	0x04D7, r1	; 0x8004d7 <pressure>
    5a44:	10 92 d8 04 	sts	0x04D8, r1	; 0x8004d8 <pressure+0x1>
    5a48:	10 92 d9 04 	sts	0x04D9, r1	; 0x8004d9 <pressure+0x2>
    5a4c:	10 92 da 04 	sts	0x04DA, r1	; 0x8004da <pressure+0x3>
	humidity = 0;
    5a50:	10 92 db 04 	sts	0x04DB, r1	; 0x8004db <humidity>
    5a54:	10 92 dc 04 	sts	0x04DC, r1	; 0x8004dc <humidity+0x1>
    5a58:	10 92 dd 04 	sts	0x04DD, r1	; 0x8004dd <humidity+0x2>
    5a5c:	10 92 de 04 	sts	0x04DE, r1	; 0x8004de <humidity+0x3>
	nachk =0;
    5a60:	10 92 fe 04 	sts	0x04FE, r1	; 0x8004fe <nachk+0x1>
    5a64:	10 92 fd 04 	sts	0x04FD, r1	; 0x8004fd <nachk>
	vork =0;
    5a68:	10 92 fa 04 	sts	0x04FA, r1	; 0x8004fa <vork+0x1>
    5a6c:	10 92 f9 04 	sts	0x04F9, r1	; 0x8004f9 <vork>
	flag_send=0;
    5a70:	10 92 ed 04 	sts	0x04ED, r1	; 0x8004ed <flag_send>
	flag_send_index=0;
    5a74:	10 92 cc 04 	sts	0x04CC, r1	; 0x8004cc <flag_send_index>

	
		glcd_tiny_set_font(Font5x7,5,7,32,127);
    5a78:	0f e7       	ldi	r16, 0x7F	; 127
    5a7a:	20 e2       	ldi	r18, 0x20	; 32
    5a7c:	47 e0       	ldi	r20, 0x07	; 7
    5a7e:	65 e0       	ldi	r22, 0x05	; 5
    5a80:	88 e6       	ldi	r24, 0x68	; 104
    5a82:	90 e0       	ldi	r25, 0x00	; 0
    5a84:	0e 94 37 11 	call	0x226e	; 0x226e <glcd_tiny_set_font>
		glcd_clear_buffer();
    5a88:	0e 94 7f 06 	call	0xcfe	; 0xcfe <glcd_clear_buffer>
		
	
  
	BME280_init();
    5a8c:	0e 94 34 13 	call	0x2668	; 0x2668 <BME280_init>
   BME280_set_filter(BME280_FILTER_16);
    5a90:	84 e0       	ldi	r24, 0x04	; 4
    5a92:	0e 94 e3 13 	call	0x27c6	; 0x27c6 <BME280_set_filter>
	BME280_set_standby(BME280_TSB_10);
    5a96:	86 e0       	ldi	r24, 0x06	; 6
    5a98:	0e 94 0a 14 	call	0x2814	; 0x2814 <BME280_set_standby>
   BME280_set_measure(BME280_OVER_16, BME280_HUM);
    5a9c:	60 e0       	ldi	r22, 0x00	; 0
    5a9e:	85 e0       	ldi	r24, 0x05	; 5
    5aa0:	0e 94 31 14 	call	0x2862	; 0x2862 <BME280_set_measure>
   BME280_set_measure(BME280_OVER_16,  BME280_PRESS);
    5aa4:	61 e0       	ldi	r22, 0x01	; 1
    5aa6:	85 e0       	ldi	r24, 0x05	; 5
    5aa8:	0e 94 31 14 	call	0x2862	; 0x2862 <BME280_set_measure>
   BME280_set_measure(BME280_OVER_16, BME280_TEMP);
    5aac:	62 e0       	ldi	r22, 0x02	; 2
    5aae:	85 e0       	ldi	r24, 0x05	; 5
    5ab0:	0e 94 31 14 	call	0x2862	; 0x2862 <BME280_set_measure>
   BME280_set_measuremode(BME280_MODE_NORM);
    5ab4:	83 e0       	ldi	r24, 0x03	; 3
    5ab6:	0e 94 71 14 	call	0x28e2	; 0x28e2 <BME280_set_measuremode>
	
 		
 	
		glcd_clear();
    5aba:	0e 94 6b 06 	call	0xcd6	; 0xcd6 <glcd_clear>
		
		     // setup sd card slot
        if(!sd_raw_init())
    5abe:	0e 94 2b 1a 	call	0x3456	; 0x3456 <sd_raw_init>
    5ac2:	81 11       	cpse	r24, r1
    5ac4:	05 c0       	rjmp	.+10     	; 0x5ad0 <main+0x162>
        {
           glcd_draw_string_xy(0,0,"Init fail...");
    5ac6:	41 e1       	ldi	r20, 0x11	; 17
    5ac8:	51 e0       	ldi	r21, 0x01	; 1
    5aca:	60 e0       	ldi	r22, 0x00	; 0
    5acc:	0e 94 a5 0a 	call	0x154a	; 0x154a <glcd_draw_string_xy>
        }

	 // open first partition 
        struct partition_struct* partition = partition_open(sd_raw_read,sd_raw_read_interval,sd_raw_write,sd_raw_write_interval,0);
    5ad0:	00 e0       	ldi	r16, 0x00	; 0
    5ad2:	20 ed       	ldi	r18, 0xD0	; 208
    5ad4:	3b e1       	ldi	r19, 0x1B	; 27
    5ad6:	44 e0       	ldi	r20, 0x04	; 4
    5ad8:	5b e1       	ldi	r21, 0x1B	; 27
    5ada:	61 eb       	ldi	r22, 0xB1	; 177
    5adc:	7a e1       	ldi	r23, 0x1A	; 26
    5ade:	87 e9       	ldi	r24, 0x97	; 151
    5ae0:	99 e1       	ldi	r25, 0x19	; 25
    5ae2:	0e 94 1c 1d 	call	0x3a38	; 0x3a38 <partition_open>
    5ae6:	8c 01       	movw	r16, r24
                                                           
		if(!partition)
    5ae8:	89 2b       	or	r24, r25
    5aea:	a1 f4       	brne	.+40     	; 0x5b14 <main+0x1a6>
		{
           // If the partition did not open, assume the storage device
             // is a "superfloppy", i.e. has no MBR.
             
            partition = partition_open(sd_raw_read,sd_raw_read_interval,sd_raw_write,sd_raw_write_interval,-1);
    5aec:	0f ef       	ldi	r16, 0xFF	; 255
    5aee:	20 ed       	ldi	r18, 0xD0	; 208
    5af0:	3b e1       	ldi	r19, 0x1B	; 27
    5af2:	44 e0       	ldi	r20, 0x04	; 4
    5af4:	5b e1       	ldi	r21, 0x1B	; 27
    5af6:	61 eb       	ldi	r22, 0xB1	; 177
    5af8:	7a e1       	ldi	r23, 0x1A	; 26
    5afa:	87 e9       	ldi	r24, 0x97	; 151
    5afc:	99 e1       	ldi	r25, 0x19	; 25
    5afe:	0e 94 1c 1d 	call	0x3a38	; 0x3a38 <partition_open>
    5b02:	8c 01       	movw	r16, r24
            if(!partition)
    5b04:	89 2b       	or	r24, r25
    5b06:	31 f4       	brne	.+12     	; 0x5b14 <main+0x1a6>
            {
				glcd_draw_string_xy(0,0,"part failed...");
    5b08:	4e e1       	ldi	r20, 0x1E	; 30
    5b0a:	51 e0       	ldi	r21, 0x01	; 1
    5b0c:	60 e0       	ldi	r22, 0x00	; 0
    5b0e:	80 e0       	ldi	r24, 0x00	; 0
    5b10:	0e 94 a5 0a 	call	0x154a	; 0x154a <glcd_draw_string_xy>
            }
        }                                               
     
		 /* open file system */
        struct fat_fs_struct* fs = fat_open(partition);
    5b14:	c8 01       	movw	r24, r16
    5b16:	0e 94 f5 22 	call	0x45ea	; 0x45ea <fat_open>
    5b1a:	8c 01       	movw	r16, r24
        if(!fs)
    5b1c:	89 2b       	or	r24, r25
    5b1e:	31 f4       	brne	.+12     	; 0x5b2c <main+0x1be>
        {
            glcd_draw_string_xy(0,0,"fs failed...");
    5b20:	4d e2       	ldi	r20, 0x2D	; 45
    5b22:	51 e0       	ldi	r21, 0x01	; 1
    5b24:	60 e0       	ldi	r22, 0x00	; 0
    5b26:	80 e0       	ldi	r24, 0x00	; 0
    5b28:	0e 94 a5 0a 	call	0x154a	; 0x154a <glcd_draw_string_xy>
        }

        /* open root directory */
        struct fat_dir_entry_struct directory;
        fat_get_dir_entry_of_path(fs, "/", &directory);
    5b2c:	ae 01       	movw	r20, r28
    5b2e:	4f 5f       	subi	r20, 0xFF	; 255
    5b30:	5f 4f       	sbci	r21, 0xFF	; 255
    5b32:	6a e3       	ldi	r22, 0x3A	; 58
    5b34:	71 e0       	ldi	r23, 0x01	; 1
    5b36:	c8 01       	movw	r24, r16
    5b38:	0e 94 57 29 	call	0x52ae	; 0x52ae <fat_get_dir_entry_of_path>

        struct fat_dir_struct* dd = fat_open_dir(fs, &directory);
    5b3c:	be 01       	movw	r22, r28
    5b3e:	6f 5f       	subi	r22, 0xFF	; 255
    5b40:	7f 4f       	sbci	r23, 0xFF	; 255
    5b42:	c8 01       	movw	r24, r16
    5b44:	0e 94 53 28 	call	0x50a6	; 0x50a6 <fat_open_dir>
        if(!dd)
    5b48:	89 2b       	or	r24, r25
    5b4a:	31 f4       	brne	.+12     	; 0x5b58 <main+0x1ea>
        {
            glcd_draw_string_xy(0,0,"root failed...");
    5b4c:	4c e3       	ldi	r20, 0x3C	; 60
    5b4e:	51 e0       	ldi	r21, 0x01	; 1
    5b50:	60 e0       	ldi	r22, 0x00	; 0
    5b52:	80 e0       	ldi	r24, 0x00	; 0
    5b54:	0e 94 a5 0a 	call	0x154a	; 0x154a <glcd_draw_string_xy>
				uart_send_char('\n');
			*/
		
		if(T_RED)
		{
			flag_send=1;
    5b58:	11 e0       	ldi	r17, 0x01	; 1
	glcd_draw_string_xy(0,0,"SD success...");
    5b5a:	4b e4       	ldi	r20, 0x4B	; 75
    5b5c:	51 e0       	ldi	r21, 0x01	; 1
    5b5e:	60 e0       	ldi	r22, 0x00	; 0
    5b60:	80 e0       	ldi	r24, 0x00	; 0
    5b62:	0e 94 a5 0a 	call	0x154a	; 0x154a <glcd_draw_string_xy>
		if(T_RED)
    5b66:	89 b1       	in	r24, 0x09	; 9
    5b68:	80 72       	andi	r24, 0x20	; 32
    5b6a:	90 91 ec 04 	lds	r25, 0x04EC	; 0x8004ec <entprell>
    5b6e:	89 2b       	or	r24, r25
    5b70:	29 f4       	brne	.+10     	; 0x5b7c <main+0x20e>
			flag_send=1;
    5b72:	10 93 ed 04 	sts	0x04ED, r17	; 0x8004ed <flag_send>
			LED_AUS;
    5b76:	43 98       	cbi	0x08, 3	; 8
			flag_send_index=0;
    5b78:	10 92 cc 04 	sts	0x04CC, r1	; 0x8004cc <flag_send_index>
		}
		
		if(T_BLUE)
    5b7c:	89 b1       	in	r24, 0x09	; 9
    5b7e:	80 74       	andi	r24, 0x40	; 64
    5b80:	90 91 ec 04 	lds	r25, 0x04EC	; 0x8004ec <entprell>
    5b84:	89 2b       	or	r24, r25
    5b86:	29 f4       	brne	.+10     	; 0x5b92 <main+0x224>
		{
			LED_EIN;
    5b88:	43 9a       	sbi	0x08, 3	; 8
			flag_send=0;
    5b8a:	10 92 ed 04 	sts	0x04ED, r1	; 0x8004ed <flag_send>
			flag_send_index=1;
    5b8e:	10 93 cc 04 	sts	0x04CC, r17	; 0x8004cc <flag_send_index>
		}
		
	
	glcd_write();
    5b92:	0e 94 10 07 	call	0xe20	; 0xe20 <glcd_write>
	glcd_draw_string_xy(0,0,"SD success...");
    5b96:	e1 cf       	rjmp	.-62     	; 0x5b5a <main+0x1ec>

00005b98 <__cmpsf2>:
    5b98:	0e 94 3d 2e 	call	0x5c7a	; 0x5c7a <__fp_cmp>
    5b9c:	08 f4       	brcc	.+2      	; 0x5ba0 <__cmpsf2+0x8>
    5b9e:	81 e0       	ldi	r24, 0x01	; 1
    5ba0:	08 95       	ret

00005ba2 <__fixunssfsi>:
    5ba2:	0e 94 69 2e 	call	0x5cd2	; 0x5cd2 <__fp_splitA>
    5ba6:	88 f0       	brcs	.+34     	; 0x5bca <__fixunssfsi+0x28>
    5ba8:	9f 57       	subi	r25, 0x7F	; 127
    5baa:	98 f0       	brcs	.+38     	; 0x5bd2 <__fixunssfsi+0x30>
    5bac:	b9 2f       	mov	r27, r25
    5bae:	99 27       	eor	r25, r25
    5bb0:	b7 51       	subi	r27, 0x17	; 23
    5bb2:	b0 f0       	brcs	.+44     	; 0x5be0 <__fixunssfsi+0x3e>
    5bb4:	e1 f0       	breq	.+56     	; 0x5bee <__fixunssfsi+0x4c>
    5bb6:	66 0f       	add	r22, r22
    5bb8:	77 1f       	adc	r23, r23
    5bba:	88 1f       	adc	r24, r24
    5bbc:	99 1f       	adc	r25, r25
    5bbe:	1a f0       	brmi	.+6      	; 0x5bc6 <__fixunssfsi+0x24>
    5bc0:	ba 95       	dec	r27
    5bc2:	c9 f7       	brne	.-14     	; 0x5bb6 <__fixunssfsi+0x14>
    5bc4:	14 c0       	rjmp	.+40     	; 0x5bee <__fixunssfsi+0x4c>
    5bc6:	b1 30       	cpi	r27, 0x01	; 1
    5bc8:	91 f0       	breq	.+36     	; 0x5bee <__fixunssfsi+0x4c>
    5bca:	0e 94 83 2e 	call	0x5d06	; 0x5d06 <__fp_zero>
    5bce:	b1 e0       	ldi	r27, 0x01	; 1
    5bd0:	08 95       	ret
    5bd2:	0c 94 83 2e 	jmp	0x5d06	; 0x5d06 <__fp_zero>
    5bd6:	67 2f       	mov	r22, r23
    5bd8:	78 2f       	mov	r23, r24
    5bda:	88 27       	eor	r24, r24
    5bdc:	b8 5f       	subi	r27, 0xF8	; 248
    5bde:	39 f0       	breq	.+14     	; 0x5bee <__fixunssfsi+0x4c>
    5be0:	b9 3f       	cpi	r27, 0xF9	; 249
    5be2:	cc f3       	brlt	.-14     	; 0x5bd6 <__fixunssfsi+0x34>
    5be4:	86 95       	lsr	r24
    5be6:	77 95       	ror	r23
    5be8:	67 95       	ror	r22
    5bea:	b3 95       	inc	r27
    5bec:	d9 f7       	brne	.-10     	; 0x5be4 <__fixunssfsi+0x42>
    5bee:	3e f4       	brtc	.+14     	; 0x5bfe <__fixunssfsi+0x5c>
    5bf0:	90 95       	com	r25
    5bf2:	80 95       	com	r24
    5bf4:	70 95       	com	r23
    5bf6:	61 95       	neg	r22
    5bf8:	7f 4f       	sbci	r23, 0xFF	; 255
    5bfa:	8f 4f       	sbci	r24, 0xFF	; 255
    5bfc:	9f 4f       	sbci	r25, 0xFF	; 255
    5bfe:	08 95       	ret

00005c00 <__floatunsisf>:
    5c00:	e8 94       	clt
    5c02:	09 c0       	rjmp	.+18     	; 0x5c16 <__floatsisf+0x12>

00005c04 <__floatsisf>:
    5c04:	97 fb       	bst	r25, 7
    5c06:	3e f4       	brtc	.+14     	; 0x5c16 <__floatsisf+0x12>
    5c08:	90 95       	com	r25
    5c0a:	80 95       	com	r24
    5c0c:	70 95       	com	r23
    5c0e:	61 95       	neg	r22
    5c10:	7f 4f       	sbci	r23, 0xFF	; 255
    5c12:	8f 4f       	sbci	r24, 0xFF	; 255
    5c14:	9f 4f       	sbci	r25, 0xFF	; 255
    5c16:	99 23       	and	r25, r25
    5c18:	a9 f0       	breq	.+42     	; 0x5c44 <__floatsisf+0x40>
    5c1a:	f9 2f       	mov	r31, r25
    5c1c:	96 e9       	ldi	r25, 0x96	; 150
    5c1e:	bb 27       	eor	r27, r27
    5c20:	93 95       	inc	r25
    5c22:	f6 95       	lsr	r31
    5c24:	87 95       	ror	r24
    5c26:	77 95       	ror	r23
    5c28:	67 95       	ror	r22
    5c2a:	b7 95       	ror	r27
    5c2c:	f1 11       	cpse	r31, r1
    5c2e:	f8 cf       	rjmp	.-16     	; 0x5c20 <__floatsisf+0x1c>
    5c30:	fa f4       	brpl	.+62     	; 0x5c70 <__floatsisf+0x6c>
    5c32:	bb 0f       	add	r27, r27
    5c34:	11 f4       	brne	.+4      	; 0x5c3a <__floatsisf+0x36>
    5c36:	60 ff       	sbrs	r22, 0
    5c38:	1b c0       	rjmp	.+54     	; 0x5c70 <__floatsisf+0x6c>
    5c3a:	6f 5f       	subi	r22, 0xFF	; 255
    5c3c:	7f 4f       	sbci	r23, 0xFF	; 255
    5c3e:	8f 4f       	sbci	r24, 0xFF	; 255
    5c40:	9f 4f       	sbci	r25, 0xFF	; 255
    5c42:	16 c0       	rjmp	.+44     	; 0x5c70 <__floatsisf+0x6c>
    5c44:	88 23       	and	r24, r24
    5c46:	11 f0       	breq	.+4      	; 0x5c4c <__floatsisf+0x48>
    5c48:	96 e9       	ldi	r25, 0x96	; 150
    5c4a:	11 c0       	rjmp	.+34     	; 0x5c6e <__floatsisf+0x6a>
    5c4c:	77 23       	and	r23, r23
    5c4e:	21 f0       	breq	.+8      	; 0x5c58 <__floatsisf+0x54>
    5c50:	9e e8       	ldi	r25, 0x8E	; 142
    5c52:	87 2f       	mov	r24, r23
    5c54:	76 2f       	mov	r23, r22
    5c56:	05 c0       	rjmp	.+10     	; 0x5c62 <__floatsisf+0x5e>
    5c58:	66 23       	and	r22, r22
    5c5a:	71 f0       	breq	.+28     	; 0x5c78 <__floatsisf+0x74>
    5c5c:	96 e8       	ldi	r25, 0x86	; 134
    5c5e:	86 2f       	mov	r24, r22
    5c60:	70 e0       	ldi	r23, 0x00	; 0
    5c62:	60 e0       	ldi	r22, 0x00	; 0
    5c64:	2a f0       	brmi	.+10     	; 0x5c70 <__floatsisf+0x6c>
    5c66:	9a 95       	dec	r25
    5c68:	66 0f       	add	r22, r22
    5c6a:	77 1f       	adc	r23, r23
    5c6c:	88 1f       	adc	r24, r24
    5c6e:	da f7       	brpl	.-10     	; 0x5c66 <__floatsisf+0x62>
    5c70:	88 0f       	add	r24, r24
    5c72:	96 95       	lsr	r25
    5c74:	87 95       	ror	r24
    5c76:	97 f9       	bld	r25, 7
    5c78:	08 95       	ret

00005c7a <__fp_cmp>:
    5c7a:	99 0f       	add	r25, r25
    5c7c:	00 08       	sbc	r0, r0
    5c7e:	55 0f       	add	r21, r21
    5c80:	aa 0b       	sbc	r26, r26
    5c82:	e0 e8       	ldi	r30, 0x80	; 128
    5c84:	fe ef       	ldi	r31, 0xFE	; 254
    5c86:	16 16       	cp	r1, r22
    5c88:	17 06       	cpc	r1, r23
    5c8a:	e8 07       	cpc	r30, r24
    5c8c:	f9 07       	cpc	r31, r25
    5c8e:	c0 f0       	brcs	.+48     	; 0x5cc0 <__fp_cmp+0x46>
    5c90:	12 16       	cp	r1, r18
    5c92:	13 06       	cpc	r1, r19
    5c94:	e4 07       	cpc	r30, r20
    5c96:	f5 07       	cpc	r31, r21
    5c98:	98 f0       	brcs	.+38     	; 0x5cc0 <__fp_cmp+0x46>
    5c9a:	62 1b       	sub	r22, r18
    5c9c:	73 0b       	sbc	r23, r19
    5c9e:	84 0b       	sbc	r24, r20
    5ca0:	95 0b       	sbc	r25, r21
    5ca2:	39 f4       	brne	.+14     	; 0x5cb2 <__fp_cmp+0x38>
    5ca4:	0a 26       	eor	r0, r26
    5ca6:	61 f0       	breq	.+24     	; 0x5cc0 <__fp_cmp+0x46>
    5ca8:	23 2b       	or	r18, r19
    5caa:	24 2b       	or	r18, r20
    5cac:	25 2b       	or	r18, r21
    5cae:	21 f4       	brne	.+8      	; 0x5cb8 <__fp_cmp+0x3e>
    5cb0:	08 95       	ret
    5cb2:	0a 26       	eor	r0, r26
    5cb4:	09 f4       	brne	.+2      	; 0x5cb8 <__fp_cmp+0x3e>
    5cb6:	a1 40       	sbci	r26, 0x01	; 1
    5cb8:	a6 95       	lsr	r26
    5cba:	8f ef       	ldi	r24, 0xFF	; 255
    5cbc:	81 1d       	adc	r24, r1
    5cbe:	81 1d       	adc	r24, r1
    5cc0:	08 95       	ret

00005cc2 <__fp_split3>:
    5cc2:	57 fd       	sbrc	r21, 7
    5cc4:	90 58       	subi	r25, 0x80	; 128
    5cc6:	44 0f       	add	r20, r20
    5cc8:	55 1f       	adc	r21, r21
    5cca:	59 f0       	breq	.+22     	; 0x5ce2 <__fp_splitA+0x10>
    5ccc:	5f 3f       	cpi	r21, 0xFF	; 255
    5cce:	71 f0       	breq	.+28     	; 0x5cec <__fp_splitA+0x1a>
    5cd0:	47 95       	ror	r20

00005cd2 <__fp_splitA>:
    5cd2:	88 0f       	add	r24, r24
    5cd4:	97 fb       	bst	r25, 7
    5cd6:	99 1f       	adc	r25, r25
    5cd8:	61 f0       	breq	.+24     	; 0x5cf2 <__fp_splitA+0x20>
    5cda:	9f 3f       	cpi	r25, 0xFF	; 255
    5cdc:	79 f0       	breq	.+30     	; 0x5cfc <__fp_splitA+0x2a>
    5cde:	87 95       	ror	r24
    5ce0:	08 95       	ret
    5ce2:	12 16       	cp	r1, r18
    5ce4:	13 06       	cpc	r1, r19
    5ce6:	14 06       	cpc	r1, r20
    5ce8:	55 1f       	adc	r21, r21
    5cea:	f2 cf       	rjmp	.-28     	; 0x5cd0 <__fp_split3+0xe>
    5cec:	46 95       	lsr	r20
    5cee:	f1 df       	rcall	.-30     	; 0x5cd2 <__fp_splitA>
    5cf0:	08 c0       	rjmp	.+16     	; 0x5d02 <__fp_splitA+0x30>
    5cf2:	16 16       	cp	r1, r22
    5cf4:	17 06       	cpc	r1, r23
    5cf6:	18 06       	cpc	r1, r24
    5cf8:	99 1f       	adc	r25, r25
    5cfa:	f1 cf       	rjmp	.-30     	; 0x5cde <__fp_splitA+0xc>
    5cfc:	86 95       	lsr	r24
    5cfe:	71 05       	cpc	r23, r1
    5d00:	61 05       	cpc	r22, r1
    5d02:	08 94       	sec
    5d04:	08 95       	ret

00005d06 <__fp_zero>:
    5d06:	e8 94       	clt

00005d08 <__fp_szero>:
    5d08:	bb 27       	eor	r27, r27
    5d0a:	66 27       	eor	r22, r22
    5d0c:	77 27       	eor	r23, r23
    5d0e:	cb 01       	movw	r24, r22
    5d10:	97 f9       	bld	r25, 7
    5d12:	08 95       	ret

00005d14 <__gesf2>:
    5d14:	0e 94 3d 2e 	call	0x5c7a	; 0x5c7a <__fp_cmp>
    5d18:	08 f4       	brcc	.+2      	; 0x5d1c <__gesf2+0x8>
    5d1a:	8f ef       	ldi	r24, 0xFF	; 255
    5d1c:	08 95       	ret

00005d1e <__mulsf3>:
    5d1e:	0e 94 a2 2e 	call	0x5d44	; 0x5d44 <__mulsf3x>
    5d22:	0c 94 13 2f 	jmp	0x5e26	; 0x5e26 <__fp_round>
    5d26:	0e 94 05 2f 	call	0x5e0a	; 0x5e0a <__fp_pscA>
    5d2a:	38 f0       	brcs	.+14     	; 0x5d3a <__mulsf3+0x1c>
    5d2c:	0e 94 0c 2f 	call	0x5e18	; 0x5e18 <__fp_pscB>
    5d30:	20 f0       	brcs	.+8      	; 0x5d3a <__mulsf3+0x1c>
    5d32:	95 23       	and	r25, r21
    5d34:	11 f0       	breq	.+4      	; 0x5d3a <__mulsf3+0x1c>
    5d36:	0c 94 fc 2e 	jmp	0x5df8	; 0x5df8 <__fp_inf>
    5d3a:	0c 94 02 2f 	jmp	0x5e04	; 0x5e04 <__fp_nan>
    5d3e:	11 24       	eor	r1, r1
    5d40:	0c 94 84 2e 	jmp	0x5d08	; 0x5d08 <__fp_szero>

00005d44 <__mulsf3x>:
    5d44:	0e 94 61 2e 	call	0x5cc2	; 0x5cc2 <__fp_split3>
    5d48:	70 f3       	brcs	.-36     	; 0x5d26 <__mulsf3+0x8>

00005d4a <__mulsf3_pse>:
    5d4a:	95 9f       	mul	r25, r21
    5d4c:	c1 f3       	breq	.-16     	; 0x5d3e <__mulsf3+0x20>
    5d4e:	95 0f       	add	r25, r21
    5d50:	50 e0       	ldi	r21, 0x00	; 0
    5d52:	55 1f       	adc	r21, r21
    5d54:	62 9f       	mul	r22, r18
    5d56:	f0 01       	movw	r30, r0
    5d58:	72 9f       	mul	r23, r18
    5d5a:	bb 27       	eor	r27, r27
    5d5c:	f0 0d       	add	r31, r0
    5d5e:	b1 1d       	adc	r27, r1
    5d60:	63 9f       	mul	r22, r19
    5d62:	aa 27       	eor	r26, r26
    5d64:	f0 0d       	add	r31, r0
    5d66:	b1 1d       	adc	r27, r1
    5d68:	aa 1f       	adc	r26, r26
    5d6a:	64 9f       	mul	r22, r20
    5d6c:	66 27       	eor	r22, r22
    5d6e:	b0 0d       	add	r27, r0
    5d70:	a1 1d       	adc	r26, r1
    5d72:	66 1f       	adc	r22, r22
    5d74:	82 9f       	mul	r24, r18
    5d76:	22 27       	eor	r18, r18
    5d78:	b0 0d       	add	r27, r0
    5d7a:	a1 1d       	adc	r26, r1
    5d7c:	62 1f       	adc	r22, r18
    5d7e:	73 9f       	mul	r23, r19
    5d80:	b0 0d       	add	r27, r0
    5d82:	a1 1d       	adc	r26, r1
    5d84:	62 1f       	adc	r22, r18
    5d86:	83 9f       	mul	r24, r19
    5d88:	a0 0d       	add	r26, r0
    5d8a:	61 1d       	adc	r22, r1
    5d8c:	22 1f       	adc	r18, r18
    5d8e:	74 9f       	mul	r23, r20
    5d90:	33 27       	eor	r19, r19
    5d92:	a0 0d       	add	r26, r0
    5d94:	61 1d       	adc	r22, r1
    5d96:	23 1f       	adc	r18, r19
    5d98:	84 9f       	mul	r24, r20
    5d9a:	60 0d       	add	r22, r0
    5d9c:	21 1d       	adc	r18, r1
    5d9e:	82 2f       	mov	r24, r18
    5da0:	76 2f       	mov	r23, r22
    5da2:	6a 2f       	mov	r22, r26
    5da4:	11 24       	eor	r1, r1
    5da6:	9f 57       	subi	r25, 0x7F	; 127
    5da8:	50 40       	sbci	r21, 0x00	; 0
    5daa:	9a f0       	brmi	.+38     	; 0x5dd2 <__mulsf3_pse+0x88>
    5dac:	f1 f0       	breq	.+60     	; 0x5dea <__mulsf3_pse+0xa0>
    5dae:	88 23       	and	r24, r24
    5db0:	4a f0       	brmi	.+18     	; 0x5dc4 <__mulsf3_pse+0x7a>
    5db2:	ee 0f       	add	r30, r30
    5db4:	ff 1f       	adc	r31, r31
    5db6:	bb 1f       	adc	r27, r27
    5db8:	66 1f       	adc	r22, r22
    5dba:	77 1f       	adc	r23, r23
    5dbc:	88 1f       	adc	r24, r24
    5dbe:	91 50       	subi	r25, 0x01	; 1
    5dc0:	50 40       	sbci	r21, 0x00	; 0
    5dc2:	a9 f7       	brne	.-22     	; 0x5dae <__mulsf3_pse+0x64>
    5dc4:	9e 3f       	cpi	r25, 0xFE	; 254
    5dc6:	51 05       	cpc	r21, r1
    5dc8:	80 f0       	brcs	.+32     	; 0x5dea <__mulsf3_pse+0xa0>
    5dca:	0c 94 fc 2e 	jmp	0x5df8	; 0x5df8 <__fp_inf>
    5dce:	0c 94 84 2e 	jmp	0x5d08	; 0x5d08 <__fp_szero>
    5dd2:	5f 3f       	cpi	r21, 0xFF	; 255
    5dd4:	e4 f3       	brlt	.-8      	; 0x5dce <__mulsf3_pse+0x84>
    5dd6:	98 3e       	cpi	r25, 0xE8	; 232
    5dd8:	d4 f3       	brlt	.-12     	; 0x5dce <__mulsf3_pse+0x84>
    5dda:	86 95       	lsr	r24
    5ddc:	77 95       	ror	r23
    5dde:	67 95       	ror	r22
    5de0:	b7 95       	ror	r27
    5de2:	f7 95       	ror	r31
    5de4:	e7 95       	ror	r30
    5de6:	9f 5f       	subi	r25, 0xFF	; 255
    5de8:	c1 f7       	brne	.-16     	; 0x5dda <__mulsf3_pse+0x90>
    5dea:	fe 2b       	or	r31, r30
    5dec:	88 0f       	add	r24, r24
    5dee:	91 1d       	adc	r25, r1
    5df0:	96 95       	lsr	r25
    5df2:	87 95       	ror	r24
    5df4:	97 f9       	bld	r25, 7
    5df6:	08 95       	ret

00005df8 <__fp_inf>:
    5df8:	97 f9       	bld	r25, 7
    5dfa:	9f 67       	ori	r25, 0x7F	; 127
    5dfc:	80 e8       	ldi	r24, 0x80	; 128
    5dfe:	70 e0       	ldi	r23, 0x00	; 0
    5e00:	60 e0       	ldi	r22, 0x00	; 0
    5e02:	08 95       	ret

00005e04 <__fp_nan>:
    5e04:	9f ef       	ldi	r25, 0xFF	; 255
    5e06:	80 ec       	ldi	r24, 0xC0	; 192
    5e08:	08 95       	ret

00005e0a <__fp_pscA>:
    5e0a:	00 24       	eor	r0, r0
    5e0c:	0a 94       	dec	r0
    5e0e:	16 16       	cp	r1, r22
    5e10:	17 06       	cpc	r1, r23
    5e12:	18 06       	cpc	r1, r24
    5e14:	09 06       	cpc	r0, r25
    5e16:	08 95       	ret

00005e18 <__fp_pscB>:
    5e18:	00 24       	eor	r0, r0
    5e1a:	0a 94       	dec	r0
    5e1c:	12 16       	cp	r1, r18
    5e1e:	13 06       	cpc	r1, r19
    5e20:	14 06       	cpc	r1, r20
    5e22:	05 06       	cpc	r0, r21
    5e24:	08 95       	ret

00005e26 <__fp_round>:
    5e26:	09 2e       	mov	r0, r25
    5e28:	03 94       	inc	r0
    5e2a:	00 0c       	add	r0, r0
    5e2c:	11 f4       	brne	.+4      	; 0x5e32 <__fp_round+0xc>
    5e2e:	88 23       	and	r24, r24
    5e30:	52 f0       	brmi	.+20     	; 0x5e46 <__fp_round+0x20>
    5e32:	bb 0f       	add	r27, r27
    5e34:	40 f4       	brcc	.+16     	; 0x5e46 <__fp_round+0x20>
    5e36:	bf 2b       	or	r27, r31
    5e38:	11 f4       	brne	.+4      	; 0x5e3e <__fp_round+0x18>
    5e3a:	60 ff       	sbrs	r22, 0
    5e3c:	04 c0       	rjmp	.+8      	; 0x5e46 <__fp_round+0x20>
    5e3e:	6f 5f       	subi	r22, 0xFF	; 255
    5e40:	7f 4f       	sbci	r23, 0xFF	; 255
    5e42:	8f 4f       	sbci	r24, 0xFF	; 255
    5e44:	9f 4f       	sbci	r25, 0xFF	; 255
    5e46:	08 95       	ret

00005e48 <__mulsi3>:
    5e48:	db 01       	movw	r26, r22
    5e4a:	8f 93       	push	r24
    5e4c:	9f 93       	push	r25
    5e4e:	0e 94 93 2f 	call	0x5f26	; 0x5f26 <__muluhisi3>
    5e52:	bf 91       	pop	r27
    5e54:	af 91       	pop	r26
    5e56:	a2 9f       	mul	r26, r18
    5e58:	80 0d       	add	r24, r0
    5e5a:	91 1d       	adc	r25, r1
    5e5c:	a3 9f       	mul	r26, r19
    5e5e:	90 0d       	add	r25, r0
    5e60:	b2 9f       	mul	r27, r18
    5e62:	90 0d       	add	r25, r0
    5e64:	11 24       	eor	r1, r1
    5e66:	08 95       	ret

00005e68 <__udivmodhi4>:
    5e68:	aa 1b       	sub	r26, r26
    5e6a:	bb 1b       	sub	r27, r27
    5e6c:	51 e1       	ldi	r21, 0x11	; 17
    5e6e:	07 c0       	rjmp	.+14     	; 0x5e7e <__udivmodhi4_ep>

00005e70 <__udivmodhi4_loop>:
    5e70:	aa 1f       	adc	r26, r26
    5e72:	bb 1f       	adc	r27, r27
    5e74:	a6 17       	cp	r26, r22
    5e76:	b7 07       	cpc	r27, r23
    5e78:	10 f0       	brcs	.+4      	; 0x5e7e <__udivmodhi4_ep>
    5e7a:	a6 1b       	sub	r26, r22
    5e7c:	b7 0b       	sbc	r27, r23

00005e7e <__udivmodhi4_ep>:
    5e7e:	88 1f       	adc	r24, r24
    5e80:	99 1f       	adc	r25, r25
    5e82:	5a 95       	dec	r21
    5e84:	a9 f7       	brne	.-22     	; 0x5e70 <__udivmodhi4_loop>
    5e86:	80 95       	com	r24
    5e88:	90 95       	com	r25
    5e8a:	bc 01       	movw	r22, r24
    5e8c:	cd 01       	movw	r24, r26
    5e8e:	08 95       	ret

00005e90 <__divmodhi4>:
    5e90:	97 fb       	bst	r25, 7
    5e92:	07 2e       	mov	r0, r23
    5e94:	16 f4       	brtc	.+4      	; 0x5e9a <__divmodhi4+0xa>
    5e96:	00 94       	com	r0
    5e98:	07 d0       	rcall	.+14     	; 0x5ea8 <__divmodhi4_neg1>
    5e9a:	77 fd       	sbrc	r23, 7
    5e9c:	09 d0       	rcall	.+18     	; 0x5eb0 <__divmodhi4_neg2>
    5e9e:	0e 94 34 2f 	call	0x5e68	; 0x5e68 <__udivmodhi4>
    5ea2:	07 fc       	sbrc	r0, 7
    5ea4:	05 d0       	rcall	.+10     	; 0x5eb0 <__divmodhi4_neg2>
    5ea6:	3e f4       	brtc	.+14     	; 0x5eb6 <__divmodhi4_exit>

00005ea8 <__divmodhi4_neg1>:
    5ea8:	90 95       	com	r25
    5eaa:	81 95       	neg	r24
    5eac:	9f 4f       	sbci	r25, 0xFF	; 255
    5eae:	08 95       	ret

00005eb0 <__divmodhi4_neg2>:
    5eb0:	70 95       	com	r23
    5eb2:	61 95       	neg	r22
    5eb4:	7f 4f       	sbci	r23, 0xFF	; 255

00005eb6 <__divmodhi4_exit>:
    5eb6:	08 95       	ret

00005eb8 <__udivmodsi4>:
    5eb8:	a1 e2       	ldi	r26, 0x21	; 33
    5eba:	1a 2e       	mov	r1, r26
    5ebc:	aa 1b       	sub	r26, r26
    5ebe:	bb 1b       	sub	r27, r27
    5ec0:	fd 01       	movw	r30, r26
    5ec2:	0d c0       	rjmp	.+26     	; 0x5ede <__udivmodsi4_ep>

00005ec4 <__udivmodsi4_loop>:
    5ec4:	aa 1f       	adc	r26, r26
    5ec6:	bb 1f       	adc	r27, r27
    5ec8:	ee 1f       	adc	r30, r30
    5eca:	ff 1f       	adc	r31, r31
    5ecc:	a2 17       	cp	r26, r18
    5ece:	b3 07       	cpc	r27, r19
    5ed0:	e4 07       	cpc	r30, r20
    5ed2:	f5 07       	cpc	r31, r21
    5ed4:	20 f0       	brcs	.+8      	; 0x5ede <__udivmodsi4_ep>
    5ed6:	a2 1b       	sub	r26, r18
    5ed8:	b3 0b       	sbc	r27, r19
    5eda:	e4 0b       	sbc	r30, r20
    5edc:	f5 0b       	sbc	r31, r21

00005ede <__udivmodsi4_ep>:
    5ede:	66 1f       	adc	r22, r22
    5ee0:	77 1f       	adc	r23, r23
    5ee2:	88 1f       	adc	r24, r24
    5ee4:	99 1f       	adc	r25, r25
    5ee6:	1a 94       	dec	r1
    5ee8:	69 f7       	brne	.-38     	; 0x5ec4 <__udivmodsi4_loop>
    5eea:	60 95       	com	r22
    5eec:	70 95       	com	r23
    5eee:	80 95       	com	r24
    5ef0:	90 95       	com	r25
    5ef2:	9b 01       	movw	r18, r22
    5ef4:	ac 01       	movw	r20, r24
    5ef6:	bd 01       	movw	r22, r26
    5ef8:	cf 01       	movw	r24, r30
    5efa:	08 95       	ret

00005efc <__tablejump2__>:
    5efc:	ee 0f       	add	r30, r30
    5efe:	ff 1f       	adc	r31, r31
    5f00:	05 90       	lpm	r0, Z+
    5f02:	f4 91       	lpm	r31, Z
    5f04:	e0 2d       	mov	r30, r0
    5f06:	09 94       	ijmp

00005f08 <__umulhisi3>:
    5f08:	a2 9f       	mul	r26, r18
    5f0a:	b0 01       	movw	r22, r0
    5f0c:	b3 9f       	mul	r27, r19
    5f0e:	c0 01       	movw	r24, r0
    5f10:	a3 9f       	mul	r26, r19
    5f12:	70 0d       	add	r23, r0
    5f14:	81 1d       	adc	r24, r1
    5f16:	11 24       	eor	r1, r1
    5f18:	91 1d       	adc	r25, r1
    5f1a:	b2 9f       	mul	r27, r18
    5f1c:	70 0d       	add	r23, r0
    5f1e:	81 1d       	adc	r24, r1
    5f20:	11 24       	eor	r1, r1
    5f22:	91 1d       	adc	r25, r1
    5f24:	08 95       	ret

00005f26 <__muluhisi3>:
    5f26:	0e 94 84 2f 	call	0x5f08	; 0x5f08 <__umulhisi3>
    5f2a:	a5 9f       	mul	r26, r21
    5f2c:	90 0d       	add	r25, r0
    5f2e:	b4 9f       	mul	r27, r20
    5f30:	90 0d       	add	r25, r0
    5f32:	a4 9f       	mul	r26, r20
    5f34:	80 0d       	add	r24, r0
    5f36:	91 1d       	adc	r25, r1
    5f38:	11 24       	eor	r1, r1
    5f3a:	08 95       	ret

00005f3c <__mulshisi3>:
    5f3c:	b7 ff       	sbrs	r27, 7
    5f3e:	0c 94 93 2f 	jmp	0x5f26	; 0x5f26 <__muluhisi3>

00005f42 <__mulohisi3>:
    5f42:	0e 94 93 2f 	call	0x5f26	; 0x5f26 <__muluhisi3>
    5f46:	82 1b       	sub	r24, r18
    5f48:	93 0b       	sbc	r25, r19
    5f4a:	08 95       	ret

00005f4c <do_rand>:
    5f4c:	8f 92       	push	r8
    5f4e:	9f 92       	push	r9
    5f50:	af 92       	push	r10
    5f52:	bf 92       	push	r11
    5f54:	cf 92       	push	r12
    5f56:	df 92       	push	r13
    5f58:	ef 92       	push	r14
    5f5a:	ff 92       	push	r15
    5f5c:	cf 93       	push	r28
    5f5e:	df 93       	push	r29
    5f60:	ec 01       	movw	r28, r24
    5f62:	68 81       	ld	r22, Y
    5f64:	79 81       	ldd	r23, Y+1	; 0x01
    5f66:	8a 81       	ldd	r24, Y+2	; 0x02
    5f68:	9b 81       	ldd	r25, Y+3	; 0x03
    5f6a:	61 15       	cp	r22, r1
    5f6c:	71 05       	cpc	r23, r1
    5f6e:	81 05       	cpc	r24, r1
    5f70:	91 05       	cpc	r25, r1
    5f72:	21 f4       	brne	.+8      	; 0x5f7c <do_rand+0x30>
    5f74:	64 e2       	ldi	r22, 0x24	; 36
    5f76:	79 ed       	ldi	r23, 0xD9	; 217
    5f78:	8b e5       	ldi	r24, 0x5B	; 91
    5f7a:	97 e0       	ldi	r25, 0x07	; 7
    5f7c:	2d e1       	ldi	r18, 0x1D	; 29
    5f7e:	33 ef       	ldi	r19, 0xF3	; 243
    5f80:	41 e0       	ldi	r20, 0x01	; 1
    5f82:	50 e0       	ldi	r21, 0x00	; 0
    5f84:	0e 94 e9 32 	call	0x65d2	; 0x65d2 <__divmodsi4>
    5f88:	49 01       	movw	r8, r18
    5f8a:	5a 01       	movw	r10, r20
    5f8c:	9b 01       	movw	r18, r22
    5f8e:	ac 01       	movw	r20, r24
    5f90:	a7 ea       	ldi	r26, 0xA7	; 167
    5f92:	b1 e4       	ldi	r27, 0x41	; 65
    5f94:	0e 94 93 2f 	call	0x5f26	; 0x5f26 <__muluhisi3>
    5f98:	6b 01       	movw	r12, r22
    5f9a:	7c 01       	movw	r14, r24
    5f9c:	ac ee       	ldi	r26, 0xEC	; 236
    5f9e:	b4 ef       	ldi	r27, 0xF4	; 244
    5fa0:	a5 01       	movw	r20, r10
    5fa2:	94 01       	movw	r18, r8
    5fa4:	0e 94 a1 2f 	call	0x5f42	; 0x5f42 <__mulohisi3>
    5fa8:	dc 01       	movw	r26, r24
    5faa:	cb 01       	movw	r24, r22
    5fac:	8c 0d       	add	r24, r12
    5fae:	9d 1d       	adc	r25, r13
    5fb0:	ae 1d       	adc	r26, r14
    5fb2:	bf 1d       	adc	r27, r15
    5fb4:	b7 ff       	sbrs	r27, 7
    5fb6:	03 c0       	rjmp	.+6      	; 0x5fbe <do_rand+0x72>
    5fb8:	01 97       	sbiw	r24, 0x01	; 1
    5fba:	a1 09       	sbc	r26, r1
    5fbc:	b0 48       	sbci	r27, 0x80	; 128
    5fbe:	88 83       	st	Y, r24
    5fc0:	99 83       	std	Y+1, r25	; 0x01
    5fc2:	aa 83       	std	Y+2, r26	; 0x02
    5fc4:	bb 83       	std	Y+3, r27	; 0x03
    5fc6:	9f 77       	andi	r25, 0x7F	; 127
    5fc8:	df 91       	pop	r29
    5fca:	cf 91       	pop	r28
    5fcc:	ff 90       	pop	r15
    5fce:	ef 90       	pop	r14
    5fd0:	df 90       	pop	r13
    5fd2:	cf 90       	pop	r12
    5fd4:	bf 90       	pop	r11
    5fd6:	af 90       	pop	r10
    5fd8:	9f 90       	pop	r9
    5fda:	8f 90       	pop	r8
    5fdc:	08 95       	ret

00005fde <rand_r>:
    5fde:	0e 94 a6 2f 	call	0x5f4c	; 0x5f4c <do_rand>
    5fe2:	08 95       	ret

00005fe4 <rand>:
    5fe4:	80 e0       	ldi	r24, 0x00	; 0
    5fe6:	91 e0       	ldi	r25, 0x01	; 1
    5fe8:	0e 94 a6 2f 	call	0x5f4c	; 0x5f4c <do_rand>
    5fec:	08 95       	ret

00005fee <srand>:
    5fee:	b0 e0       	ldi	r27, 0x00	; 0
    5ff0:	a0 e0       	ldi	r26, 0x00	; 0
    5ff2:	80 93 00 01 	sts	0x0100, r24	; 0x800100 <__data_start>
    5ff6:	90 93 01 01 	sts	0x0101, r25	; 0x800101 <__data_start+0x1>
    5ffa:	a0 93 02 01 	sts	0x0102, r26	; 0x800102 <__data_start+0x2>
    5ffe:	b0 93 03 01 	sts	0x0103, r27	; 0x800103 <__data_start+0x3>
    6002:	08 95       	ret

00006004 <memcpy_P>:
    6004:	fb 01       	movw	r30, r22
    6006:	dc 01       	movw	r26, r24
    6008:	02 c0       	rjmp	.+4      	; 0x600e <memcpy_P+0xa>
    600a:	05 90       	lpm	r0, Z+
    600c:	0d 92       	st	X+, r0
    600e:	41 50       	subi	r20, 0x01	; 1
    6010:	50 40       	sbci	r21, 0x00	; 0
    6012:	d8 f7       	brcc	.-10     	; 0x600a <memcpy_P+0x6>
    6014:	08 95       	ret

00006016 <memcpy>:
    6016:	fb 01       	movw	r30, r22
    6018:	dc 01       	movw	r26, r24
    601a:	02 c0       	rjmp	.+4      	; 0x6020 <memcpy+0xa>
    601c:	01 90       	ld	r0, Z+
    601e:	0d 92       	st	X+, r0
    6020:	41 50       	subi	r20, 0x01	; 1
    6022:	50 40       	sbci	r21, 0x00	; 0
    6024:	d8 f7       	brcc	.-10     	; 0x601c <memcpy+0x6>
    6026:	08 95       	ret

00006028 <memset>:
    6028:	dc 01       	movw	r26, r24
    602a:	01 c0       	rjmp	.+2      	; 0x602e <memset+0x6>
    602c:	6d 93       	st	X+, r22
    602e:	41 50       	subi	r20, 0x01	; 1
    6030:	50 40       	sbci	r21, 0x00	; 0
    6032:	e0 f7       	brcc	.-8      	; 0x602c <memset+0x4>
    6034:	08 95       	ret

00006036 <strchr>:
    6036:	fc 01       	movw	r30, r24
    6038:	81 91       	ld	r24, Z+
    603a:	86 17       	cp	r24, r22
    603c:	21 f0       	breq	.+8      	; 0x6046 <strchr+0x10>
    603e:	88 23       	and	r24, r24
    6040:	d9 f7       	brne	.-10     	; 0x6038 <strchr+0x2>
    6042:	99 27       	eor	r25, r25
    6044:	08 95       	ret
    6046:	31 97       	sbiw	r30, 0x01	; 1
    6048:	cf 01       	movw	r24, r30
    604a:	08 95       	ret

0000604c <strcmp>:
    604c:	fb 01       	movw	r30, r22
    604e:	dc 01       	movw	r26, r24
    6050:	8d 91       	ld	r24, X+
    6052:	01 90       	ld	r0, Z+
    6054:	80 19       	sub	r24, r0
    6056:	01 10       	cpse	r0, r1
    6058:	d9 f3       	breq	.-10     	; 0x6050 <strcmp+0x4>
    605a:	99 0b       	sbc	r25, r25
    605c:	08 95       	ret

0000605e <strncmp>:
    605e:	fb 01       	movw	r30, r22
    6060:	dc 01       	movw	r26, r24
    6062:	41 50       	subi	r20, 0x01	; 1
    6064:	50 40       	sbci	r21, 0x00	; 0
    6066:	30 f0       	brcs	.+12     	; 0x6074 <strncmp+0x16>
    6068:	8d 91       	ld	r24, X+
    606a:	01 90       	ld	r0, Z+
    606c:	80 19       	sub	r24, r0
    606e:	19 f4       	brne	.+6      	; 0x6076 <strncmp+0x18>
    6070:	00 20       	and	r0, r0
    6072:	b9 f7       	brne	.-18     	; 0x6062 <strncmp+0x4>
    6074:	88 1b       	sub	r24, r24
    6076:	99 0b       	sbc	r25, r25
    6078:	08 95       	ret

0000607a <strncpy>:
    607a:	fb 01       	movw	r30, r22
    607c:	dc 01       	movw	r26, r24
    607e:	41 50       	subi	r20, 0x01	; 1
    6080:	50 40       	sbci	r21, 0x00	; 0
    6082:	48 f0       	brcs	.+18     	; 0x6096 <strncpy+0x1c>
    6084:	01 90       	ld	r0, Z+
    6086:	0d 92       	st	X+, r0
    6088:	00 20       	and	r0, r0
    608a:	c9 f7       	brne	.-14     	; 0x607e <strncpy+0x4>
    608c:	01 c0       	rjmp	.+2      	; 0x6090 <strncpy+0x16>
    608e:	1d 92       	st	X+, r1
    6090:	41 50       	subi	r20, 0x01	; 1
    6092:	50 40       	sbci	r21, 0x00	; 0
    6094:	e0 f7       	brcc	.-8      	; 0x608e <strncpy+0x14>
    6096:	08 95       	ret

00006098 <strrchr>:
    6098:	fc 01       	movw	r30, r24
    609a:	81 e0       	ldi	r24, 0x01	; 1
    609c:	90 e0       	ldi	r25, 0x00	; 0
    609e:	01 90       	ld	r0, Z+
    60a0:	06 16       	cp	r0, r22
    60a2:	09 f4       	brne	.+2      	; 0x60a6 <strrchr+0xe>
    60a4:	cf 01       	movw	r24, r30
    60a6:	00 20       	and	r0, r0
    60a8:	d1 f7       	brne	.-12     	; 0x609e <strrchr+0x6>
    60aa:	01 97       	sbiw	r24, 0x01	; 1
    60ac:	08 95       	ret

000060ae <sprintf>:
    60ae:	ae e0       	ldi	r26, 0x0E	; 14
    60b0:	b0 e0       	ldi	r27, 0x00	; 0
    60b2:	ed e5       	ldi	r30, 0x5D	; 93
    60b4:	f0 e3       	ldi	r31, 0x30	; 48
    60b6:	0c 94 16 33 	jmp	0x662c	; 0x662c <__prologue_saves__+0x1c>
    60ba:	0d 89       	ldd	r16, Y+21	; 0x15
    60bc:	1e 89       	ldd	r17, Y+22	; 0x16
    60be:	86 e0       	ldi	r24, 0x06	; 6
    60c0:	8c 83       	std	Y+4, r24	; 0x04
    60c2:	1a 83       	std	Y+2, r17	; 0x02
    60c4:	09 83       	std	Y+1, r16	; 0x01
    60c6:	8f ef       	ldi	r24, 0xFF	; 255
    60c8:	9f e7       	ldi	r25, 0x7F	; 127
    60ca:	9e 83       	std	Y+6, r25	; 0x06
    60cc:	8d 83       	std	Y+5, r24	; 0x05
    60ce:	ae 01       	movw	r20, r28
    60d0:	47 5e       	subi	r20, 0xE7	; 231
    60d2:	5f 4f       	sbci	r21, 0xFF	; 255
    60d4:	6f 89       	ldd	r22, Y+23	; 0x17
    60d6:	78 8d       	ldd	r23, Y+24	; 0x18
    60d8:	ce 01       	movw	r24, r28
    60da:	01 96       	adiw	r24, 0x01	; 1
    60dc:	0e 94 7a 30 	call	0x60f4	; 0x60f4 <vfprintf>
    60e0:	2f 81       	ldd	r18, Y+7	; 0x07
    60e2:	38 85       	ldd	r19, Y+8	; 0x08
    60e4:	02 0f       	add	r16, r18
    60e6:	13 1f       	adc	r17, r19
    60e8:	f8 01       	movw	r30, r16
    60ea:	10 82       	st	Z, r1
    60ec:	2e 96       	adiw	r28, 0x0e	; 14
    60ee:	e4 e0       	ldi	r30, 0x04	; 4
    60f0:	0c 94 32 33 	jmp	0x6664	; 0x6664 <__epilogue_restores__+0x1c>

000060f4 <vfprintf>:
    60f4:	ab e0       	ldi	r26, 0x0B	; 11
    60f6:	b0 e0       	ldi	r27, 0x00	; 0
    60f8:	e0 e8       	ldi	r30, 0x80	; 128
    60fa:	f0 e3       	ldi	r31, 0x30	; 48
    60fc:	0c 94 08 33 	jmp	0x6610	; 0x6610 <__prologue_saves__>
    6100:	7c 01       	movw	r14, r24
    6102:	3b 01       	movw	r6, r22
    6104:	8a 01       	movw	r16, r20
    6106:	fc 01       	movw	r30, r24
    6108:	17 82       	std	Z+7, r1	; 0x07
    610a:	16 82       	std	Z+6, r1	; 0x06
    610c:	83 81       	ldd	r24, Z+3	; 0x03
    610e:	81 ff       	sbrs	r24, 1
    6110:	b9 c1       	rjmp	.+882    	; 0x6484 <vfprintf+0x390>
    6112:	9a e0       	ldi	r25, 0x0A	; 10
    6114:	29 2e       	mov	r2, r25
    6116:	ce 01       	movw	r24, r28
    6118:	01 96       	adiw	r24, 0x01	; 1
    611a:	5c 01       	movw	r10, r24
    611c:	f7 01       	movw	r30, r14
    611e:	93 81       	ldd	r25, Z+3	; 0x03
    6120:	f3 01       	movw	r30, r6
    6122:	93 fd       	sbrc	r25, 3
    6124:	85 91       	lpm	r24, Z+
    6126:	93 ff       	sbrs	r25, 3
    6128:	81 91       	ld	r24, Z+
    612a:	3f 01       	movw	r6, r30
    612c:	88 23       	and	r24, r24
    612e:	09 f4       	brne	.+2      	; 0x6132 <vfprintf+0x3e>
    6130:	46 c1       	rjmp	.+652    	; 0x63be <vfprintf+0x2ca>
    6132:	85 32       	cpi	r24, 0x25	; 37
    6134:	39 f4       	brne	.+14     	; 0x6144 <vfprintf+0x50>
    6136:	93 fd       	sbrc	r25, 3
    6138:	85 91       	lpm	r24, Z+
    613a:	93 ff       	sbrs	r25, 3
    613c:	81 91       	ld	r24, Z+
    613e:	3f 01       	movw	r6, r30
    6140:	85 32       	cpi	r24, 0x25	; 37
    6142:	29 f4       	brne	.+10     	; 0x614e <vfprintf+0x5a>
    6144:	b7 01       	movw	r22, r14
    6146:	90 e0       	ldi	r25, 0x00	; 0
    6148:	0e 94 5b 32 	call	0x64b6	; 0x64b6 <fputc>
    614c:	e7 cf       	rjmp	.-50     	; 0x611c <vfprintf+0x28>
    614e:	91 2c       	mov	r9, r1
    6150:	41 2c       	mov	r4, r1
    6152:	51 2c       	mov	r5, r1
    6154:	ff e1       	ldi	r31, 0x1F	; 31
    6156:	f5 15       	cp	r31, r5
    6158:	38 f0       	brcs	.+14     	; 0x6168 <vfprintf+0x74>
    615a:	8b 32       	cpi	r24, 0x2B	; 43
    615c:	09 f1       	breq	.+66     	; 0x61a0 <vfprintf+0xac>
    615e:	88 f4       	brcc	.+34     	; 0x6182 <vfprintf+0x8e>
    6160:	80 32       	cpi	r24, 0x20	; 32
    6162:	01 f1       	breq	.+64     	; 0x61a4 <vfprintf+0xb0>
    6164:	83 32       	cpi	r24, 0x23	; 35
    6166:	21 f1       	breq	.+72     	; 0x61b0 <vfprintf+0xbc>
    6168:	57 fc       	sbrc	r5, 7
    616a:	3a c0       	rjmp	.+116    	; 0x61e0 <vfprintf+0xec>
    616c:	20 ed       	ldi	r18, 0xD0	; 208
    616e:	28 0f       	add	r18, r24
    6170:	2a 30       	cpi	r18, 0x0A	; 10
    6172:	40 f5       	brcc	.+80     	; 0x61c4 <vfprintf+0xd0>
    6174:	56 fe       	sbrs	r5, 6
    6176:	1f c0       	rjmp	.+62     	; 0x61b6 <vfprintf+0xc2>
    6178:	92 9c       	mul	r9, r2
    617a:	20 0d       	add	r18, r0
    617c:	11 24       	eor	r1, r1
    617e:	92 2e       	mov	r9, r18
    6180:	06 c0       	rjmp	.+12     	; 0x618e <vfprintf+0x9a>
    6182:	8d 32       	cpi	r24, 0x2D	; 45
    6184:	91 f0       	breq	.+36     	; 0x61aa <vfprintf+0xb6>
    6186:	80 33       	cpi	r24, 0x30	; 48
    6188:	79 f7       	brne	.-34     	; 0x6168 <vfprintf+0x74>
    618a:	68 94       	set
    618c:	50 f8       	bld	r5, 0
    618e:	f3 01       	movw	r30, r6
    6190:	93 fd       	sbrc	r25, 3
    6192:	85 91       	lpm	r24, Z+
    6194:	93 ff       	sbrs	r25, 3
    6196:	81 91       	ld	r24, Z+
    6198:	3f 01       	movw	r6, r30
    619a:	81 11       	cpse	r24, r1
    619c:	db cf       	rjmp	.-74     	; 0x6154 <vfprintf+0x60>
    619e:	20 c0       	rjmp	.+64     	; 0x61e0 <vfprintf+0xec>
    61a0:	68 94       	set
    61a2:	51 f8       	bld	r5, 1
    61a4:	68 94       	set
    61a6:	52 f8       	bld	r5, 2
    61a8:	f2 cf       	rjmp	.-28     	; 0x618e <vfprintf+0x9a>
    61aa:	68 94       	set
    61ac:	53 f8       	bld	r5, 3
    61ae:	ef cf       	rjmp	.-34     	; 0x618e <vfprintf+0x9a>
    61b0:	68 94       	set
    61b2:	54 f8       	bld	r5, 4
    61b4:	ec cf       	rjmp	.-40     	; 0x618e <vfprintf+0x9a>
    61b6:	42 9c       	mul	r4, r2
    61b8:	20 0d       	add	r18, r0
    61ba:	11 24       	eor	r1, r1
    61bc:	42 2e       	mov	r4, r18
    61be:	68 94       	set
    61c0:	55 f8       	bld	r5, 5
    61c2:	e5 cf       	rjmp	.-54     	; 0x618e <vfprintf+0x9a>
    61c4:	8e 32       	cpi	r24, 0x2E	; 46
    61c6:	29 f4       	brne	.+10     	; 0x61d2 <vfprintf+0xde>
    61c8:	56 fc       	sbrc	r5, 6
    61ca:	f9 c0       	rjmp	.+498    	; 0x63be <vfprintf+0x2ca>
    61cc:	68 94       	set
    61ce:	56 f8       	bld	r5, 6
    61d0:	de cf       	rjmp	.-68     	; 0x618e <vfprintf+0x9a>
    61d2:	8c 36       	cpi	r24, 0x6C	; 108
    61d4:	19 f4       	brne	.+6      	; 0x61dc <vfprintf+0xe8>
    61d6:	68 94       	set
    61d8:	57 f8       	bld	r5, 7
    61da:	d9 cf       	rjmp	.-78     	; 0x618e <vfprintf+0x9a>
    61dc:	88 36       	cpi	r24, 0x68	; 104
    61de:	b9 f2       	breq	.-82     	; 0x618e <vfprintf+0x9a>
    61e0:	98 2f       	mov	r25, r24
    61e2:	9f 7d       	andi	r25, 0xDF	; 223
    61e4:	95 54       	subi	r25, 0x45	; 69
    61e6:	93 30       	cpi	r25, 0x03	; 3
    61e8:	c0 f0       	brcs	.+48     	; 0x621a <vfprintf+0x126>
    61ea:	83 36       	cpi	r24, 0x63	; 99
    61ec:	a1 f1       	breq	.+104    	; 0x6256 <vfprintf+0x162>
    61ee:	83 37       	cpi	r24, 0x73	; 115
    61f0:	c1 f1       	breq	.+112    	; 0x6262 <vfprintf+0x16e>
    61f2:	83 35       	cpi	r24, 0x53	; 83
    61f4:	09 f0       	breq	.+2      	; 0x61f8 <vfprintf+0x104>
    61f6:	5b c0       	rjmp	.+182    	; 0x62ae <vfprintf+0x1ba>
    61f8:	f8 01       	movw	r30, r16
    61fa:	c1 90       	ld	r12, Z+
    61fc:	d1 90       	ld	r13, Z+
    61fe:	8f 01       	movw	r16, r30
    6200:	69 2d       	mov	r22, r9
    6202:	70 e0       	ldi	r23, 0x00	; 0
    6204:	56 fc       	sbrc	r5, 6
    6206:	02 c0       	rjmp	.+4      	; 0x620c <vfprintf+0x118>
    6208:	6f ef       	ldi	r22, 0xFF	; 255
    620a:	7f ef       	ldi	r23, 0xFF	; 255
    620c:	c6 01       	movw	r24, r12
    620e:	0e 94 45 32 	call	0x648a	; 0x648a <strnlen_P>
    6212:	4c 01       	movw	r8, r24
    6214:	68 94       	set
    6216:	57 f8       	bld	r5, 7
    6218:	0a c0       	rjmp	.+20     	; 0x622e <vfprintf+0x13a>
    621a:	0c 5f       	subi	r16, 0xFC	; 252
    621c:	1f 4f       	sbci	r17, 0xFF	; 255
    621e:	2f e3       	ldi	r18, 0x3F	; 63
    6220:	29 83       	std	Y+1, r18	; 0x01
    6222:	88 24       	eor	r8, r8
    6224:	83 94       	inc	r8
    6226:	91 2c       	mov	r9, r1
    6228:	65 01       	movw	r12, r10
    622a:	e8 94       	clt
    622c:	57 f8       	bld	r5, 7
    622e:	53 fc       	sbrc	r5, 3
    6230:	04 c0       	rjmp	.+8      	; 0x623a <vfprintf+0x146>
    6232:	48 14       	cp	r4, r8
    6234:	19 04       	cpc	r1, r9
    6236:	09 f0       	breq	.+2      	; 0x623a <vfprintf+0x146>
    6238:	18 f5       	brcc	.+70     	; 0x6280 <vfprintf+0x18c>
    623a:	34 2c       	mov	r3, r4
    623c:	81 14       	cp	r8, r1
    623e:	91 04       	cpc	r9, r1
    6240:	31 f5       	brne	.+76     	; 0x628e <vfprintf+0x19a>
    6242:	33 20       	and	r3, r3
    6244:	09 f4       	brne	.+2      	; 0x6248 <vfprintf+0x154>
    6246:	6a cf       	rjmp	.-300    	; 0x611c <vfprintf+0x28>
    6248:	b7 01       	movw	r22, r14
    624a:	80 e2       	ldi	r24, 0x20	; 32
    624c:	90 e0       	ldi	r25, 0x00	; 0
    624e:	0e 94 5b 32 	call	0x64b6	; 0x64b6 <fputc>
    6252:	3a 94       	dec	r3
    6254:	f6 cf       	rjmp	.-20     	; 0x6242 <vfprintf+0x14e>
    6256:	f8 01       	movw	r30, r16
    6258:	80 81       	ld	r24, Z
    625a:	89 83       	std	Y+1, r24	; 0x01
    625c:	0e 5f       	subi	r16, 0xFE	; 254
    625e:	1f 4f       	sbci	r17, 0xFF	; 255
    6260:	e0 cf       	rjmp	.-64     	; 0x6222 <vfprintf+0x12e>
    6262:	f8 01       	movw	r30, r16
    6264:	c1 90       	ld	r12, Z+
    6266:	d1 90       	ld	r13, Z+
    6268:	8f 01       	movw	r16, r30
    626a:	69 2d       	mov	r22, r9
    626c:	70 e0       	ldi	r23, 0x00	; 0
    626e:	56 fc       	sbrc	r5, 6
    6270:	02 c0       	rjmp	.+4      	; 0x6276 <vfprintf+0x182>
    6272:	6f ef       	ldi	r22, 0xFF	; 255
    6274:	7f ef       	ldi	r23, 0xFF	; 255
    6276:	c6 01       	movw	r24, r12
    6278:	0e 94 50 32 	call	0x64a0	; 0x64a0 <strnlen>
    627c:	4c 01       	movw	r8, r24
    627e:	d5 cf       	rjmp	.-86     	; 0x622a <vfprintf+0x136>
    6280:	b7 01       	movw	r22, r14
    6282:	80 e2       	ldi	r24, 0x20	; 32
    6284:	90 e0       	ldi	r25, 0x00	; 0
    6286:	0e 94 5b 32 	call	0x64b6	; 0x64b6 <fputc>
    628a:	4a 94       	dec	r4
    628c:	d2 cf       	rjmp	.-92     	; 0x6232 <vfprintf+0x13e>
    628e:	f6 01       	movw	r30, r12
    6290:	57 fc       	sbrc	r5, 7
    6292:	85 91       	lpm	r24, Z+
    6294:	57 fe       	sbrs	r5, 7
    6296:	81 91       	ld	r24, Z+
    6298:	6f 01       	movw	r12, r30
    629a:	b7 01       	movw	r22, r14
    629c:	90 e0       	ldi	r25, 0x00	; 0
    629e:	0e 94 5b 32 	call	0x64b6	; 0x64b6 <fputc>
    62a2:	31 10       	cpse	r3, r1
    62a4:	3a 94       	dec	r3
    62a6:	f1 e0       	ldi	r31, 0x01	; 1
    62a8:	8f 1a       	sub	r8, r31
    62aa:	91 08       	sbc	r9, r1
    62ac:	c7 cf       	rjmp	.-114    	; 0x623c <vfprintf+0x148>
    62ae:	84 36       	cpi	r24, 0x64	; 100
    62b0:	19 f0       	breq	.+6      	; 0x62b8 <vfprintf+0x1c4>
    62b2:	89 36       	cpi	r24, 0x69	; 105
    62b4:	09 f0       	breq	.+2      	; 0x62b8 <vfprintf+0x1c4>
    62b6:	74 c0       	rjmp	.+232    	; 0x63a0 <vfprintf+0x2ac>
    62b8:	f8 01       	movw	r30, r16
    62ba:	57 fe       	sbrs	r5, 7
    62bc:	6a c0       	rjmp	.+212    	; 0x6392 <vfprintf+0x29e>
    62be:	61 91       	ld	r22, Z+
    62c0:	71 91       	ld	r23, Z+
    62c2:	81 91       	ld	r24, Z+
    62c4:	91 91       	ld	r25, Z+
    62c6:	8f 01       	movw	r16, r30
    62c8:	25 2d       	mov	r18, r5
    62ca:	2f 76       	andi	r18, 0x6F	; 111
    62cc:	d2 2e       	mov	r13, r18
    62ce:	97 ff       	sbrs	r25, 7
    62d0:	09 c0       	rjmp	.+18     	; 0x62e4 <vfprintf+0x1f0>
    62d2:	90 95       	com	r25
    62d4:	80 95       	com	r24
    62d6:	70 95       	com	r23
    62d8:	61 95       	neg	r22
    62da:	7f 4f       	sbci	r23, 0xFF	; 255
    62dc:	8f 4f       	sbci	r24, 0xFF	; 255
    62de:	9f 4f       	sbci	r25, 0xFF	; 255
    62e0:	68 94       	set
    62e2:	d7 f8       	bld	r13, 7
    62e4:	2a e0       	ldi	r18, 0x0A	; 10
    62e6:	30 e0       	ldi	r19, 0x00	; 0
    62e8:	a5 01       	movw	r20, r10
    62ea:	0e 94 8b 32 	call	0x6516	; 0x6516 <__ultoa_invert>
    62ee:	c8 2e       	mov	r12, r24
    62f0:	ca 18       	sub	r12, r10
    62f2:	8c 2c       	mov	r8, r12
    62f4:	5d 2c       	mov	r5, r13
    62f6:	d6 fe       	sbrs	r13, 6
    62f8:	0c c0       	rjmp	.+24     	; 0x6312 <vfprintf+0x21e>
    62fa:	e8 94       	clt
    62fc:	50 f8       	bld	r5, 0
    62fe:	c9 14       	cp	r12, r9
    6300:	40 f4       	brcc	.+16     	; 0x6312 <vfprintf+0x21e>
    6302:	d4 fe       	sbrs	r13, 4
    6304:	05 c0       	rjmp	.+10     	; 0x6310 <vfprintf+0x21c>
    6306:	d2 fc       	sbrc	r13, 2
    6308:	03 c0       	rjmp	.+6      	; 0x6310 <vfprintf+0x21c>
    630a:	fd 2d       	mov	r31, r13
    630c:	fe 7e       	andi	r31, 0xEE	; 238
    630e:	5f 2e       	mov	r5, r31
    6310:	89 2c       	mov	r8, r9
    6312:	54 fe       	sbrs	r5, 4
    6314:	8f c0       	rjmp	.+286    	; 0x6434 <vfprintf+0x340>
    6316:	fe 01       	movw	r30, r28
    6318:	ec 0d       	add	r30, r12
    631a:	f1 1d       	adc	r31, r1
    631c:	80 81       	ld	r24, Z
    631e:	80 33       	cpi	r24, 0x30	; 48
    6320:	09 f0       	breq	.+2      	; 0x6324 <vfprintf+0x230>
    6322:	81 c0       	rjmp	.+258    	; 0x6426 <vfprintf+0x332>
    6324:	25 2d       	mov	r18, r5
    6326:	29 7e       	andi	r18, 0xE9	; 233
    6328:	52 2e       	mov	r5, r18
    632a:	85 2d       	mov	r24, r5
    632c:	88 70       	andi	r24, 0x08	; 8
    632e:	38 2e       	mov	r3, r24
    6330:	53 fc       	sbrc	r5, 3
    6332:	8f c0       	rjmp	.+286    	; 0x6452 <vfprintf+0x35e>
    6334:	50 fe       	sbrs	r5, 0
    6336:	89 c0       	rjmp	.+274    	; 0x644a <vfprintf+0x356>
    6338:	9c 2c       	mov	r9, r12
    633a:	84 14       	cp	r8, r4
    633c:	18 f4       	brcc	.+6      	; 0x6344 <vfprintf+0x250>
    633e:	4c 0c       	add	r4, r12
    6340:	94 2c       	mov	r9, r4
    6342:	98 18       	sub	r9, r8
    6344:	54 fe       	sbrs	r5, 4
    6346:	8b c0       	rjmp	.+278    	; 0x645e <vfprintf+0x36a>
    6348:	b7 01       	movw	r22, r14
    634a:	80 e3       	ldi	r24, 0x30	; 48
    634c:	90 e0       	ldi	r25, 0x00	; 0
    634e:	0e 94 5b 32 	call	0x64b6	; 0x64b6 <fputc>
    6352:	52 fe       	sbrs	r5, 2
    6354:	09 c0       	rjmp	.+18     	; 0x6368 <vfprintf+0x274>
    6356:	88 e7       	ldi	r24, 0x78	; 120
    6358:	90 e0       	ldi	r25, 0x00	; 0
    635a:	51 fe       	sbrs	r5, 1
    635c:	02 c0       	rjmp	.+4      	; 0x6362 <vfprintf+0x26e>
    635e:	88 e5       	ldi	r24, 0x58	; 88
    6360:	90 e0       	ldi	r25, 0x00	; 0
    6362:	b7 01       	movw	r22, r14
    6364:	0e 94 5b 32 	call	0x64b6	; 0x64b6 <fputc>
    6368:	c9 14       	cp	r12, r9
    636a:	08 f4       	brcc	.+2      	; 0x636e <vfprintf+0x27a>
    636c:	84 c0       	rjmp	.+264    	; 0x6476 <vfprintf+0x382>
    636e:	ca 94       	dec	r12
    6370:	d1 2c       	mov	r13, r1
    6372:	9f ef       	ldi	r25, 0xFF	; 255
    6374:	c9 1a       	sub	r12, r25
    6376:	d9 0a       	sbc	r13, r25
    6378:	ca 0c       	add	r12, r10
    637a:	db 1c       	adc	r13, r11
    637c:	f6 01       	movw	r30, r12
    637e:	82 91       	ld	r24, -Z
    6380:	6f 01       	movw	r12, r30
    6382:	b7 01       	movw	r22, r14
    6384:	90 e0       	ldi	r25, 0x00	; 0
    6386:	0e 94 5b 32 	call	0x64b6	; 0x64b6 <fputc>
    638a:	ac 14       	cp	r10, r12
    638c:	bd 04       	cpc	r11, r13
    638e:	b1 f7       	brne	.-20     	; 0x637c <vfprintf+0x288>
    6390:	58 cf       	rjmp	.-336    	; 0x6242 <vfprintf+0x14e>
    6392:	61 91       	ld	r22, Z+
    6394:	71 91       	ld	r23, Z+
    6396:	07 2e       	mov	r0, r23
    6398:	00 0c       	add	r0, r0
    639a:	88 0b       	sbc	r24, r24
    639c:	99 0b       	sbc	r25, r25
    639e:	93 cf       	rjmp	.-218    	; 0x62c6 <vfprintf+0x1d2>
    63a0:	d5 2c       	mov	r13, r5
    63a2:	e8 94       	clt
    63a4:	d4 f8       	bld	r13, 4
    63a6:	2a e0       	ldi	r18, 0x0A	; 10
    63a8:	30 e0       	ldi	r19, 0x00	; 0
    63aa:	85 37       	cpi	r24, 0x75	; 117
    63ac:	39 f1       	breq	.+78     	; 0x63fc <vfprintf+0x308>
    63ae:	95 2d       	mov	r25, r5
    63b0:	99 7f       	andi	r25, 0xF9	; 249
    63b2:	d9 2e       	mov	r13, r25
    63b4:	8f 36       	cpi	r24, 0x6F	; 111
    63b6:	01 f1       	breq	.+64     	; 0x63f8 <vfprintf+0x304>
    63b8:	48 f4       	brcc	.+18     	; 0x63cc <vfprintf+0x2d8>
    63ba:	88 35       	cpi	r24, 0x58	; 88
    63bc:	a9 f0       	breq	.+42     	; 0x63e8 <vfprintf+0x2f4>
    63be:	f7 01       	movw	r30, r14
    63c0:	86 81       	ldd	r24, Z+6	; 0x06
    63c2:	97 81       	ldd	r25, Z+7	; 0x07
    63c4:	2b 96       	adiw	r28, 0x0b	; 11
    63c6:	e2 e1       	ldi	r30, 0x12	; 18
    63c8:	0c 94 24 33 	jmp	0x6648	; 0x6648 <__epilogue_restores__>
    63cc:	80 37       	cpi	r24, 0x70	; 112
    63ce:	49 f0       	breq	.+18     	; 0x63e2 <vfprintf+0x2ee>
    63d0:	88 37       	cpi	r24, 0x78	; 120
    63d2:	a9 f7       	brne	.-22     	; 0x63be <vfprintf+0x2ca>
    63d4:	d4 fe       	sbrs	r13, 4
    63d6:	02 c0       	rjmp	.+4      	; 0x63dc <vfprintf+0x2e8>
    63d8:	68 94       	set
    63da:	d2 f8       	bld	r13, 2
    63dc:	20 e1       	ldi	r18, 0x10	; 16
    63de:	30 e0       	ldi	r19, 0x00	; 0
    63e0:	0d c0       	rjmp	.+26     	; 0x63fc <vfprintf+0x308>
    63e2:	68 94       	set
    63e4:	d4 f8       	bld	r13, 4
    63e6:	f6 cf       	rjmp	.-20     	; 0x63d4 <vfprintf+0x2e0>
    63e8:	54 fe       	sbrs	r5, 4
    63ea:	03 c0       	rjmp	.+6      	; 0x63f2 <vfprintf+0x2fe>
    63ec:	e9 2f       	mov	r30, r25
    63ee:	e6 60       	ori	r30, 0x06	; 6
    63f0:	de 2e       	mov	r13, r30
    63f2:	20 e1       	ldi	r18, 0x10	; 16
    63f4:	32 e0       	ldi	r19, 0x02	; 2
    63f6:	02 c0       	rjmp	.+4      	; 0x63fc <vfprintf+0x308>
    63f8:	28 e0       	ldi	r18, 0x08	; 8
    63fa:	30 e0       	ldi	r19, 0x00	; 0
    63fc:	f8 01       	movw	r30, r16
    63fe:	d7 fe       	sbrs	r13, 7
    6400:	0d c0       	rjmp	.+26     	; 0x641c <vfprintf+0x328>
    6402:	61 91       	ld	r22, Z+
    6404:	71 91       	ld	r23, Z+
    6406:	81 91       	ld	r24, Z+
    6408:	91 91       	ld	r25, Z+
    640a:	8f 01       	movw	r16, r30
    640c:	a5 01       	movw	r20, r10
    640e:	0e 94 8b 32 	call	0x6516	; 0x6516 <__ultoa_invert>
    6412:	c8 2e       	mov	r12, r24
    6414:	ca 18       	sub	r12, r10
    6416:	e8 94       	clt
    6418:	d7 f8       	bld	r13, 7
    641a:	6b cf       	rjmp	.-298    	; 0x62f2 <vfprintf+0x1fe>
    641c:	61 91       	ld	r22, Z+
    641e:	71 91       	ld	r23, Z+
    6420:	90 e0       	ldi	r25, 0x00	; 0
    6422:	80 e0       	ldi	r24, 0x00	; 0
    6424:	f2 cf       	rjmp	.-28     	; 0x640a <vfprintf+0x316>
    6426:	52 fc       	sbrc	r5, 2
    6428:	02 c0       	rjmp	.+4      	; 0x642e <vfprintf+0x33a>
    642a:	83 94       	inc	r8
    642c:	7e cf       	rjmp	.-260    	; 0x632a <vfprintf+0x236>
    642e:	83 94       	inc	r8
    6430:	83 94       	inc	r8
    6432:	7b cf       	rjmp	.-266    	; 0x632a <vfprintf+0x236>
    6434:	85 2d       	mov	r24, r5
    6436:	86 78       	andi	r24, 0x86	; 134
    6438:	09 f4       	brne	.+2      	; 0x643c <vfprintf+0x348>
    643a:	77 cf       	rjmp	.-274    	; 0x632a <vfprintf+0x236>
    643c:	f6 cf       	rjmp	.-20     	; 0x642a <vfprintf+0x336>
    643e:	b7 01       	movw	r22, r14
    6440:	80 e2       	ldi	r24, 0x20	; 32
    6442:	90 e0       	ldi	r25, 0x00	; 0
    6444:	0e 94 5b 32 	call	0x64b6	; 0x64b6 <fputc>
    6448:	83 94       	inc	r8
    644a:	84 14       	cp	r8, r4
    644c:	c0 f3       	brcs	.-16     	; 0x643e <vfprintf+0x34a>
    644e:	31 2c       	mov	r3, r1
    6450:	79 cf       	rjmp	.-270    	; 0x6344 <vfprintf+0x250>
    6452:	34 2c       	mov	r3, r4
    6454:	38 18       	sub	r3, r8
    6456:	84 14       	cp	r8, r4
    6458:	08 f4       	brcc	.+2      	; 0x645c <vfprintf+0x368>
    645a:	74 cf       	rjmp	.-280    	; 0x6344 <vfprintf+0x250>
    645c:	f8 cf       	rjmp	.-16     	; 0x644e <vfprintf+0x35a>
    645e:	85 2d       	mov	r24, r5
    6460:	86 78       	andi	r24, 0x86	; 134
    6462:	09 f4       	brne	.+2      	; 0x6466 <vfprintf+0x372>
    6464:	81 cf       	rjmp	.-254    	; 0x6368 <vfprintf+0x274>
    6466:	8b e2       	ldi	r24, 0x2B	; 43
    6468:	51 fe       	sbrs	r5, 1
    646a:	80 e2       	ldi	r24, 0x20	; 32
    646c:	57 fc       	sbrc	r5, 7
    646e:	8d e2       	ldi	r24, 0x2D	; 45
    6470:	b7 01       	movw	r22, r14
    6472:	90 e0       	ldi	r25, 0x00	; 0
    6474:	77 cf       	rjmp	.-274    	; 0x6364 <vfprintf+0x270>
    6476:	b7 01       	movw	r22, r14
    6478:	80 e3       	ldi	r24, 0x30	; 48
    647a:	90 e0       	ldi	r25, 0x00	; 0
    647c:	0e 94 5b 32 	call	0x64b6	; 0x64b6 <fputc>
    6480:	9a 94       	dec	r9
    6482:	72 cf       	rjmp	.-284    	; 0x6368 <vfprintf+0x274>
    6484:	8f ef       	ldi	r24, 0xFF	; 255
    6486:	9f ef       	ldi	r25, 0xFF	; 255
    6488:	9d cf       	rjmp	.-198    	; 0x63c4 <vfprintf+0x2d0>

0000648a <strnlen_P>:
    648a:	fc 01       	movw	r30, r24
    648c:	05 90       	lpm	r0, Z+
    648e:	61 50       	subi	r22, 0x01	; 1
    6490:	70 40       	sbci	r23, 0x00	; 0
    6492:	01 10       	cpse	r0, r1
    6494:	d8 f7       	brcc	.-10     	; 0x648c <strnlen_P+0x2>
    6496:	80 95       	com	r24
    6498:	90 95       	com	r25
    649a:	8e 0f       	add	r24, r30
    649c:	9f 1f       	adc	r25, r31
    649e:	08 95       	ret

000064a0 <strnlen>:
    64a0:	fc 01       	movw	r30, r24
    64a2:	61 50       	subi	r22, 0x01	; 1
    64a4:	70 40       	sbci	r23, 0x00	; 0
    64a6:	01 90       	ld	r0, Z+
    64a8:	01 10       	cpse	r0, r1
    64aa:	d8 f7       	brcc	.-10     	; 0x64a2 <strnlen+0x2>
    64ac:	80 95       	com	r24
    64ae:	90 95       	com	r25
    64b0:	8e 0f       	add	r24, r30
    64b2:	9f 1f       	adc	r25, r31
    64b4:	08 95       	ret

000064b6 <fputc>:
    64b6:	0f 93       	push	r16
    64b8:	1f 93       	push	r17
    64ba:	cf 93       	push	r28
    64bc:	df 93       	push	r29
    64be:	18 2f       	mov	r17, r24
    64c0:	09 2f       	mov	r16, r25
    64c2:	eb 01       	movw	r28, r22
    64c4:	8b 81       	ldd	r24, Y+3	; 0x03
    64c6:	81 fd       	sbrc	r24, 1
    64c8:	09 c0       	rjmp	.+18     	; 0x64dc <fputc+0x26>
    64ca:	1f ef       	ldi	r17, 0xFF	; 255
    64cc:	0f ef       	ldi	r16, 0xFF	; 255
    64ce:	81 2f       	mov	r24, r17
    64d0:	90 2f       	mov	r25, r16
    64d2:	df 91       	pop	r29
    64d4:	cf 91       	pop	r28
    64d6:	1f 91       	pop	r17
    64d8:	0f 91       	pop	r16
    64da:	08 95       	ret
    64dc:	82 ff       	sbrs	r24, 2
    64de:	14 c0       	rjmp	.+40     	; 0x6508 <fputc+0x52>
    64e0:	2e 81       	ldd	r18, Y+6	; 0x06
    64e2:	3f 81       	ldd	r19, Y+7	; 0x07
    64e4:	8c 81       	ldd	r24, Y+4	; 0x04
    64e6:	9d 81       	ldd	r25, Y+5	; 0x05
    64e8:	28 17       	cp	r18, r24
    64ea:	39 07       	cpc	r19, r25
    64ec:	3c f4       	brge	.+14     	; 0x64fc <fputc+0x46>
    64ee:	e8 81       	ld	r30, Y
    64f0:	f9 81       	ldd	r31, Y+1	; 0x01
    64f2:	cf 01       	movw	r24, r30
    64f4:	01 96       	adiw	r24, 0x01	; 1
    64f6:	99 83       	std	Y+1, r25	; 0x01
    64f8:	88 83       	st	Y, r24
    64fa:	10 83       	st	Z, r17
    64fc:	8e 81       	ldd	r24, Y+6	; 0x06
    64fe:	9f 81       	ldd	r25, Y+7	; 0x07
    6500:	01 96       	adiw	r24, 0x01	; 1
    6502:	9f 83       	std	Y+7, r25	; 0x07
    6504:	8e 83       	std	Y+6, r24	; 0x06
    6506:	e3 cf       	rjmp	.-58     	; 0x64ce <fputc+0x18>
    6508:	e8 85       	ldd	r30, Y+8	; 0x08
    650a:	f9 85       	ldd	r31, Y+9	; 0x09
    650c:	81 2f       	mov	r24, r17
    650e:	09 95       	icall
    6510:	89 2b       	or	r24, r25
    6512:	a1 f3       	breq	.-24     	; 0x64fc <fputc+0x46>
    6514:	da cf       	rjmp	.-76     	; 0x64ca <fputc+0x14>

00006516 <__ultoa_invert>:
    6516:	fa 01       	movw	r30, r20
    6518:	aa 27       	eor	r26, r26
    651a:	28 30       	cpi	r18, 0x08	; 8
    651c:	51 f1       	breq	.+84     	; 0x6572 <__ultoa_invert+0x5c>
    651e:	20 31       	cpi	r18, 0x10	; 16
    6520:	81 f1       	breq	.+96     	; 0x6582 <__ultoa_invert+0x6c>
    6522:	e8 94       	clt
    6524:	6f 93       	push	r22
    6526:	6e 7f       	andi	r22, 0xFE	; 254
    6528:	6e 5f       	subi	r22, 0xFE	; 254
    652a:	7f 4f       	sbci	r23, 0xFF	; 255
    652c:	8f 4f       	sbci	r24, 0xFF	; 255
    652e:	9f 4f       	sbci	r25, 0xFF	; 255
    6530:	af 4f       	sbci	r26, 0xFF	; 255
    6532:	b1 e0       	ldi	r27, 0x01	; 1
    6534:	3e d0       	rcall	.+124    	; 0x65b2 <__ultoa_invert+0x9c>
    6536:	b4 e0       	ldi	r27, 0x04	; 4
    6538:	3c d0       	rcall	.+120    	; 0x65b2 <__ultoa_invert+0x9c>
    653a:	67 0f       	add	r22, r23
    653c:	78 1f       	adc	r23, r24
    653e:	89 1f       	adc	r24, r25
    6540:	9a 1f       	adc	r25, r26
    6542:	a1 1d       	adc	r26, r1
    6544:	68 0f       	add	r22, r24
    6546:	79 1f       	adc	r23, r25
    6548:	8a 1f       	adc	r24, r26
    654a:	91 1d       	adc	r25, r1
    654c:	a1 1d       	adc	r26, r1
    654e:	6a 0f       	add	r22, r26
    6550:	71 1d       	adc	r23, r1
    6552:	81 1d       	adc	r24, r1
    6554:	91 1d       	adc	r25, r1
    6556:	a1 1d       	adc	r26, r1
    6558:	20 d0       	rcall	.+64     	; 0x659a <__ultoa_invert+0x84>
    655a:	09 f4       	brne	.+2      	; 0x655e <__ultoa_invert+0x48>
    655c:	68 94       	set
    655e:	3f 91       	pop	r19
    6560:	2a e0       	ldi	r18, 0x0A	; 10
    6562:	26 9f       	mul	r18, r22
    6564:	11 24       	eor	r1, r1
    6566:	30 19       	sub	r19, r0
    6568:	30 5d       	subi	r19, 0xD0	; 208
    656a:	31 93       	st	Z+, r19
    656c:	de f6       	brtc	.-74     	; 0x6524 <__ultoa_invert+0xe>
    656e:	cf 01       	movw	r24, r30
    6570:	08 95       	ret
    6572:	46 2f       	mov	r20, r22
    6574:	47 70       	andi	r20, 0x07	; 7
    6576:	40 5d       	subi	r20, 0xD0	; 208
    6578:	41 93       	st	Z+, r20
    657a:	b3 e0       	ldi	r27, 0x03	; 3
    657c:	0f d0       	rcall	.+30     	; 0x659c <__ultoa_invert+0x86>
    657e:	c9 f7       	brne	.-14     	; 0x6572 <__ultoa_invert+0x5c>
    6580:	f6 cf       	rjmp	.-20     	; 0x656e <__ultoa_invert+0x58>
    6582:	46 2f       	mov	r20, r22
    6584:	4f 70       	andi	r20, 0x0F	; 15
    6586:	40 5d       	subi	r20, 0xD0	; 208
    6588:	4a 33       	cpi	r20, 0x3A	; 58
    658a:	18 f0       	brcs	.+6      	; 0x6592 <__ultoa_invert+0x7c>
    658c:	49 5d       	subi	r20, 0xD9	; 217
    658e:	31 fd       	sbrc	r19, 1
    6590:	40 52       	subi	r20, 0x20	; 32
    6592:	41 93       	st	Z+, r20
    6594:	02 d0       	rcall	.+4      	; 0x659a <__ultoa_invert+0x84>
    6596:	a9 f7       	brne	.-22     	; 0x6582 <__ultoa_invert+0x6c>
    6598:	ea cf       	rjmp	.-44     	; 0x656e <__ultoa_invert+0x58>
    659a:	b4 e0       	ldi	r27, 0x04	; 4
    659c:	a6 95       	lsr	r26
    659e:	97 95       	ror	r25
    65a0:	87 95       	ror	r24
    65a2:	77 95       	ror	r23
    65a4:	67 95       	ror	r22
    65a6:	ba 95       	dec	r27
    65a8:	c9 f7       	brne	.-14     	; 0x659c <__ultoa_invert+0x86>
    65aa:	00 97       	sbiw	r24, 0x00	; 0
    65ac:	61 05       	cpc	r22, r1
    65ae:	71 05       	cpc	r23, r1
    65b0:	08 95       	ret
    65b2:	9b 01       	movw	r18, r22
    65b4:	ac 01       	movw	r20, r24
    65b6:	0a 2e       	mov	r0, r26
    65b8:	06 94       	lsr	r0
    65ba:	57 95       	ror	r21
    65bc:	47 95       	ror	r20
    65be:	37 95       	ror	r19
    65c0:	27 95       	ror	r18
    65c2:	ba 95       	dec	r27
    65c4:	c9 f7       	brne	.-14     	; 0x65b8 <__ultoa_invert+0xa2>
    65c6:	62 0f       	add	r22, r18
    65c8:	73 1f       	adc	r23, r19
    65ca:	84 1f       	adc	r24, r20
    65cc:	95 1f       	adc	r25, r21
    65ce:	a0 1d       	adc	r26, r0
    65d0:	08 95       	ret

000065d2 <__divmodsi4>:
    65d2:	05 2e       	mov	r0, r21
    65d4:	97 fb       	bst	r25, 7
    65d6:	1e f4       	brtc	.+6      	; 0x65de <__divmodsi4+0xc>
    65d8:	00 94       	com	r0
    65da:	0e 94 00 33 	call	0x6600	; 0x6600 <__negsi2>
    65de:	57 fd       	sbrc	r21, 7
    65e0:	07 d0       	rcall	.+14     	; 0x65f0 <__divmodsi4_neg2>
    65e2:	0e 94 5c 2f 	call	0x5eb8	; 0x5eb8 <__udivmodsi4>
    65e6:	07 fc       	sbrc	r0, 7
    65e8:	03 d0       	rcall	.+6      	; 0x65f0 <__divmodsi4_neg2>
    65ea:	4e f4       	brtc	.+18     	; 0x65fe <__divmodsi4_exit>
    65ec:	0c 94 00 33 	jmp	0x6600	; 0x6600 <__negsi2>

000065f0 <__divmodsi4_neg2>:
    65f0:	50 95       	com	r21
    65f2:	40 95       	com	r20
    65f4:	30 95       	com	r19
    65f6:	21 95       	neg	r18
    65f8:	3f 4f       	sbci	r19, 0xFF	; 255
    65fa:	4f 4f       	sbci	r20, 0xFF	; 255
    65fc:	5f 4f       	sbci	r21, 0xFF	; 255

000065fe <__divmodsi4_exit>:
    65fe:	08 95       	ret

00006600 <__negsi2>:
    6600:	90 95       	com	r25
    6602:	80 95       	com	r24
    6604:	70 95       	com	r23
    6606:	61 95       	neg	r22
    6608:	7f 4f       	sbci	r23, 0xFF	; 255
    660a:	8f 4f       	sbci	r24, 0xFF	; 255
    660c:	9f 4f       	sbci	r25, 0xFF	; 255
    660e:	08 95       	ret

00006610 <__prologue_saves__>:
    6610:	2f 92       	push	r2
    6612:	3f 92       	push	r3
    6614:	4f 92       	push	r4
    6616:	5f 92       	push	r5
    6618:	6f 92       	push	r6
    661a:	7f 92       	push	r7
    661c:	8f 92       	push	r8
    661e:	9f 92       	push	r9
    6620:	af 92       	push	r10
    6622:	bf 92       	push	r11
    6624:	cf 92       	push	r12
    6626:	df 92       	push	r13
    6628:	ef 92       	push	r14
    662a:	ff 92       	push	r15
    662c:	0f 93       	push	r16
    662e:	1f 93       	push	r17
    6630:	cf 93       	push	r28
    6632:	df 93       	push	r29
    6634:	cd b7       	in	r28, 0x3d	; 61
    6636:	de b7       	in	r29, 0x3e	; 62
    6638:	ca 1b       	sub	r28, r26
    663a:	db 0b       	sbc	r29, r27
    663c:	0f b6       	in	r0, 0x3f	; 63
    663e:	f8 94       	cli
    6640:	de bf       	out	0x3e, r29	; 62
    6642:	0f be       	out	0x3f, r0	; 63
    6644:	cd bf       	out	0x3d, r28	; 61
    6646:	09 94       	ijmp

00006648 <__epilogue_restores__>:
    6648:	2a 88       	ldd	r2, Y+18	; 0x12
    664a:	39 88       	ldd	r3, Y+17	; 0x11
    664c:	48 88       	ldd	r4, Y+16	; 0x10
    664e:	5f 84       	ldd	r5, Y+15	; 0x0f
    6650:	6e 84       	ldd	r6, Y+14	; 0x0e
    6652:	7d 84       	ldd	r7, Y+13	; 0x0d
    6654:	8c 84       	ldd	r8, Y+12	; 0x0c
    6656:	9b 84       	ldd	r9, Y+11	; 0x0b
    6658:	aa 84       	ldd	r10, Y+10	; 0x0a
    665a:	b9 84       	ldd	r11, Y+9	; 0x09
    665c:	c8 84       	ldd	r12, Y+8	; 0x08
    665e:	df 80       	ldd	r13, Y+7	; 0x07
    6660:	ee 80       	ldd	r14, Y+6	; 0x06
    6662:	fd 80       	ldd	r15, Y+5	; 0x05
    6664:	0c 81       	ldd	r16, Y+4	; 0x04
    6666:	1b 81       	ldd	r17, Y+3	; 0x03
    6668:	aa 81       	ldd	r26, Y+2	; 0x02
    666a:	b9 81       	ldd	r27, Y+1	; 0x01
    666c:	ce 0f       	add	r28, r30
    666e:	d1 1d       	adc	r29, r1
    6670:	0f b6       	in	r0, 0x3f	; 63
    6672:	f8 94       	cli
    6674:	de bf       	out	0x3e, r29	; 62
    6676:	0f be       	out	0x3f, r0	; 63
    6678:	cd bf       	out	0x3d, r28	; 61
    667a:	ed 01       	movw	r28, r26
    667c:	08 95       	ret

0000667e <_exit>:
    667e:	f8 94       	cli

00006680 <__stop_program>:
    6680:	ff cf       	rjmp	.-2      	; 0x6680 <__stop_program>
    6682:	56 1c       	adc	r5, r6
    6684:	73 1c       	adc	r7, r3
    6686:	73 1c       	adc	r7, r3
    6688:	78 1c       	adc	r7, r8
    668a:	78 1c       	adc	r7, r8
    668c:	78 1c       	adc	r7, r8
    668e:	78 1c       	adc	r7, r8
    6690:	78 1c       	adc	r7, r8
    6692:	7d 1c       	adc	r7, r13
    6694:	7f 1c       	adc	r7, r15
    6696:	7f 1c       	adc	r7, r15
    6698:	7f 1c       	adc	r7, r15
    669a:	7f 1c       	adc	r7, r15
    669c:	9e 1c       	adc	r9, r14
    669e:	a2 1c       	adc	r10, r2
